#########################################################################################################################################################################################################################################
# Investigation Details
# ======================
# Investigator Name: Solomon Sonya
# Investigation Description: Malware Analysis Cookbook - zeus.vmem
# Investigation Date: 2022-01-18-1142:50
#
# Analysis Framework
# ======================
# Analysis Framework Name: Xavier Framework
# Analysis Framework Version: 2.114
#
# Memory Analysis Binary
# ======================
# File Name: vol_2.6.exe	 File Size: 15.79 MBs	 Creation Date: 2022-01-16-1019:29	 Last Accessed: 2022-01-18-0944:00	 Last Modified: 2021-02-28-2253:29	 
# MD5: 2fc05486a3fe93cef213cc37748bf556	 SHA-256: 672a00461ffb8d59536c86192450b66d552e67809fc8584d1792b42b22c5f4e1	 
#
# Analysis Image Details
# ======================
# Memory Image Path: C:\xavier\xavier_framework\import\memory_image\zeus.vmem
# File Name: zeus.vmem	 File Size: 134.22 MBs	 Creation Date: 2010-08-15-1618:08	 Last Accessed: 2010-08-15-1618:08	 Last Modified: 2010-08-15-1618:08	 
# MD5: b6e4817d7c1aea69bbd8b19b42075681	 SHA-256: 5e6286b618b6229f87748497f1ac0569729467789669775e0e7dd00acd87a921	 
#
# Plugin Details
# ======================
# Plugin Name: apihooks
# Plugin Description: Detect API hooks in process and kernel memory
#
# Execution Details
# ======================
# Execution Command: "C:\xavier\xavier_framework\import\memory_analysis\vol_2.6.exe" -f "C:\xavier\xavier_framework\import\memory_image\zeus.vmem" apihooks --profile=WinXPSP3x86
#########################################################################################################################################################################################################################################


Volatility Foundation Volatility Framework 2.6
************************************************************************
Hook mode: Usermode
Hook type: Inline/Trampoline
Process: 676 (services.exe)
Victim module: ntdll.dll (0x7c900000 - 0x7c9b0000)
Function: ntdll.dll!NtCreateThread at 0x7c90d7d2
Hook address: 0x7e3b47
Hooking module: <unknown>

Disassembly(0):
0x7c90d7d2 e97063ed83       JMP 0x7e3b47
0x7c90d7d7 ba0003fe7f       MOV EDX, 0x7ffe0300
0x7c90d7dc ff12             CALL DWORD [EDX]
0x7c90d7de c22000           RET 0x20
0x7c90d7e1 90               NOP
0x7c90d7e2 90               NOP
0x7c90d7e3 90               NOP
0x7c90d7e4 90               NOP
0x7c90d7e5 90               NOP
0x7c90d7e6 90               NOP
0x7c90d7e7 b8               DB 0xb8
0x7c90d7e8 36               DB 0x36
0x7c90d7e9 00               DB 0x0

Disassembly(1):
0x7e3b47 55               PUSH EBP
0x7e3b48 8bec             MOV EBP, ESP
0x7e3b4a 83ec18           SUB ESP, 0x18
0x7e3b4d 53               PUSH EBX
0x7e3b4e 56               PUSH ESI
0x7e3b4f 57               PUSH EDI
0x7e3b50 8b7d14           MOV EDI, [EBP+0x14]
0x7e3b53 8d4514           LEA EAX, [EBP+0x14]
0x7e3b56 50               PUSH EAX
0x7e3b57 6a18             PUSH 0x18
0x7e3b59 8d45e8           LEA EAX, [EBP-0x18]
0x7e3b5c 50               PUSH EAX
0x7e3b5d 33f6             XOR ESI, ESI

************************************************************************
Hook mode: Usermode
Hook type: Inline/Trampoline
Process: 676 (services.exe)
Victim module: ntdll.dll (0x7c900000 - 0x7c9b0000)
Function: ntdll.dll!NtQueryDirectoryFile at 0x7c90df5e
Hook address: 0x7e3ca5
Hooking module: <unknown>

Disassembly(0):
0x7c90df5e e9425ded83       JMP 0x7e3ca5
0x7c90df63 ba0003fe7f       MOV EDX, 0x7ffe0300
0x7c90df68 ff12             CALL DWORD [EDX]
0x7c90df6a c22c00           RET 0x2c
0x7c90df6d 90               NOP
0x7c90df6e 90               NOP
0x7c90df6f 90               NOP
0x7c90df70 90               NOP
0x7c90df71 90               NOP
0x7c90df72 90               NOP
0x7c90df73 b8               DB 0xb8
0x7c90df74 92               XCHG EDX, EAX
0x7c90df75 00               DB 0x0

Disassembly(1):
0x7e3ca5 55               PUSH EBP
0x7e3ca6 8bec             MOV EBP, ESP
0x7e3ca8 e88bfeffff       CALL 0x7e3b38
0x7e3cad ff7530           PUSH DWORD [EBP+0x30]
0x7e3cb0 ff752c           PUSH DWORD [EBP+0x2c]
0x7e3cb3 ff7528           PUSH DWORD [EBP+0x28]
0x7e3cb6 ff7524           PUSH DWORD [EBP+0x24]
0x7e3cb9 ff7520           PUSH DWORD [EBP+0x20]
0x7e3cbc ff               DB 0xff

************************************************************************
Hook mode: Usermode
Hook type: Inline/Trampoline
Process: 676 (services.exe)
Victim module: ntdll.dll (0x7c900000 - 0x7c9b0000)
Function: ntdll.dll!ZwCreateThread at 0x7c90d7d2
Hook address: 0x7e3b47
Hooking module: <unknown>

Disassembly(0):
0x7c90d7d2 e97063ed83       JMP 0x7e3b47
0x7c90d7d7 ba0003fe7f       MOV EDX, 0x7ffe0300
0x7c90d7dc ff12             CALL DWORD [EDX]
0x7c90d7de c22000           RET 0x20
0x7c90d7e1 90               NOP
0x7c90d7e2 90               NOP
0x7c90d7e3 90               NOP
0x7c90d7e4 90               NOP
0x7c90d7e5 90               NOP
0x7c90d7e6 90               NOP
0x7c90d7e7 b8               DB 0xb8
0x7c90d7e8 36               DB 0x36
0x7c90d7e9 00               DB 0x0

Disassembly(1):
0x7e3b47 55               PUSH EBP
0x7e3b48 8bec             MOV EBP, ESP
0x7e3b4a 83ec18           SUB ESP, 0x18
0x7e3b4d 53               PUSH EBX
0x7e3b4e 56               PUSH ESI
0x7e3b4f 57               PUSH EDI
0x7e3b50 8b7d14           MOV EDI, [EBP+0x14]
0x7e3b53 8d4514           LEA EAX, [EBP+0x14]
0x7e3b56 50               PUSH EAX
0x7e3b57 6a18             PUSH 0x18
0x7e3b59 8d45e8           LEA EAX, [EBP-0x18]
0x7e3b5c 50               PUSH EAX
0x7e3b5d 33f6             XOR ESI, ESI

************************************************************************
Hook mode: Usermode
Hook type: Inline/Trampoline
Process: 676 (services.exe)
Victim module: ntdll.dll (0x7c900000 - 0x7c9b0000)
Function: ntdll.dll!ZwQueryDirectoryFile at 0x7c90df5e
Hook address: 0x7e3ca5
Hooking module: <unknown>

Disassembly(0):
0x7c90df5e e9425ded83       JMP 0x7e3ca5
0x7c90df63 ba0003fe7f       MOV EDX, 0x7ffe0300
0x7c90df68 ff12             CALL DWORD [EDX]
0x7c90df6a c22c00           RET 0x2c
0x7c90df6d 90               NOP
0x7c90df6e 90               NOP
0x7c90df6f 90               NOP
0x7c90df70 90               NOP
0x7c90df71 90               NOP
0x7c90df72 90               NOP
0x7c90df73 b8               DB 0xb8
0x7c90df74 92               XCHG EDX, EAX
0x7c90df75 00               DB 0x0

Disassembly(1):
0x7e3ca5 55               PUSH EBP
0x7e3ca6 8bec             MOV EBP, ESP
0x7e3ca8 e88bfeffff       CALL 0x7e3b38
0x7e3cad ff7530           PUSH DWORD [EBP+0x30]
0x7e3cb0 ff752c           PUSH DWORD [EBP+0x2c]
0x7e3cb3 ff7528           PUSH DWORD [EBP+0x28]
0x7e3cb6 ff7524           PUSH DWORD [EBP+0x24]
0x7e3cb9 ff7520           PUSH DWORD [EBP+0x20]
0x7e3cbc ff               DB 0xff

************************************************************************
Hook mode: Usermode
Hook type: Inline/Trampoline
Process: 676 (services.exe)
Victim module: USER32.dll (0x77d40000 - 0x77dd0000)
Function: USER32.dll!BeginPaint at 0x77d4b4b1
Hook address: 0x7efd3f
Hooking module: <unknown>

Disassembly(0):
0x77d4b4b1 e98948aa88       JMP 0x7efd3f
0x77d4b4b6 ba0003fe7f       MOV EDX, 0x7ffe0300
0x77d4b4bb ff12             CALL DWORD [EDX]
0x77d4b4bd c20800           RET 0x8
0x77d4b4c0 90               NOP
0x77d4b4c1 90               NOP
0x77d4b4c2 90               NOP
0x77d4b4c3 90               NOP
0x77d4b4c4 90               NOP
0x77d4b4c5 e9               DB 0xe9
0x77d4b4c6 d7               XLAT BYTE [EBX+AL]
0x77d4b4c7 48               DEC EAX
0x77d4b4c8 aa               STOSB

Disassembly(1):
0x7efd3f 833d84278000ff   CMP DWORD [0x802784], -0x1
0x7efd46 56               PUSH ESI
0x7efd47 8b74240c         MOV ESI, [ESP+0xc]
0x7efd4b 7540             JNZ 0x7efd8d
0x7efd4d 85f6             TEST ESI, ESI
0x7efd4f 743c             JZ 0x7efd8d
0x7efd51 ff1510117e00     CALL DWORD [0x7e1110]

************************************************************************
Hook mode: Usermode
Hook type: Inline/Trampoline
Process: 676 (services.exe)
Victim module: USER32.dll (0x77d40000 - 0x77dd0000)
Function: USER32.dll!DefWindowProcA at 0x77d4df6b
Hook address: 0x7efe0c
Hooking module: <unknown>

Disassembly(0):
0x77d4df6b e99c1eaa88       JMP 0x7efe0c
0x77d4df70 d477             AAM 0x77
0x77d4df72 e819a6ffff       CALL 0x77d48590
0x77d4df77 e890a6ffff       CALL 0x77d4860c
0x77d4df7c 833d6c00da7700   CMP DWORD [0x77da006c], 0x0

Disassembly(1):
0x7efe0c 55               PUSH EBP
0x7efe0d 8bec             MOV EBP, ESP
0x7efe0f 833d84278000ff   CMP DWORD [0x802784], -0x1
0x7efe16 56               PUSH ESI
0x7efe17 8b750c           MOV ESI, [EBP+0xc]
0x7efe1a 7512             JNZ 0x7efe2e
0x7efe1c 3b3578268000     CMP ESI, [0x802678]
0x7efe22 750a             JNZ 0x7efe2e

************************************************************************
Hook mode: Usermode
Hook type: Inline/Trampoline
Process: 676 (services.exe)
Victim module: USER32.dll (0x77d40000 - 0x77dd0000)
Function: USER32.dll!DefWindowProcW at 0x77d4b1e5
Hook address: 0x7efdd0
Hooking module: <unknown>

Disassembly(0):
0x77d4b1e5 e9e64baa88       JMP 0x7efdd0
0x77d4b1ea d477             AAM 0x77
0x77d4b1ec e89fd3ffff       CALL 0x77d48590
0x77d4b1f1 e816d4ffff       CALL 0x77d4860c
0x77d4b1f6 833d6c00da7700   CMP DWORD [0x77da006c], 0x0

Disassembly(1):
0x7efdd0 55               PUSH EBP
0x7efdd1 8bec             MOV EBP, ESP
0x7efdd3 833d84278000ff   CMP DWORD [0x802784], -0x1
0x7efdda 56               PUSH ESI
0x7efddb 8b750c           MOV ESI, [EBP+0xc]
0x7efdde 7512             JNZ 0x7efdf2
0x7efde0 3b3578268000     CMP ESI, [0x802678]
0x7efde6 750a             JNZ 0x7efdf2

************************************************************************
Hook mode: Usermode
Hook type: Inline/Trampoline
Process: 676 (services.exe)
Victim module: USER32.dll (0x77d40000 - 0x77dd0000)
Function: USER32.dll!EndPaint at 0x77d4b4c5
Hook address: 0x7efda1
Hooking module: <unknown>

Disassembly(0):
0x77d4b4c5 e9d748aa88       JMP 0x7efda1
0x77d4b4ca ba0003fe7f       MOV EDX, 0x7ffe0300
0x77d4b4cf ff12             CALL DWORD [EDX]
0x77d4b4d1 c20800           RET 0x8
0x77d4b4d4 90               NOP
0x77d4b4d5 90               NOP
0x77d4b4d6 90               NOP
0x77d4b4d7 90               NOP
0x77d4b4d8 90               NOP
0x77d4b4d9 8bff             MOV EDI, EDI
0x77d4b4db 55               PUSH EBP
0x77d4b4dc 8b               DB 0x8b

Disassembly(1):
0x7efda1 833d84278000ff   CMP DWORD [0x802784], -0x1
0x7efda8 751b             JNZ 0x7efdc5
0x7efdaa 837c240800       CMP DWORD [ESP+0x8], 0x0
0x7efdaf 7414             JZ 0x7efdc5
0x7efdb1 ff1510117e00     CALL DWORD [0x7e1110]
0x7efdb7 39               DB 0x39
0x7efdb8 05               DB 0x5

************************************************************************
Hook mode: Usermode
Hook type: Inline/Trampoline
Process: 676 (services.exe)
Victim module: USER32.dll (0x77d40000 - 0x77dd0000)
Function: USER32.dll!GetClipboardData at 0x77d6fcb2
Hook address: 0x7f4fd5
Hooking module: <unknown>

Disassembly(0):
0x77d6fcb2 e91e53a888       JMP 0x7f4fd5
0x77d6fcb7 83ec2c           SUB ESP, 0x2c
0x77d6fcba 56               PUSH ESI
0x77d6fcbb 57               PUSH EDI
0x77d6fcbc 8d45d4           LEA EAX, [EBP-0x2c]
0x77d6fcbf 50               PUSH EAX
0x77d6fcc0 ff7508           PUSH DWORD [EBP+0x8]
0x77d6fcc3 e8e8000000       CALL 0x77d6fdb0
0x77d6fcc8 8bf0             MOV ESI, EAX

Disassembly(1):
0x7f4fd5 55               PUSH EBP
0x7f4fd6 8bec             MOV EBP, ESP
0x7f4fd8 53               PUSH EBX
0x7f4fd9 56               PUSH ESI
0x7f4fda e859ebfeff       CALL 0x7e3b38
0x7f4fdf 8b7508           MOV ESI, [EBP+0x8]
0x7f4fe2 56               PUSH ESI
0x7f4fe3 ff1560137e00     CALL DWORD [0x7e1360]
0x7f4fe9 8bd8             MOV EBX, EAX
0x7f4feb 85db             TEST EBX, EBX

************************************************************************
Hook mode: Usermode
Hook type: Inline/Trampoline
Process: 676 (services.exe)
Victim module: USER32.dll (0x77d40000 - 0x77dd0000)
Function: USER32.dll!TranslateMessage at 0x77d48bce
Hook address: 0x7f4ea0
Hooking module: <unknown>

Disassembly(0):
0x77d48bce e9cdc2aa88       JMP 0x7f4ea0
0x77d48bd3 56               PUSH ESI
0x77d48bd4 8b7508           MOV ESI, [EBP+0x8]
0x77d48bd7 66817e08e500     CMP WORD [ESI+0x8], 0xe5
0x77d48bdd 0f84a77e0200     JZ 0x77d70a8a
0x77d48be3 6a00             PUSH 0x0
0x77d48be5 56               PUSH ESI

Disassembly(1):
0x7f4ea0 55               PUSH EBP
0x7f4ea1 8bec             MOV EBP, ESP
0x7f4ea3 83e4f8           AND ESP, -0x8
0x7f4ea6 81ec1c030000     SUB ESP, 0x31c
0x7f4eac 53               PUSH EBX
0x7f4ead 8b5d08           MOV EBX, [EBP+0x8]
0x7f4eb0 56               PUSH ESI
0x7f4eb1 57               PUSH EDI
0x7f4eb2 85db             TEST EBX, EBX
0x7f4eb4 0f               DB 0xf
0x7f4eb5 8406             TEST [ESI], AL
0x7f4eb7 01               DB 0x1

************************************************************************
Hook mode: Usermode
Hook type: Inline/Trampoline
Process: 676 (services.exe)
Victim module: WS2_32.dll (0x71ab0000 - 0x71ac7000)
Function: WS2_32.dll!WSASend at 0x71ab6233
Hook address: 0x7f112c
Hooking module: <unknown>

Disassembly(0):
0x71ab6233 e9f4aed38e       JMP 0x7f112c
0x71ab6238 51               PUSH ECX
0x71ab6239 51               PUSH ECX
0x71ab623a 813d2840ac714894ab71 CMP DWORD [0x71ac4028], 0x71ab9448
0x71ab6244 56               PUSH ESI
0x71ab6245 0f847f540000     JZ 0x71abb6ca

Disassembly(1):
0x7f112c 55               PUSH EBP
0x7f112d 8bec             MOV EBP, ESP
0x7f112f 837d1000         CMP DWORD [EBP+0x10], 0x0
0x7f1133 56               PUSH ESI
0x7f1134 8b750c           MOV ESI, [EBP+0xc]
0x7f1137 7615             JBE 0x7f114e
0x7f1139 57               PUSH EDI
0x7f113a 8b7d10           MOV EDI, [EBP+0x10]
0x7f113d ff36             PUSH DWORD [ESI]
0x7f113f 8b4604           MOV EAX, [ESI+0x4]
0x7f1142 ff               DB 0xff
0x7f1143 75               DB 0x75

************************************************************************
Hook mode: Usermode
Hook type: Inline/Trampoline
Process: 676 (services.exe)
Victim module: WS2_32.dll (0x71ab0000 - 0x71ac7000)
Function: WS2_32.dll!closesocket at 0x71ab9639
Hook address: 0x7f10db
Hooking module: <unknown>

Disassembly(0):
0x71ab9639 e99d7ad38e       JMP 0x7f10db
0x71ab963e 51               PUSH ECX
0x71ab963f 813d2840ac714894ab71 CMP DWORD [0x71ac4028], 0x71ab9448
0x71ab9649 56               PUSH ESI
0x71ab964a 0f84aef3ffff     JZ 0x71ab89fe
0x71ab9650 e8               DB 0xe8

Disassembly(1):
0x7f10db 56               PUSH ESI
0x7f10dc bef4268000       MOV ESI, 0x8026f4
0x7f10e1 56               PUSH ESI
0x7f10e2 ff1574127e00     CALL DWORD [0x7e1274]
0x7f10e8 ff742408         PUSH DWORD [ESP+0x8]
0x7f10ec e859fcffff       CALL 0x7f0d4a
0x7f10f1 85c0             TEST EAX, EAX

************************************************************************
Hook mode: Usermode
Hook type: Inline/Trampoline
Process: 676 (services.exe)
Victim module: WS2_32.dll (0x71ab0000 - 0x71ac7000)
Function: WS2_32.dll!send at 0x71ab428a
Hook address: 0x7f110f
Hooking module: <unknown>

Disassembly(0):
0x71ab428a e980ced38e       JMP 0x7f110f
0x71ab428f 83ec10           SUB ESP, 0x10
0x71ab4292 56               PUSH ESI
0x71ab4293 57               PUSH EDI
0x71ab4294 33ff             XOR EDI, EDI
0x71ab4296 813d2840ac714894ab71 CMP DWORD [0x71ac4028], 0x71ab9448
0x71ab42a0 0f               DB 0xf
0x71ab42a1 84               DB 0x84

Disassembly(1):
0x7f110f 55               PUSH EBP
0x7f1110 8bec             MOV EBP, ESP
0x7f1112 ff7510           PUSH DWORD [EBP+0x10]
0x7f1115 8b450c           MOV EAX, [EBP+0xc]
0x7f1118 ff7508           PUSH DWORD [EBP+0x8]
0x7f111b e838fdffff       CALL 0x7f0e58
0x7f1120 e8132affff       CALL 0x7e3b38
0x7f1125 5d               POP EBP
0x7f1126 ff               DB 0xff

************************************************************************
Hook mode: Usermode
Hook type: Inline/Trampoline
Process: 676 (services.exe)
Victim module: CRYPT32.dll (0x77a80000 - 0x77b14000)
Function: CRYPT32.dll!PFXImportCertStore at 0x77aef748
Hook address: 0x7e3692
Hooking module: <unknown>

Disassembly(0):
0x77aef748 e9453fcf88       JMP 0x7e3692
0x77aef74d 83ec18           SUB ESP, 0x18
0x77aef750 53               PUSH EBX
0x77aef751 57               PUSH EDI
0x77aef752 33c0             XOR EAX, EAX
0x77aef754 8d7de8           LEA EDI, [EBP-0x18]
0x77aef757 33db             XOR EBX, EBX
0x77aef759 f74510dcefffef   TEST DWORD [EBP+0x10], 0xefffefdc

Disassembly(1):
0x7e3692 55               PUSH EBP
0x7e3693 8bec             MOV EBP, ESP
0x7e3695 81ec80000000     SUB ESP, 0x80
0x7e369b 53               PUSH EBX
0x7e369c 56               PUSH ESI
0x7e369d e896040000       CALL 0x7e3b38
0x7e36a2 ff7510           PUSH DWORD [EBP+0x10]
0x7e36a5 8b7508           MOV ESI, [EBP+0x8]
0x7e36a8 ff               DB 0xff
0x7e36a9 75               DB 0x75

************************************************************************
Hook mode: Usermode
Hook type: Inline/Trampoline
Process: 676 (services.exe)
Victim module: WININET.dll (0x771b0000 - 0x77256000)
Function: WININET.dll!HttpQueryInfoA at 0x771c8c6a
Hook address: 0x7f7477
Hooking module: <unknown>

Disassembly(0):
0x771c8c6a e908e86289       JMP 0x7f7477
0x771c8c6f 1c77             SBB AL, 0x77
0x771c8c71 e8fc89feff       CALL 0x771b1672
0x771c8c76 33db             XOR EBX, EBX
0x771c8c78 895ddc           MOV [EBP-0x24], EBX
0x771c8c7b 895de4           MOV [EBP-0x1c], EBX
0x771c8c7e 39               DB 0x39
0x771c8c7f 1d               DB 0x1d
0x771c8c80 50               PUSH EAX
0x771c8c81 98               CWDE

Disassembly(1):
0x7f7477 55               PUSH EBP
0x7f7478 8bec             MOV EBP, ESP
0x7f747a 56               PUSH ESI
0x7f747b 57               PUSH EDI
0x7f747c bf6c278000       MOV EDI, 0x80276c
0x7f7481 57               PUSH EDI
0x7f7482 ff1574127e00     CALL DWORD [0x7e1274]
0x7f7488 8b7508           MOV ESI, [EBP+0x8]
0x7f748b e8               DB 0xe8
0x7f748c 67e5ff           IN EAX, 0xff

************************************************************************
Hook mode: Usermode
Hook type: Inline/Trampoline
Process: 676 (services.exe)
Victim module: WININET.dll (0x771b0000 - 0x77256000)
Function: WININET.dll!HttpSendRequestA at 0x771c76b8
Hook address: 0x7f7366
Hooking module: <unknown>

Disassembly(0):
0x771c76b8 e9a9fc6289       JMP 0x7f7366
0x771c76bd 6a13             PUSH 0x13
0x771c76bf 6a00             PUSH 0x0
0x771c76c1 ff7518           PUSH DWORD [EBP+0x18]
0x771c76c4 ff7514           PUSH DWORD [EBP+0x14]
0x771c76c7 ff7510           PUSH DWORD [EBP+0x10]
0x771c76ca ff750c           PUSH DWORD [EBP+0xc]
0x771c76cd ff7508           PUSH DWORD [EBP+0x8]

Disassembly(1):
0x7f7366 55               PUSH EBP
0x7f7367 8bec             MOV EBP, ESP
0x7f7369 e8cac7feff       CALL 0x7e3b38
0x7f736e ff7510           PUSH DWORD [EBP+0x10]
0x7f7371 8b4518           MOV EAX, [EBP+0x18]
0x7f7374 ff750c           PUSH DWORD [EBP+0xc]
0x7f7377 8b4d14           MOV ECX, [EBP+0x14]
0x7f737a ff7508           PUSH DWORD [EBP+0x8]
0x7f737d 6a               DB 0x6a

************************************************************************
Hook mode: Usermode
Hook type: Inline/Trampoline
Process: 676 (services.exe)
Victim module: WININET.dll (0x771b0000 - 0x77256000)
Function: WININET.dll!HttpSendRequestExA at 0x7721190d
Hook address: 0x7f73ac
Hooking module: <unknown>

Disassembly(0):
0x7721190d e99a5a5e89       JMP 0x7f73ac
0x77211912 53               PUSH EBX
0x77211913 56               PUSH ESI
0x77211914 57               PUSH EDI
0x77211915 33db             XOR EBX, EBX
0x77211917 33c0             XOR EAX, EAX
0x77211919 33c9             XOR ECX, ECX
0x7721191b 33d2             XOR EDX, EDX
0x7721191d 33ff             XOR EDI, EDI
0x7721191f 395d10           CMP [EBP+0x10], EBX
0x77211922 7539             JNZ 0x7721195d
0x77211924 8b               DB 0x8b

Disassembly(1):
0x7f73ac 55               PUSH EBP
0x7f73ad 8bec             MOV EBP, ESP
0x7f73af 53               PUSH EBX
0x7f73b0 e883c7feff       CALL 0x7e3b38
0x7f73b5 ff7518           PUSH DWORD [EBP+0x18]
0x7f73b8 8b450c           MOV EAX, [EBP+0xc]
0x7f73bb ff7514           PUSH DWORD [EBP+0x14]
0x7f73be 8b5d08           MOV EBX, [EBP+0x8]
0x7f73c1 ff7510           PUSH DWORD [EBP+0x10]

************************************************************************
Hook mode: Usermode
Hook type: Inline/Trampoline
Process: 676 (services.exe)
Victim module: WININET.dll (0x771b0000 - 0x77256000)
Function: WININET.dll!HttpSendRequestExW at 0x771d53eb
Hook address: 0x7f7388
Hooking module: <unknown>

Disassembly(0):
0x771d53eb e9981f6289       JMP 0x7f7388
0x771d53f0 83ec14           SUB ESP, 0x14
0x771d53f3 53               PUSH EBX
0x771d53f4 56               PUSH ESI
0x771d53f5 33c0             XOR EAX, EAX
0x771d53f7 57               PUSH EDI
0x771d53f8 33d2             XOR EDX, EDX
0x771d53fa 33db             XOR EBX, EBX
0x771d53fc 33ff             XOR EDI, EDI
0x771d53fe 33c9             XOR ECX, ECX
0x771d5400 395508           CMP [EBP+0x8], EDX

Disassembly(1):
0x7f7388 55               PUSH EBP
0x7f7389 8bec             MOV EBP, ESP
0x7f738b 53               PUSH EBX
0x7f738c e8a7c7feff       CALL 0x7e3b38
0x7f7391 ff7518           PUSH DWORD [EBP+0x18]
0x7f7394 8b450c           MOV EAX, [EBP+0xc]
0x7f7397 ff7514           PUSH DWORD [EBP+0x14]
0x7f739a 8b5d08           MOV EBX, [EBP+0x8]
0x7f739d ff7510           PUSH DWORD [EBP+0x10]

************************************************************************
Hook mode: Usermode
Hook type: Inline/Trampoline
Process: 676 (services.exe)
Victim module: WININET.dll (0x771b0000 - 0x77256000)
Function: WININET.dll!HttpSendRequestW at 0x77211808
Hook address: 0x7f7344
Hooking module: <unknown>

Disassembly(0):
0x77211808 e9375b5e89       JMP 0x7f7344
0x7721180d 83ec14           SUB ESP, 0x14
0x77211810 53               PUSH EBX
0x77211811 33db             XOR EBX, EBX
0x77211813 56               PUSH ESI
0x77211814 33f6             XOR ESI, ESI
0x77211816 33c0             XOR EAX, EAX
0x77211818 395d08           CMP [EBP+0x8], EBX
0x7721181b 57               PUSH EDI
0x7721181c 895df8           MOV [EBP-0x8], EBX
0x7721181f 89               DB 0x89

Disassembly(1):
0x7f7344 55               PUSH EBP
0x7f7345 8bec             MOV EBP, ESP
0x7f7347 e8ecc7feff       CALL 0x7e3b38
0x7f734c ff7510           PUSH DWORD [EBP+0x10]
0x7f734f 8b4518           MOV EAX, [EBP+0x18]
0x7f7352 ff750c           PUSH DWORD [EBP+0xc]
0x7f7355 8b4d14           MOV ECX, [EBP+0x14]
0x7f7358 ff7508           PUSH DWORD [EBP+0x8]
0x7f735b 6a               DB 0x6a

************************************************************************
Hook mode: Usermode
Hook type: Inline/Trampoline
Process: 676 (services.exe)
Victim module: WININET.dll (0x771b0000 - 0x77256000)
Function: WININET.dll!InternetCloseHandle at 0x771c61dc
Hook address: 0x7f7438
Hooking module: <unknown>

Disassembly(0):
0x771c61dc e957126389       JMP 0x7f7438
0x771c61e1 51               PUSH ECX
0x771c61e2 51               PUSH ECX
0x771c61e3 53               PUSH EBX
0x771c61e4 56               PUSH ESI
0x771c61e5 33db             XOR EBX, EBX
0x771c61e7 33f6             XOR ESI, ESI
0x771c61e9 f60544a3237701   TEST BYTE [0x7723a344], 0x1
0x771c61f0 895dfc           MOV [EBP-0x4], EBX
0x771c61f3 0f               DB 0xf

Disassembly(1):
0x7f7438 53               PUSH EBX
0x7f7439 56               PUSH ESI
0x7f743a 57               PUSH EDI
0x7f743b e8f8c6feff       CALL 0x7e3b38
0x7f7440 8b742410         MOV ESI, [ESP+0x10]
0x7f7444 56               PUSH ESI
0x7f7445 ff153c147e00     CALL DWORD [0x7e143c]
0x7f744b bf6c278000       MOV EDI, 0x80276c

************************************************************************
Hook mode: Usermode
Hook type: Inline/Trampoline
Process: 676 (services.exe)
Victim module: WININET.dll (0x771b0000 - 0x77256000)
Function: WININET.dll!InternetQueryDataAvailable at 0x771d325f
Hook address: 0x7f7415
Hooking module: <unknown>

Disassembly(0):
0x771d325f e9b1416289       JMP 0x7f7415
0x771d3264 83ec10           SUB ESP, 0x10
0x771d3267 53               PUSH EBX
0x771d3268 33db             XOR EBX, EBX
0x771d326a 391d50982377     CMP [0x77239850], EBX
0x771d3270 56               PUSH ESI
0x771d3271 57               PUSH EDI
0x771d3272 895dfc           MOV [EBP-0x4], EBX
0x771d3275 c7               DB 0xc7
0x771d3276 45               INC EBP

Disassembly(1):
0x7f7415 e81ec7feff       CALL 0x7e3b38
0x7f741a ff742410         PUSH DWORD [ESP+0x10]
0x7f741e ff742410         PUSH DWORD [ESP+0x10]
0x7f7422 ff742410         PUSH DWORD [ESP+0x10]
0x7f7426 6a00             PUSH 0x0
0x7f7428 6a00             PUSH 0x0
0x7f742a ff               DB 0xff
0x7f742b 7424             JZ 0x7f7451

************************************************************************
Hook mode: Usermode
Hook type: Inline/Trampoline
Process: 676 (services.exe)
Victim module: WININET.dll (0x771b0000 - 0x77256000)
Function: WININET.dll!InternetReadFile at 0x771c9555
Hook address: 0x7f73d0
Hooking module: <unknown>

Disassembly(0):
0x771c9555 e976de6289       JMP 0x7f73d0
0x771c955a 83ec24           SUB ESP, 0x24
0x771c955d 53               PUSH EBX
0x771c955e 33db             XOR EBX, EBX
0x771c9560 391d50982377     CMP [0x77239850], EBX
0x771c9566 57               PUSH EDI
0x771c9567 895df4           MOV [EBP-0xc], EBX
0x771c956a 895df8           MOV [EBP-0x8], EBX

Disassembly(1):
0x7f73d0 e863c7feff       CALL 0x7e3b38
0x7f73d5 33c0             XOR EAX, EAX
0x7f73d7 50               PUSH EAX
0x7f73d8 50               PUSH EAX
0x7f73d9 ff742418         PUSH DWORD [ESP+0x18]
0x7f73dd ff742418         PUSH DWORD [ESP+0x18]
0x7f73e1 ff742418         PUSH DWORD [ESP+0x18]
0x7f73e5 ff               DB 0xff
0x7f73e6 7424             JZ 0x7f740c

************************************************************************
Hook mode: Usermode
Hook type: Inline/Trampoline
Process: 676 (services.exe)
Victim module: WININET.dll (0x771b0000 - 0x77256000)
Function: WININET.dll!InternetReadFileExA at 0x771f7e9a
Hook address: 0x7f73f2
Hooking module: <unknown>

Disassembly(0):
0x771f7e9a e953f55f89       JMP 0x7f73f2
0x771f7e9f 83ec20           SUB ESP, 0x20
0x771f7ea2 53               PUSH EBX
0x771f7ea3 56               PUSH ESI
0x771f7ea4 33c0             XOR EAX, EAX
0x771f7ea6 57               PUSH EDI
0x771f7ea7 33ff             XOR EDI, EDI
0x771f7ea9 40               INC EAX
0x771f7eaa 393d50982377     CMP [0x77239850], EDI
0x771f7eb0 89               DB 0x89
0x771f7eb1 7d               DB 0x7d

Disassembly(1):
0x7f73f2 e841c7feff       CALL 0x7e3b38
0x7f73f7 ff742410         PUSH DWORD [ESP+0x10]
0x7f73fb ff742410         PUSH DWORD [ESP+0x10]
0x7f73ff 6a00             PUSH 0x0
0x7f7401 6a00             PUSH 0x0
0x7f7403 ff742418         PUSH DWORD [ESP+0x18]
0x7f7407 ff               DB 0xff
0x7f7408 7424             JZ 0x7f742e

************************************************************************
Hook mode: Usermode
Hook type: Inline/Trampoline
Process: 688 (lsass.exe)
Victim module: ntdll.dll (0x7c900000 - 0x7c9b0000)
Function: ntdll.dll!NtCreateThread at 0x7c90d7d2
Hook address: 0xa13b47
Hooking module: <unknown>

Disassembly(0):
0x7c90d7d2 e970631084       JMP 0xa13b47
0x7c90d7d7 ba0003fe7f       MOV EDX, 0x7ffe0300
0x7c90d7dc ff12             CALL DWORD [EDX]
0x7c90d7de c22000           RET 0x20
0x7c90d7e1 90               NOP
0x7c90d7e2 90               NOP
0x7c90d7e3 90               NOP
0x7c90d7e4 90               NOP
0x7c90d7e5 90               NOP
0x7c90d7e6 90               NOP
0x7c90d7e7 b8               DB 0xb8
0x7c90d7e8 36               DB 0x36
0x7c90d7e9 00               DB 0x0

Disassembly(1):
0xa13b47 55               PUSH EBP
0xa13b48 8bec             MOV EBP, ESP
0xa13b4a 83ec18           SUB ESP, 0x18
0xa13b4d 53               PUSH EBX
0xa13b4e 56               PUSH ESI
0xa13b4f 57               PUSH EDI
0xa13b50 8b7d14           MOV EDI, [EBP+0x14]
0xa13b53 8d4514           LEA EAX, [EBP+0x14]
0xa13b56 50               PUSH EAX
0xa13b57 6a18             PUSH 0x18
0xa13b59 8d45e8           LEA EAX, [EBP-0x18]
0xa13b5c 50               PUSH EAX
0xa13b5d 33f6             XOR ESI, ESI

************************************************************************
Hook mode: Usermode
Hook type: Inline/Trampoline
Process: 688 (lsass.exe)
Victim module: ntdll.dll (0x7c900000 - 0x7c9b0000)
Function: ntdll.dll!NtQueryDirectoryFile at 0x7c90df5e
Hook address: 0xa13ca5
Hooking module: <unknown>

Disassembly(0):
0x7c90df5e e9425d1084       JMP 0xa13ca5
0x7c90df63 ba0003fe7f       MOV EDX, 0x7ffe0300
0x7c90df68 ff12             CALL DWORD [EDX]
0x7c90df6a c22c00           RET 0x2c
0x7c90df6d 90               NOP
0x7c90df6e 90               NOP
0x7c90df6f 90               NOP
0x7c90df70 90               NOP
0x7c90df71 90               NOP
0x7c90df72 90               NOP
0x7c90df73 b8               DB 0xb8
0x7c90df74 92               XCHG EDX, EAX
0x7c90df75 00               DB 0x0

Disassembly(1):
0xa13ca5 55               PUSH EBP
0xa13ca6 8bec             MOV EBP, ESP
0xa13ca8 e88bfeffff       CALL 0xa13b38
0xa13cad ff7530           PUSH DWORD [EBP+0x30]
0xa13cb0 ff752c           PUSH DWORD [EBP+0x2c]
0xa13cb3 ff7528           PUSH DWORD [EBP+0x28]
0xa13cb6 ff7524           PUSH DWORD [EBP+0x24]
0xa13cb9 ff7520           PUSH DWORD [EBP+0x20]
0xa13cbc ff               DB 0xff

************************************************************************
Hook mode: Usermode
Hook type: Inline/Trampoline
Process: 688 (lsass.exe)
Victim module: ntdll.dll (0x7c900000 - 0x7c9b0000)
Function: ntdll.dll!ZwCreateThread at 0x7c90d7d2
Hook address: 0xa13b47
Hooking module: <unknown>

Disassembly(0):
0x7c90d7d2 e970631084       JMP 0xa13b47
0x7c90d7d7 ba0003fe7f       MOV EDX, 0x7ffe0300
0x7c90d7dc ff12             CALL DWORD [EDX]
0x7c90d7de c22000           RET 0x20
0x7c90d7e1 90               NOP
0x7c90d7e2 90               NOP
0x7c90d7e3 90               NOP
0x7c90d7e4 90               NOP
0x7c90d7e5 90               NOP
0x7c90d7e6 90               NOP
0x7c90d7e7 b8               DB 0xb8
0x7c90d7e8 36               DB 0x36
0x7c90d7e9 00               DB 0x0

Disassembly(1):
0xa13b47 55               PUSH EBP
0xa13b48 8bec             MOV EBP, ESP
0xa13b4a 83ec18           SUB ESP, 0x18
0xa13b4d 53               PUSH EBX
0xa13b4e 56               PUSH ESI
0xa13b4f 57               PUSH EDI
0xa13b50 8b7d14           MOV EDI, [EBP+0x14]
0xa13b53 8d4514           LEA EAX, [EBP+0x14]
0xa13b56 50               PUSH EAX
0xa13b57 6a18             PUSH 0x18
0xa13b59 8d45e8           LEA EAX, [EBP-0x18]
0xa13b5c 50               PUSH EAX
0xa13b5d 33f6             XOR ESI, ESI

************************************************************************
Hook mode: Usermode
Hook type: Inline/Trampoline
Process: 688 (lsass.exe)
Victim module: ntdll.dll (0x7c900000 - 0x7c9b0000)
Function: ntdll.dll!ZwQueryDirectoryFile at 0x7c90df5e
Hook address: 0xa13ca5
Hooking module: <unknown>

Disassembly(0):
0x7c90df5e e9425d1084       JMP 0xa13ca5
0x7c90df63 ba0003fe7f       MOV EDX, 0x7ffe0300
0x7c90df68 ff12             CALL DWORD [EDX]
0x7c90df6a c22c00           RET 0x2c
0x7c90df6d 90               NOP
0x7c90df6e 90               NOP
0x7c90df6f 90               NOP
0x7c90df70 90               NOP
0x7c90df71 90               NOP
0x7c90df72 90               NOP
0x7c90df73 b8               DB 0xb8
0x7c90df74 92               XCHG EDX, EAX
0x7c90df75 00               DB 0x0

Disassembly(1):
0xa13ca5 55               PUSH EBP
0xa13ca6 8bec             MOV EBP, ESP
0xa13ca8 e88bfeffff       CALL 0xa13b38
0xa13cad ff7530           PUSH DWORD [EBP+0x30]
0xa13cb0 ff752c           PUSH DWORD [EBP+0x2c]
0xa13cb3 ff7528           PUSH DWORD [EBP+0x28]
0xa13cb6 ff7524           PUSH DWORD [EBP+0x24]
0xa13cb9 ff7520           PUSH DWORD [EBP+0x20]
0xa13cbc ff               DB 0xff

************************************************************************
Hook mode: Usermode
Hook type: Inline/Trampoline
Process: 688 (lsass.exe)
Victim module: USER32.dll (0x77d40000 - 0x77dd0000)
Function: USER32.dll!BeginPaint at 0x77d4b4b1
Hook address: 0xa1fd3f
Hooking module: <unknown>

Disassembly(0):
0x77d4b4b1 e98948cd88       JMP 0xa1fd3f
0x77d4b4b6 ba0003fe7f       MOV EDX, 0x7ffe0300
0x77d4b4bb ff12             CALL DWORD [EDX]
0x77d4b4bd c20800           RET 0x8
0x77d4b4c0 90               NOP
0x77d4b4c1 90               NOP
0x77d4b4c2 90               NOP
0x77d4b4c3 90               NOP
0x77d4b4c4 90               NOP
0x77d4b4c5 e9               DB 0xe9
0x77d4b4c6 d7               XLAT BYTE [EBX+AL]
0x77d4b4c7 48               DEC EAX
0x77d4b4c8 cd               DB 0xcd

Disassembly(1):
0xa1fd3f 833d8427a300ff   CMP DWORD [0xa32784], -0x1
0xa1fd46 56               PUSH ESI
0xa1fd47 8b74240c         MOV ESI, [ESP+0xc]
0xa1fd4b 7540             JNZ 0xa1fd8d
0xa1fd4d 85f6             TEST ESI, ESI
0xa1fd4f 743c             JZ 0xa1fd8d
0xa1fd51 ff151011a100     CALL DWORD [0xa11110]

************************************************************************
Hook mode: Usermode
Hook type: Inline/Trampoline
Process: 688 (lsass.exe)
Victim module: USER32.dll (0x77d40000 - 0x77dd0000)
Function: USER32.dll!DefWindowProcA at 0x77d4df6b
Hook address: 0xa1fe0c
Hooking module: <unknown>

Disassembly(0):
0x77d4df6b e99c1ecd88       JMP 0xa1fe0c
0x77d4df70 d477             AAM 0x77
0x77d4df72 e819a6ffff       CALL 0x77d48590
0x77d4df77 e890a6ffff       CALL 0x77d4860c
0x77d4df7c 833d6c00da7700   CMP DWORD [0x77da006c], 0x0

Disassembly(1):
0xa1fe0c 55               PUSH EBP
0xa1fe0d 8bec             MOV EBP, ESP
0xa1fe0f 833d8427a300ff   CMP DWORD [0xa32784], -0x1
0xa1fe16 56               PUSH ESI
0xa1fe17 8b750c           MOV ESI, [EBP+0xc]
0xa1fe1a 7512             JNZ 0xa1fe2e
0xa1fe1c 3b357826a300     CMP ESI, [0xa32678]
0xa1fe22 750a             JNZ 0xa1fe2e

************************************************************************
Hook mode: Usermode
Hook type: Inline/Trampoline
Process: 688 (lsass.exe)
Victim module: USER32.dll (0x77d40000 - 0x77dd0000)
Function: USER32.dll!DefWindowProcW at 0x77d4b1e5
Hook address: 0xa1fdd0
Hooking module: <unknown>

Disassembly(0):
0x77d4b1e5 e9e64bcd88       JMP 0xa1fdd0
0x77d4b1ea d477             AAM 0x77
0x77d4b1ec e89fd3ffff       CALL 0x77d48590
0x77d4b1f1 e816d4ffff       CALL 0x77d4860c
0x77d4b1f6 833d6c00da7700   CMP DWORD [0x77da006c], 0x0

Disassembly(1):
0xa1fdd0 55               PUSH EBP
0xa1fdd1 8bec             MOV EBP, ESP
0xa1fdd3 833d8427a300ff   CMP DWORD [0xa32784], -0x1
0xa1fdda 56               PUSH ESI
0xa1fddb 8b750c           MOV ESI, [EBP+0xc]
0xa1fdde 7512             JNZ 0xa1fdf2
0xa1fde0 3b357826a300     CMP ESI, [0xa32678]
0xa1fde6 750a             JNZ 0xa1fdf2

************************************************************************
Hook mode: Usermode
Hook type: Inline/Trampoline
Process: 688 (lsass.exe)
Victim module: USER32.dll (0x77d40000 - 0x77dd0000)
Function: USER32.dll!EndPaint at 0x77d4b4c5
Hook address: 0xa1fda1
Hooking module: <unknown>

Disassembly(0):
0x77d4b4c5 e9d748cd88       JMP 0xa1fda1
0x77d4b4ca ba0003fe7f       MOV EDX, 0x7ffe0300
0x77d4b4cf ff12             CALL DWORD [EDX]
0x77d4b4d1 c20800           RET 0x8
0x77d4b4d4 90               NOP
0x77d4b4d5 90               NOP
0x77d4b4d6 90               NOP
0x77d4b4d7 90               NOP
0x77d4b4d8 90               NOP
0x77d4b4d9 8bff             MOV EDI, EDI
0x77d4b4db 55               PUSH EBP
0x77d4b4dc 8b               DB 0x8b

Disassembly(1):
0xa1fda1 833d8427a300ff   CMP DWORD [0xa32784], -0x1
0xa1fda8 751b             JNZ 0xa1fdc5
0xa1fdaa 837c240800       CMP DWORD [ESP+0x8], 0x0
0xa1fdaf 7414             JZ 0xa1fdc5
0xa1fdb1 ff151011a100     CALL DWORD [0xa11110]
0xa1fdb7 39               DB 0x39
0xa1fdb8 05               DB 0x5

************************************************************************
Hook mode: Usermode
Hook type: Inline/Trampoline
Process: 688 (lsass.exe)
Victim module: USER32.dll (0x77d40000 - 0x77dd0000)
Function: USER32.dll!GetClipboardData at 0x77d6fcb2
Hook address: 0xa24fd5
Hooking module: <unknown>

Disassembly(0):
0x77d6fcb2 e91e53cb88       JMP 0xa24fd5
0x77d6fcb7 83ec2c           SUB ESP, 0x2c
0x77d6fcba 56               PUSH ESI
0x77d6fcbb 57               PUSH EDI
0x77d6fcbc 8d45d4           LEA EAX, [EBP-0x2c]
0x77d6fcbf 50               PUSH EAX
0x77d6fcc0 ff7508           PUSH DWORD [EBP+0x8]
0x77d6fcc3 e8e8000000       CALL 0x77d6fdb0
0x77d6fcc8 8bf0             MOV ESI, EAX

Disassembly(1):
0xa24fd5 55               PUSH EBP
0xa24fd6 8bec             MOV EBP, ESP
0xa24fd8 53               PUSH EBX
0xa24fd9 56               PUSH ESI
0xa24fda e859ebfeff       CALL 0xa13b38
0xa24fdf 8b7508           MOV ESI, [EBP+0x8]
0xa24fe2 56               PUSH ESI
0xa24fe3 ff156013a100     CALL DWORD [0xa11360]
0xa24fe9 8bd8             MOV EBX, EAX
0xa24feb 85db             TEST EBX, EBX

************************************************************************
Hook mode: Usermode
Hook type: Inline/Trampoline
Process: 688 (lsass.exe)
Victim module: USER32.dll (0x77d40000 - 0x77dd0000)
Function: USER32.dll!TranslateMessage at 0x77d48bce
Hook address: 0xa24ea0
Hooking module: <unknown>

Disassembly(0):
0x77d48bce e9cdc2cd88       JMP 0xa24ea0
0x77d48bd3 56               PUSH ESI
0x77d48bd4 8b7508           MOV ESI, [EBP+0x8]
0x77d48bd7 66817e08e500     CMP WORD [ESI+0x8], 0xe5
0x77d48bdd 0f84a77e0200     JZ 0x77d70a8a
0x77d48be3 6a00             PUSH 0x0
0x77d48be5 56               PUSH ESI

Disassembly(1):
0xa24ea0 55               PUSH EBP
0xa24ea1 8bec             MOV EBP, ESP
0xa24ea3 83e4f8           AND ESP, -0x8
0xa24ea6 81ec1c030000     SUB ESP, 0x31c
0xa24eac 53               PUSH EBX
0xa24ead 8b5d08           MOV EBX, [EBP+0x8]
0xa24eb0 56               PUSH ESI
0xa24eb1 57               PUSH EDI
0xa24eb2 85db             TEST EBX, EBX
0xa24eb4 0f               DB 0xf
0xa24eb5 8406             TEST [ESI], AL
0xa24eb7 01               DB 0x1

************************************************************************
Hook mode: Usermode
Hook type: Inline/Trampoline
Process: 688 (lsass.exe)
Victim module: WS2_32.dll (0x71ab0000 - 0x71ac7000)
Function: WS2_32.dll!WSASend at 0x71ab6233
Hook address: 0xa2112c
Hooking module: <unknown>

Disassembly(0):
0x71ab6233 e9f4aef68e       JMP 0xa2112c
0x71ab6238 51               PUSH ECX
0x71ab6239 51               PUSH ECX
0x71ab623a 813d2840ac714894ab71 CMP DWORD [0x71ac4028], 0x71ab9448
0x71ab6244 56               PUSH ESI
0x71ab6245 0f847f540000     JZ 0x71abb6ca

Disassembly(1):
0xa2112c 55               PUSH EBP
0xa2112d 8bec             MOV EBP, ESP
0xa2112f 837d1000         CMP DWORD [EBP+0x10], 0x0
0xa21133 56               PUSH ESI
0xa21134 8b750c           MOV ESI, [EBP+0xc]
0xa21137 7615             JBE 0xa2114e
0xa21139 57               PUSH EDI
0xa2113a 8b7d10           MOV EDI, [EBP+0x10]
0xa2113d ff36             PUSH DWORD [ESI]
0xa2113f 8b4604           MOV EAX, [ESI+0x4]
0xa21142 ff               DB 0xff
0xa21143 75               DB 0x75

************************************************************************
Hook mode: Usermode
Hook type: Inline/Trampoline
Process: 688 (lsass.exe)
Victim module: WS2_32.dll (0x71ab0000 - 0x71ac7000)
Function: WS2_32.dll!closesocket at 0x71ab9639
Hook address: 0xa210db
Hooking module: <unknown>

Disassembly(0):
0x71ab9639 e99d7af68e       JMP 0xa210db
0x71ab963e 51               PUSH ECX
0x71ab963f 813d2840ac714894ab71 CMP DWORD [0x71ac4028], 0x71ab9448
0x71ab9649 56               PUSH ESI
0x71ab964a 0f84aef3ffff     JZ 0x71ab89fe
0x71ab9650 e8               DB 0xe8

Disassembly(1):
0xa210db 56               PUSH ESI
0xa210dc bef426a300       MOV ESI, 0xa326f4
0xa210e1 56               PUSH ESI
0xa210e2 ff157412a100     CALL DWORD [0xa11274]
0xa210e8 ff742408         PUSH DWORD [ESP+0x8]
0xa210ec e859fcffff       CALL 0xa20d4a
0xa210f1 85c0             TEST EAX, EAX

************************************************************************
Hook mode: Usermode
Hook type: Inline/Trampoline
Process: 688 (lsass.exe)
Victim module: WS2_32.dll (0x71ab0000 - 0x71ac7000)
Function: WS2_32.dll!send at 0x71ab428a
Hook address: 0xa2110f
Hooking module: <unknown>

Disassembly(0):
0x71ab428a e980cef68e       JMP 0xa2110f
0x71ab428f 83ec10           SUB ESP, 0x10
0x71ab4292 56               PUSH ESI
0x71ab4293 57               PUSH EDI
0x71ab4294 33ff             XOR EDI, EDI
0x71ab4296 813d2840ac714894ab71 CMP DWORD [0x71ac4028], 0x71ab9448
0x71ab42a0 0f               DB 0xf
0x71ab42a1 84               DB 0x84

Disassembly(1):
0xa2110f 55               PUSH EBP
0xa21110 8bec             MOV EBP, ESP
0xa21112 ff7510           PUSH DWORD [EBP+0x10]
0xa21115 8b450c           MOV EAX, [EBP+0xc]
0xa21118 ff7508           PUSH DWORD [EBP+0x8]
0xa2111b e838fdffff       CALL 0xa20e58
0xa21120 e8132affff       CALL 0xa13b38
0xa21125 5d               POP EBP
0xa21126 ff               DB 0xff

************************************************************************
Hook mode: Usermode
Hook type: Inline/Trampoline
Process: 688 (lsass.exe)
Victim module: CRYPT32.dll (0x77a80000 - 0x77b14000)
Function: CRYPT32.dll!PFXImportCertStore at 0x77aef748
Hook address: 0xa13692
Hooking module: <unknown>

Disassembly(0):
0x77aef748 e9453ff288       JMP 0xa13692
0x77aef74d 83ec18           SUB ESP, 0x18
0x77aef750 53               PUSH EBX
0x77aef751 57               PUSH EDI
0x77aef752 33c0             XOR EAX, EAX
0x77aef754 8d7de8           LEA EDI, [EBP-0x18]
0x77aef757 33db             XOR EBX, EBX
0x77aef759 f74510dcefffef   TEST DWORD [EBP+0x10], 0xefffefdc

Disassembly(1):
0xa13692 55               PUSH EBP
0xa13693 8bec             MOV EBP, ESP
0xa13695 81ec80000000     SUB ESP, 0x80
0xa1369b 53               PUSH EBX
0xa1369c 56               PUSH ESI
0xa1369d e896040000       CALL 0xa13b38
0xa136a2 ff7510           PUSH DWORD [EBP+0x10]
0xa136a5 8b7508           MOV ESI, [EBP+0x8]
0xa136a8 ff               DB 0xff
0xa136a9 75               DB 0x75

************************************************************************
Hook mode: Usermode
Hook type: Inline/Trampoline
Process: 688 (lsass.exe)
Victim module: WININET.dll (0x771b0000 - 0x77256000)
Function: WININET.dll!HttpQueryInfoA at 0x771c8c6a
Hook address: 0xa27477
Hooking module: <unknown>

Disassembly(0):
0x771c8c6a e908e88589       JMP 0xa27477
0x771c8c6f 1c77             SBB AL, 0x77
0x771c8c71 e8fc89feff       CALL 0x771b1672
0x771c8c76 33db             XOR EBX, EBX
0x771c8c78 895ddc           MOV [EBP-0x24], EBX
0x771c8c7b 895de4           MOV [EBP-0x1c], EBX
0x771c8c7e 39               DB 0x39
0x771c8c7f 1d               DB 0x1d
0x771c8c80 50               PUSH EAX
0x771c8c81 98               CWDE

Disassembly(1):
0xa27477 55               PUSH EBP
0xa27478 8bec             MOV EBP, ESP
0xa2747a 56               PUSH ESI
0xa2747b 57               PUSH EDI
0xa2747c bf6c27a300       MOV EDI, 0xa3276c
0xa27481 57               PUSH EDI
0xa27482 ff157412a100     CALL DWORD [0xa11274]
0xa27488 8b7508           MOV ESI, [EBP+0x8]
0xa2748b e8               DB 0xe8
0xa2748c 67e5ff           IN EAX, 0xff

************************************************************************
Hook mode: Usermode
Hook type: Inline/Trampoline
Process: 688 (lsass.exe)
Victim module: WININET.dll (0x771b0000 - 0x77256000)
Function: WININET.dll!HttpSendRequestA at 0x771c76b8
Hook address: 0xa27366
Hooking module: <unknown>

Disassembly(0):
0x771c76b8 e9a9fc8589       JMP 0xa27366
0x771c76bd 6a13             PUSH 0x13
0x771c76bf 6a00             PUSH 0x0
0x771c76c1 ff7518           PUSH DWORD [EBP+0x18]
0x771c76c4 ff7514           PUSH DWORD [EBP+0x14]
0x771c76c7 ff7510           PUSH DWORD [EBP+0x10]
0x771c76ca ff750c           PUSH DWORD [EBP+0xc]
0x771c76cd ff7508           PUSH DWORD [EBP+0x8]

Disassembly(1):
0xa27366 55               PUSH EBP
0xa27367 8bec             MOV EBP, ESP
0xa27369 e8cac7feff       CALL 0xa13b38
0xa2736e ff7510           PUSH DWORD [EBP+0x10]
0xa27371 8b4518           MOV EAX, [EBP+0x18]
0xa27374 ff750c           PUSH DWORD [EBP+0xc]
0xa27377 8b4d14           MOV ECX, [EBP+0x14]
0xa2737a ff7508           PUSH DWORD [EBP+0x8]
0xa2737d 6a               DB 0x6a

************************************************************************
Hook mode: Usermode
Hook type: Inline/Trampoline
Process: 688 (lsass.exe)
Victim module: WININET.dll (0x771b0000 - 0x77256000)
Function: WININET.dll!HttpSendRequestExA at 0x7721190d
Hook address: 0xa273ac
Hooking module: <unknown>

Disassembly(0):
0x7721190d e99a5a8189       JMP 0xa273ac
0x77211912 53               PUSH EBX
0x77211913 56               PUSH ESI
0x77211914 57               PUSH EDI
0x77211915 33db             XOR EBX, EBX
0x77211917 33c0             XOR EAX, EAX
0x77211919 33c9             XOR ECX, ECX
0x7721191b 33d2             XOR EDX, EDX
0x7721191d 33ff             XOR EDI, EDI
0x7721191f 395d10           CMP [EBP+0x10], EBX
0x77211922 7539             JNZ 0x7721195d
0x77211924 8b               DB 0x8b

Disassembly(1):
0xa273ac 55               PUSH EBP
0xa273ad 8bec             MOV EBP, ESP
0xa273af 53               PUSH EBX
0xa273b0 e883c7feff       CALL 0xa13b38
0xa273b5 ff7518           PUSH DWORD [EBP+0x18]
0xa273b8 8b450c           MOV EAX, [EBP+0xc]
0xa273bb ff7514           PUSH DWORD [EBP+0x14]
0xa273be 8b5d08           MOV EBX, [EBP+0x8]
0xa273c1 ff7510           PUSH DWORD [EBP+0x10]

************************************************************************
Hook mode: Usermode
Hook type: Inline/Trampoline
Process: 688 (lsass.exe)
Victim module: WININET.dll (0x771b0000 - 0x77256000)
Function: WININET.dll!HttpSendRequestExW at 0x771d53eb
Hook address: 0xa27388
Hooking module: <unknown>

Disassembly(0):
0x771d53eb e9981f8589       JMP 0xa27388
0x771d53f0 83ec14           SUB ESP, 0x14
0x771d53f3 53               PUSH EBX
0x771d53f4 56               PUSH ESI
0x771d53f5 33c0             XOR EAX, EAX
0x771d53f7 57               PUSH EDI
0x771d53f8 33d2             XOR EDX, EDX
0x771d53fa 33db             XOR EBX, EBX
0x771d53fc 33ff             XOR EDI, EDI
0x771d53fe 33c9             XOR ECX, ECX
0x771d5400 395508           CMP [EBP+0x8], EDX

Disassembly(1):
0xa27388 55               PUSH EBP
0xa27389 8bec             MOV EBP, ESP
0xa2738b 53               PUSH EBX
0xa2738c e8a7c7feff       CALL 0xa13b38
0xa27391 ff7518           PUSH DWORD [EBP+0x18]
0xa27394 8b450c           MOV EAX, [EBP+0xc]
0xa27397 ff7514           PUSH DWORD [EBP+0x14]
0xa2739a 8b5d08           MOV EBX, [EBP+0x8]
0xa2739d ff7510           PUSH DWORD [EBP+0x10]

************************************************************************
Hook mode: Usermode
Hook type: Inline/Trampoline
Process: 688 (lsass.exe)
Victim module: WININET.dll (0x771b0000 - 0x77256000)
Function: WININET.dll!HttpSendRequestW at 0x77211808
Hook address: 0xa27344
Hooking module: <unknown>

Disassembly(0):
0x77211808 e9375b8189       JMP 0xa27344
0x7721180d 83ec14           SUB ESP, 0x14
0x77211810 53               PUSH EBX
0x77211811 33db             XOR EBX, EBX
0x77211813 56               PUSH ESI
0x77211814 33f6             XOR ESI, ESI
0x77211816 33c0             XOR EAX, EAX
0x77211818 395d08           CMP [EBP+0x8], EBX
0x7721181b 57               PUSH EDI
0x7721181c 895df8           MOV [EBP-0x8], EBX
0x7721181f 89               DB 0x89

Disassembly(1):
0xa27344 55               PUSH EBP
0xa27345 8bec             MOV EBP, ESP
0xa27347 e8ecc7feff       CALL 0xa13b38
0xa2734c ff7510           PUSH DWORD [EBP+0x10]
0xa2734f 8b4518           MOV EAX, [EBP+0x18]
0xa27352 ff750c           PUSH DWORD [EBP+0xc]
0xa27355 8b4d14           MOV ECX, [EBP+0x14]
0xa27358 ff7508           PUSH DWORD [EBP+0x8]
0xa2735b 6a               DB 0x6a

************************************************************************
Hook mode: Usermode
Hook type: Inline/Trampoline
Process: 688 (lsass.exe)
Victim module: WININET.dll (0x771b0000 - 0x77256000)
Function: WININET.dll!InternetCloseHandle at 0x771c61dc
Hook address: 0xa27438
Hooking module: <unknown>

Disassembly(0):
0x771c61dc e957128689       JMP 0xa27438
0x771c61e1 51               PUSH ECX
0x771c61e2 51               PUSH ECX
0x771c61e3 53               PUSH EBX
0x771c61e4 56               PUSH ESI
0x771c61e5 33db             XOR EBX, EBX
0x771c61e7 33f6             XOR ESI, ESI
0x771c61e9 f60544a3237701   TEST BYTE [0x7723a344], 0x1
0x771c61f0 895dfc           MOV [EBP-0x4], EBX
0x771c61f3 0f               DB 0xf

Disassembly(1):
0xa27438 53               PUSH EBX
0xa27439 56               PUSH ESI
0xa2743a 57               PUSH EDI
0xa2743b e8f8c6feff       CALL 0xa13b38
0xa27440 8b742410         MOV ESI, [ESP+0x10]
0xa27444 56               PUSH ESI
0xa27445 ff153c14a100     CALL DWORD [0xa1143c]
0xa2744b bf6c27a300       MOV EDI, 0xa3276c

************************************************************************
Hook mode: Usermode
Hook type: Inline/Trampoline
Process: 688 (lsass.exe)
Victim module: WININET.dll (0x771b0000 - 0x77256000)
Function: WININET.dll!InternetQueryDataAvailable at 0x771d325f
Hook address: 0xa27415
Hooking module: <unknown>

Disassembly(0):
0x771d325f e9b1418589       JMP 0xa27415
0x771d3264 83ec10           SUB ESP, 0x10
0x771d3267 53               PUSH EBX
0x771d3268 33db             XOR EBX, EBX
0x771d326a 391d50982377     CMP [0x77239850], EBX
0x771d3270 56               PUSH ESI
0x771d3271 57               PUSH EDI
0x771d3272 895dfc           MOV [EBP-0x4], EBX
0x771d3275 c7               DB 0xc7
0x771d3276 45               INC EBP

Disassembly(1):
0xa27415 e81ec7feff       CALL 0xa13b38
0xa2741a ff742410         PUSH DWORD [ESP+0x10]
0xa2741e ff742410         PUSH DWORD [ESP+0x10]
0xa27422 ff742410         PUSH DWORD [ESP+0x10]
0xa27426 6a00             PUSH 0x0
0xa27428 6a00             PUSH 0x0
0xa2742a ff               DB 0xff
0xa2742b 7424             JZ 0xa27451

************************************************************************
Hook mode: Usermode
Hook type: Inline/Trampoline
Process: 688 (lsass.exe)
Victim module: WININET.dll (0x771b0000 - 0x77256000)
Function: WININET.dll!InternetReadFile at 0x771c9555
Hook address: 0xa273d0
Hooking module: <unknown>

Disassembly(0):
0x771c9555 e976de8589       JMP 0xa273d0
0x771c955a 83ec24           SUB ESP, 0x24
0x771c955d 53               PUSH EBX
0x771c955e 33db             XOR EBX, EBX
0x771c9560 391d50982377     CMP [0x77239850], EBX
0x771c9566 57               PUSH EDI
0x771c9567 895df4           MOV [EBP-0xc], EBX
0x771c956a 895df8           MOV [EBP-0x8], EBX

Disassembly(1):
0xa273d0 e863c7feff       CALL 0xa13b38
0xa273d5 33c0             XOR EAX, EAX
0xa273d7 50               PUSH EAX
0xa273d8 50               PUSH EAX
0xa273d9 ff742418         PUSH DWORD [ESP+0x18]
0xa273dd ff742418         PUSH DWORD [ESP+0x18]
0xa273e1 ff742418         PUSH DWORD [ESP+0x18]
0xa273e5 ff               DB 0xff
0xa273e6 7424             JZ 0xa2740c

************************************************************************
Hook mode: Usermode
Hook type: Inline/Trampoline
Process: 688 (lsass.exe)
Victim module: WININET.dll (0x771b0000 - 0x77256000)
Function: WININET.dll!InternetReadFileExA at 0x771f7e9a
Hook address: 0xa273f2
Hooking module: <unknown>

Disassembly(0):
0x771f7e9a e953f58289       JMP 0xa273f2
0x771f7e9f 83ec20           SUB ESP, 0x20
0x771f7ea2 53               PUSH EBX
0x771f7ea3 56               PUSH ESI
0x771f7ea4 33c0             XOR EAX, EAX
0x771f7ea6 57               PUSH EDI
0x771f7ea7 33ff             XOR EDI, EDI
0x771f7ea9 40               INC EAX
0x771f7eaa 393d50982377     CMP [0x77239850], EDI
0x771f7eb0 89               DB 0x89
0x771f7eb1 7d               DB 0x7d

Disassembly(1):
0xa273f2 e841c7feff       CALL 0xa13b38
0xa273f7 ff742410         PUSH DWORD [ESP+0x10]
0xa273fb ff742410         PUSH DWORD [ESP+0x10]
0xa273ff 6a00             PUSH 0x0
0xa27401 6a00             PUSH 0x0
0xa27403 ff742418         PUSH DWORD [ESP+0x18]
0xa27407 ff               DB 0xff
0xa27408 7424             JZ 0xa2742e

************************************************************************
Hook mode: Usermode
Hook type: Inline/Trampoline
Process: 844 (vmacthlp.exe)
Victim module: ntdll.dll (0x7c900000 - 0x7c9b0000)
Function: ntdll.dll!NtCreateThread at 0x7c90d7d2
Hook address: 0x643b47
Hooking module: <unknown>

Disassembly(0):
0x7c90d7d2 e97063d383       JMP 0x643b47
0x7c90d7d7 ba0003fe7f       MOV EDX, 0x7ffe0300
0x7c90d7dc ff12             CALL DWORD [EDX]
0x7c90d7de c22000           RET 0x20
0x7c90d7e1 90               NOP
0x7c90d7e2 90               NOP
0x7c90d7e3 90               NOP
0x7c90d7e4 90               NOP
0x7c90d7e5 90               NOP
0x7c90d7e6 90               NOP
0x7c90d7e7 b8               DB 0xb8
0x7c90d7e8 36               DB 0x36
0x7c90d7e9 00               DB 0x0

Disassembly(1):
0x643b47 55               PUSH EBP
0x643b48 8bec             MOV EBP, ESP
0x643b4a 83ec18           SUB ESP, 0x18
0x643b4d 53               PUSH EBX
0x643b4e 56               PUSH ESI
0x643b4f 57               PUSH EDI
0x643b50 8b7d14           MOV EDI, [EBP+0x14]
0x643b53 8d4514           LEA EAX, [EBP+0x14]
0x643b56 50               PUSH EAX
0x643b57 6a18             PUSH 0x18
0x643b59 8d45e8           LEA EAX, [EBP-0x18]
0x643b5c 50               PUSH EAX
0x643b5d 33f6             XOR ESI, ESI

************************************************************************
Hook mode: Usermode
Hook type: Inline/Trampoline
Process: 844 (vmacthlp.exe)
Victim module: ntdll.dll (0x7c900000 - 0x7c9b0000)
Function: ntdll.dll!NtQueryDirectoryFile at 0x7c90df5e
Hook address: 0x643ca5
Hooking module: <unknown>

Disassembly(0):
0x7c90df5e e9425dd383       JMP 0x643ca5
0x7c90df63 ba0003fe7f       MOV EDX, 0x7ffe0300
0x7c90df68 ff12             CALL DWORD [EDX]
0x7c90df6a c22c00           RET 0x2c
0x7c90df6d 90               NOP
0x7c90df6e 90               NOP
0x7c90df6f 90               NOP
0x7c90df70 90               NOP
0x7c90df71 90               NOP
0x7c90df72 90               NOP
0x7c90df73 b8               DB 0xb8
0x7c90df74 92               XCHG EDX, EAX
0x7c90df75 00               DB 0x0

Disassembly(1):
0x643ca5 55               PUSH EBP
0x643ca6 8bec             MOV EBP, ESP
0x643ca8 e88bfeffff       CALL 0x643b38
0x643cad ff7530           PUSH DWORD [EBP+0x30]
0x643cb0 ff752c           PUSH DWORD [EBP+0x2c]
0x643cb3 ff7528           PUSH DWORD [EBP+0x28]
0x643cb6 ff7524           PUSH DWORD [EBP+0x24]
0x643cb9 ff7520           PUSH DWORD [EBP+0x20]
0x643cbc ff               DB 0xff

************************************************************************
Hook mode: Usermode
Hook type: Inline/Trampoline
Process: 844 (vmacthlp.exe)
Victim module: ntdll.dll (0x7c900000 - 0x7c9b0000)
Function: ntdll.dll!ZwCreateThread at 0x7c90d7d2
Hook address: 0x643b47
Hooking module: <unknown>

Disassembly(0):
0x7c90d7d2 e97063d383       JMP 0x643b47
0x7c90d7d7 ba0003fe7f       MOV EDX, 0x7ffe0300
0x7c90d7dc ff12             CALL DWORD [EDX]
0x7c90d7de c22000           RET 0x20
0x7c90d7e1 90               NOP
0x7c90d7e2 90               NOP
0x7c90d7e3 90               NOP
0x7c90d7e4 90               NOP
0x7c90d7e5 90               NOP
0x7c90d7e6 90               NOP
0x7c90d7e7 b8               DB 0xb8
0x7c90d7e8 36               DB 0x36
0x7c90d7e9 00               DB 0x0

Disassembly(1):
0x643b47 55               PUSH EBP
0x643b48 8bec             MOV EBP, ESP
0x643b4a 83ec18           SUB ESP, 0x18
0x643b4d 53               PUSH EBX
0x643b4e 56               PUSH ESI
0x643b4f 57               PUSH EDI
0x643b50 8b7d14           MOV EDI, [EBP+0x14]
0x643b53 8d4514           LEA EAX, [EBP+0x14]
0x643b56 50               PUSH EAX
0x643b57 6a18             PUSH 0x18
0x643b59 8d45e8           LEA EAX, [EBP-0x18]
0x643b5c 50               PUSH EAX
0x643b5d 33f6             XOR ESI, ESI

************************************************************************
Hook mode: Usermode
Hook type: Inline/Trampoline
Process: 844 (vmacthlp.exe)
Victim module: ntdll.dll (0x7c900000 - 0x7c9b0000)
Function: ntdll.dll!ZwQueryDirectoryFile at 0x7c90df5e
Hook address: 0x643ca5
Hooking module: <unknown>

Disassembly(0):
0x7c90df5e e9425dd383       JMP 0x643ca5
0x7c90df63 ba0003fe7f       MOV EDX, 0x7ffe0300
0x7c90df68 ff12             CALL DWORD [EDX]
0x7c90df6a c22c00           RET 0x2c
0x7c90df6d 90               NOP
0x7c90df6e 90               NOP
0x7c90df6f 90               NOP
0x7c90df70 90               NOP
0x7c90df71 90               NOP
0x7c90df72 90               NOP
0x7c90df73 b8               DB 0xb8
0x7c90df74 92               XCHG EDX, EAX
0x7c90df75 00               DB 0x0

Disassembly(1):
0x643ca5 55               PUSH EBP
0x643ca6 8bec             MOV EBP, ESP
0x643ca8 e88bfeffff       CALL 0x643b38
0x643cad ff7530           PUSH DWORD [EBP+0x30]
0x643cb0 ff752c           PUSH DWORD [EBP+0x2c]
0x643cb3 ff7528           PUSH DWORD [EBP+0x28]
0x643cb6 ff7524           PUSH DWORD [EBP+0x24]
0x643cb9 ff7520           PUSH DWORD [EBP+0x20]
0x643cbc ff               DB 0xff

************************************************************************
Hook mode: Usermode
Hook type: Inline/Trampoline
Process: 844 (vmacthlp.exe)
Victim module: USER32.dll (0x77d40000 - 0x77dd0000)
Function: USER32.dll!BeginPaint at 0x77d4b4b1
Hook address: 0x64fd3f
Hooking module: <unknown>

Disassembly(0):
0x77d4b4b1 e989489088       JMP 0x64fd3f
0x77d4b4b6 ba0003fe7f       MOV EDX, 0x7ffe0300
0x77d4b4bb ff12             CALL DWORD [EDX]
0x77d4b4bd c20800           RET 0x8
0x77d4b4c0 90               NOP
0x77d4b4c1 90               NOP
0x77d4b4c2 90               NOP
0x77d4b4c3 90               NOP
0x77d4b4c4 90               NOP
0x77d4b4c5 e9               DB 0xe9
0x77d4b4c6 d7               XLAT BYTE [EBX+AL]
0x77d4b4c7 48               DEC EAX
0x77d4b4c8 90               NOP

Disassembly(1):
0x64fd3f 833d84276600ff   CMP DWORD [0x662784], -0x1
0x64fd46 56               PUSH ESI
0x64fd47 8b74240c         MOV ESI, [ESP+0xc]
0x64fd4b 7540             JNZ 0x64fd8d
0x64fd4d 85f6             TEST ESI, ESI
0x64fd4f 743c             JZ 0x64fd8d
0x64fd51 ff1510116400     CALL DWORD [0x641110]

************************************************************************
Hook mode: Usermode
Hook type: Inline/Trampoline
Process: 844 (vmacthlp.exe)
Victim module: USER32.dll (0x77d40000 - 0x77dd0000)
Function: USER32.dll!DefWindowProcA at 0x77d4df6b
Hook address: 0x64fe0c
Hooking module: <unknown>

Disassembly(0):
0x77d4df6b e99c1e9088       JMP 0x64fe0c
0x77d4df70 d477             AAM 0x77
0x77d4df72 e819a6ffff       CALL 0x77d48590
0x77d4df77 e890a6ffff       CALL 0x77d4860c
0x77d4df7c 833d6c00da7700   CMP DWORD [0x77da006c], 0x0

Disassembly(1):
0x64fe0c 55               PUSH EBP
0x64fe0d 8bec             MOV EBP, ESP
0x64fe0f 833d84276600ff   CMP DWORD [0x662784], -0x1
0x64fe16 56               PUSH ESI
0x64fe17 8b750c           MOV ESI, [EBP+0xc]
0x64fe1a 7512             JNZ 0x64fe2e
0x64fe1c 3b3578266600     CMP ESI, [0x662678]
0x64fe22 750a             JNZ 0x64fe2e

************************************************************************
Hook mode: Usermode
Hook type: Inline/Trampoline
Process: 844 (vmacthlp.exe)
Victim module: USER32.dll (0x77d40000 - 0x77dd0000)
Function: USER32.dll!DefWindowProcW at 0x77d4b1e5
Hook address: 0x64fdd0
Hooking module: <unknown>

Disassembly(0):
0x77d4b1e5 e9e64b9088       JMP 0x64fdd0
0x77d4b1ea d477             AAM 0x77
0x77d4b1ec e89fd3ffff       CALL 0x77d48590
0x77d4b1f1 e816d4ffff       CALL 0x77d4860c
0x77d4b1f6 833d6c00da7700   CMP DWORD [0x77da006c], 0x0

Disassembly(1):
0x64fdd0 55               PUSH EBP
0x64fdd1 8bec             MOV EBP, ESP
0x64fdd3 833d84276600ff   CMP DWORD [0x662784], -0x1
0x64fdda 56               PUSH ESI
0x64fddb 8b750c           MOV ESI, [EBP+0xc]
0x64fdde 7512             JNZ 0x64fdf2
0x64fde0 3b3578266600     CMP ESI, [0x662678]
0x64fde6 750a             JNZ 0x64fdf2

************************************************************************
Hook mode: Usermode
Hook type: Inline/Trampoline
Process: 844 (vmacthlp.exe)
Victim module: USER32.dll (0x77d40000 - 0x77dd0000)
Function: USER32.dll!EndPaint at 0x77d4b4c5
Hook address: 0x64fda1
Hooking module: <unknown>

Disassembly(0):
0x77d4b4c5 e9d7489088       JMP 0x64fda1
0x77d4b4ca ba0003fe7f       MOV EDX, 0x7ffe0300
0x77d4b4cf ff12             CALL DWORD [EDX]
0x77d4b4d1 c20800           RET 0x8
0x77d4b4d4 90               NOP
0x77d4b4d5 90               NOP
0x77d4b4d6 90               NOP
0x77d4b4d7 90               NOP
0x77d4b4d8 90               NOP
0x77d4b4d9 8bff             MOV EDI, EDI
0x77d4b4db 55               PUSH EBP
0x77d4b4dc 8b               DB 0x8b

Disassembly(1):
0x64fda1 833d84276600ff   CMP DWORD [0x662784], -0x1
0x64fda8 751b             JNZ 0x64fdc5
0x64fdaa 837c240800       CMP DWORD [ESP+0x8], 0x0
0x64fdaf 7414             JZ 0x64fdc5
0x64fdb1 ff1510116400     CALL DWORD [0x641110]
0x64fdb7 39               DB 0x39
0x64fdb8 05               DB 0x5

************************************************************************
Hook mode: Usermode
Hook type: Inline/Trampoline
Process: 844 (vmacthlp.exe)
Victim module: USER32.dll (0x77d40000 - 0x77dd0000)
Function: USER32.dll!GetClipboardData at 0x77d6fcb2
Hook address: 0x654fd5
Hooking module: <unknown>

Disassembly(0):
0x77d6fcb2 e91e538e88       JMP 0x654fd5
0x77d6fcb7 83ec2c           SUB ESP, 0x2c
0x77d6fcba 56               PUSH ESI
0x77d6fcbb 57               PUSH EDI
0x77d6fcbc 8d45d4           LEA EAX, [EBP-0x2c]
0x77d6fcbf 50               PUSH EAX
0x77d6fcc0 ff7508           PUSH DWORD [EBP+0x8]
0x77d6fcc3 e8e8000000       CALL 0x77d6fdb0
0x77d6fcc8 8bf0             MOV ESI, EAX

Disassembly(1):
0x654fd5 55               PUSH EBP
0x654fd6 8bec             MOV EBP, ESP
0x654fd8 53               PUSH EBX
0x654fd9 56               PUSH ESI
0x654fda e859ebfeff       CALL 0x643b38
0x654fdf 8b7508           MOV ESI, [EBP+0x8]
0x654fe2 56               PUSH ESI
0x654fe3 ff1560136400     CALL DWORD [0x641360]
0x654fe9 8bd8             MOV EBX, EAX
0x654feb 85db             TEST EBX, EBX

************************************************************************
Hook mode: Usermode
Hook type: Inline/Trampoline
Process: 844 (vmacthlp.exe)
Victim module: USER32.dll (0x77d40000 - 0x77dd0000)
Function: USER32.dll!TranslateMessage at 0x77d48bce
Hook address: 0x654ea0
Hooking module: <unknown>

Disassembly(0):
0x77d48bce e9cdc29088       JMP 0x654ea0
0x77d48bd3 56               PUSH ESI
0x77d48bd4 8b7508           MOV ESI, [EBP+0x8]
0x77d48bd7 66817e08e500     CMP WORD [ESI+0x8], 0xe5
0x77d48bdd 0f84a77e0200     JZ 0x77d70a8a
0x77d48be3 6a00             PUSH 0x0
0x77d48be5 56               PUSH ESI

Disassembly(1):
0x654ea0 55               PUSH EBP
0x654ea1 8bec             MOV EBP, ESP
0x654ea3 83e4f8           AND ESP, -0x8
0x654ea6 81ec1c030000     SUB ESP, 0x31c
0x654eac 53               PUSH EBX
0x654ead 8b5d08           MOV EBX, [EBP+0x8]
0x654eb0 56               PUSH ESI
0x654eb1 57               PUSH EDI
0x654eb2 85db             TEST EBX, EBX
0x654eb4 0f               DB 0xf
0x654eb5 8406             TEST [ESI], AL
0x654eb7 01               DB 0x1

************************************************************************
Hook mode: Usermode
Hook type: Inline/Trampoline
Process: 844 (vmacthlp.exe)
Victim module: WS2_32.dll (0x71ab0000 - 0x71ac7000)
Function: WS2_32.dll!WSASend at 0x71ab6233
Hook address: 0x65112c
Hooking module: <unknown>

Disassembly(0):
0x71ab6233 e9f4aeb98e       JMP 0x65112c
0x71ab6238 51               PUSH ECX
0x71ab6239 51               PUSH ECX
0x71ab623a 813d2840ac714894ab71 CMP DWORD [0x71ac4028], 0x71ab9448
0x71ab6244 56               PUSH ESI
0x71ab6245 0f847f540000     JZ 0x71abb6ca

Disassembly(1):
0x65112c 55               PUSH EBP
0x65112d 8bec             MOV EBP, ESP
0x65112f 837d1000         CMP DWORD [EBP+0x10], 0x0
0x651133 56               PUSH ESI
0x651134 8b750c           MOV ESI, [EBP+0xc]
0x651137 7615             JBE 0x65114e
0x651139 57               PUSH EDI
0x65113a 8b7d10           MOV EDI, [EBP+0x10]
0x65113d ff36             PUSH DWORD [ESI]
0x65113f 8b4604           MOV EAX, [ESI+0x4]
0x651142 ff               DB 0xff
0x651143 75               DB 0x75

************************************************************************
Hook mode: Usermode
Hook type: Inline/Trampoline
Process: 844 (vmacthlp.exe)
Victim module: WS2_32.dll (0x71ab0000 - 0x71ac7000)
Function: WS2_32.dll!closesocket at 0x71ab9639
Hook address: 0x6510db
Hooking module: <unknown>

Disassembly(0):
0x71ab9639 e99d7ab98e       JMP 0x6510db
0x71ab963e 51               PUSH ECX
0x71ab963f 813d2840ac714894ab71 CMP DWORD [0x71ac4028], 0x71ab9448
0x71ab9649 56               PUSH ESI
0x71ab964a 0f84aef3ffff     JZ 0x71ab89fe
0x71ab9650 e8               DB 0xe8

Disassembly(1):
0x6510db 56               PUSH ESI
0x6510dc bef4266600       MOV ESI, 0x6626f4
0x6510e1 56               PUSH ESI
0x6510e2 ff1574126400     CALL DWORD [0x641274]
0x6510e8 ff742408         PUSH DWORD [ESP+0x8]
0x6510ec e859fcffff       CALL 0x650d4a
0x6510f1 85c0             TEST EAX, EAX

************************************************************************
Hook mode: Usermode
Hook type: Inline/Trampoline
Process: 844 (vmacthlp.exe)
Victim module: WS2_32.dll (0x71ab0000 - 0x71ac7000)
Function: WS2_32.dll!send at 0x71ab428a
Hook address: 0x65110f
Hooking module: <unknown>

Disassembly(0):
0x71ab428a e980ceb98e       JMP 0x65110f
0x71ab428f 83ec10           SUB ESP, 0x10
0x71ab4292 56               PUSH ESI
0x71ab4293 57               PUSH EDI
0x71ab4294 33ff             XOR EDI, EDI
0x71ab4296 813d2840ac714894ab71 CMP DWORD [0x71ac4028], 0x71ab9448
0x71ab42a0 0f               DB 0xf
0x71ab42a1 84               DB 0x84

Disassembly(1):
0x65110f 55               PUSH EBP
0x651110 8bec             MOV EBP, ESP
0x651112 ff7510           PUSH DWORD [EBP+0x10]
0x651115 8b450c           MOV EAX, [EBP+0xc]
0x651118 ff7508           PUSH DWORD [EBP+0x8]
0x65111b e838fdffff       CALL 0x650e58
0x651120 e8132affff       CALL 0x643b38
0x651125 5d               POP EBP
0x651126 ff               DB 0xff

************************************************************************
Hook mode: Usermode
Hook type: Inline/Trampoline
Process: 844 (vmacthlp.exe)
Victim module: CRYPT32.dll (0x77a80000 - 0x77b14000)
Function: CRYPT32.dll!PFXImportCertStore at 0x77aef748
Hook address: 0x643692
Hooking module: <unknown>

Disassembly(0):
0x77aef748 e9453fb588       JMP 0x643692
0x77aef74d 83ec18           SUB ESP, 0x18
0x77aef750 53               PUSH EBX
0x77aef751 57               PUSH EDI
0x77aef752 33c0             XOR EAX, EAX
0x77aef754 8d7de8           LEA EDI, [EBP-0x18]
0x77aef757 33db             XOR EBX, EBX
0x77aef759 f74510dcefffef   TEST DWORD [EBP+0x10], 0xefffefdc

Disassembly(1):
0x643692 55               PUSH EBP
0x643693 8bec             MOV EBP, ESP
0x643695 81ec80000000     SUB ESP, 0x80
0x64369b 53               PUSH EBX
0x64369c 56               PUSH ESI
0x64369d e896040000       CALL 0x643b38
0x6436a2 ff7510           PUSH DWORD [EBP+0x10]
0x6436a5 8b7508           MOV ESI, [EBP+0x8]
0x6436a8 ff               DB 0xff
0x6436a9 75               DB 0x75

************************************************************************
Hook mode: Usermode
Hook type: Inline/Trampoline
Process: 844 (vmacthlp.exe)
Victim module: WININET.dll (0x771b0000 - 0x77256000)
Function: WININET.dll!HttpQueryInfoA at 0x771c8c6a
Hook address: 0x657477
Hooking module: <unknown>

Disassembly(0):
0x771c8c6a e908e84889       JMP 0x657477
0x771c8c6f 1c77             SBB AL, 0x77
0x771c8c71 e8fc89feff       CALL 0x771b1672
0x771c8c76 33db             XOR EBX, EBX
0x771c8c78 895ddc           MOV [EBP-0x24], EBX
0x771c8c7b 895de4           MOV [EBP-0x1c], EBX
0x771c8c7e 39               DB 0x39
0x771c8c7f 1d               DB 0x1d
0x771c8c80 50               PUSH EAX
0x771c8c81 98               CWDE

Disassembly(1):
0x657477 55               PUSH EBP
0x657478 8bec             MOV EBP, ESP
0x65747a 56               PUSH ESI
0x65747b 57               PUSH EDI
0x65747c bf6c276600       MOV EDI, 0x66276c
0x657481 57               PUSH EDI
0x657482 ff1574126400     CALL DWORD [0x641274]
0x657488 8b7508           MOV ESI, [EBP+0x8]
0x65748b e8               DB 0xe8
0x65748c 67e5ff           IN EAX, 0xff

************************************************************************
Hook mode: Usermode
Hook type: Inline/Trampoline
Process: 844 (vmacthlp.exe)
Victim module: WININET.dll (0x771b0000 - 0x77256000)
Function: WININET.dll!HttpSendRequestA at 0x771c76b8
Hook address: 0x657366
Hooking module: <unknown>

Disassembly(0):
0x771c76b8 e9a9fc4889       JMP 0x657366
0x771c76bd 6a13             PUSH 0x13
0x771c76bf 6a00             PUSH 0x0
0x771c76c1 ff7518           PUSH DWORD [EBP+0x18]
0x771c76c4 ff7514           PUSH DWORD [EBP+0x14]
0x771c76c7 ff7510           PUSH DWORD [EBP+0x10]
0x771c76ca ff750c           PUSH DWORD [EBP+0xc]
0x771c76cd ff7508           PUSH DWORD [EBP+0x8]

Disassembly(1):
0x657366 55               PUSH EBP
0x657367 8bec             MOV EBP, ESP
0x657369 e8cac7feff       CALL 0x643b38
0x65736e ff7510           PUSH DWORD [EBP+0x10]
0x657371 8b4518           MOV EAX, [EBP+0x18]
0x657374 ff750c           PUSH DWORD [EBP+0xc]
0x657377 8b4d14           MOV ECX, [EBP+0x14]
0x65737a ff7508           PUSH DWORD [EBP+0x8]
0x65737d 6a               DB 0x6a

************************************************************************
Hook mode: Usermode
Hook type: Inline/Trampoline
Process: 844 (vmacthlp.exe)
Victim module: WININET.dll (0x771b0000 - 0x77256000)
Function: WININET.dll!HttpSendRequestExA at 0x7721190d
Hook address: 0x6573ac
Hooking module: <unknown>

Disassembly(0):
0x7721190d e99a5a4489       JMP 0x6573ac
0x77211912 53               PUSH EBX
0x77211913 56               PUSH ESI
0x77211914 57               PUSH EDI
0x77211915 33db             XOR EBX, EBX
0x77211917 33c0             XOR EAX, EAX
0x77211919 33c9             XOR ECX, ECX
0x7721191b 33d2             XOR EDX, EDX
0x7721191d 33ff             XOR EDI, EDI
0x7721191f 395d10           CMP [EBP+0x10], EBX
0x77211922 7539             JNZ 0x7721195d
0x77211924 8b               DB 0x8b

Disassembly(1):
0x6573ac 55               PUSH EBP
0x6573ad 8bec             MOV EBP, ESP
0x6573af 53               PUSH EBX
0x6573b0 e883c7feff       CALL 0x643b38
0x6573b5 ff7518           PUSH DWORD [EBP+0x18]
0x6573b8 8b450c           MOV EAX, [EBP+0xc]
0x6573bb ff7514           PUSH DWORD [EBP+0x14]
0x6573be 8b5d08           MOV EBX, [EBP+0x8]
0x6573c1 ff7510           PUSH DWORD [EBP+0x10]

************************************************************************
Hook mode: Usermode
Hook type: Inline/Trampoline
Process: 844 (vmacthlp.exe)
Victim module: WININET.dll (0x771b0000 - 0x77256000)
Function: WININET.dll!HttpSendRequestExW at 0x771d53eb
Hook address: 0x657388
Hooking module: <unknown>

Disassembly(0):
0x771d53eb e9981f4889       JMP 0x657388
0x771d53f0 83ec14           SUB ESP, 0x14
0x771d53f3 53               PUSH EBX
0x771d53f4 56               PUSH ESI
0x771d53f5 33c0             XOR EAX, EAX
0x771d53f7 57               PUSH EDI
0x771d53f8 33d2             XOR EDX, EDX
0x771d53fa 33db             XOR EBX, EBX
0x771d53fc 33ff             XOR EDI, EDI
0x771d53fe 33c9             XOR ECX, ECX
0x771d5400 395508           CMP [EBP+0x8], EDX

Disassembly(1):
0x657388 55               PUSH EBP
0x657389 8bec             MOV EBP, ESP
0x65738b 53               PUSH EBX
0x65738c e8a7c7feff       CALL 0x643b38
0x657391 ff7518           PUSH DWORD [EBP+0x18]
0x657394 8b450c           MOV EAX, [EBP+0xc]
0x657397 ff7514           PUSH DWORD [EBP+0x14]
0x65739a 8b5d08           MOV EBX, [EBP+0x8]
0x65739d ff7510           PUSH DWORD [EBP+0x10]

************************************************************************
Hook mode: Usermode
Hook type: Inline/Trampoline
Process: 844 (vmacthlp.exe)
Victim module: WININET.dll (0x771b0000 - 0x77256000)
Function: WININET.dll!HttpSendRequestW at 0x77211808
Hook address: 0x657344
Hooking module: <unknown>

Disassembly(0):
0x77211808 e9375b4489       JMP 0x657344
0x7721180d 83ec14           SUB ESP, 0x14
0x77211810 53               PUSH EBX
0x77211811 33db             XOR EBX, EBX
0x77211813 56               PUSH ESI
0x77211814 33f6             XOR ESI, ESI
0x77211816 33c0             XOR EAX, EAX
0x77211818 395d08           CMP [EBP+0x8], EBX
0x7721181b 57               PUSH EDI
0x7721181c 895df8           MOV [EBP-0x8], EBX
0x7721181f 89               DB 0x89

Disassembly(1):
0x657344 55               PUSH EBP
0x657345 8bec             MOV EBP, ESP
0x657347 e8ecc7feff       CALL 0x643b38
0x65734c ff7510           PUSH DWORD [EBP+0x10]
0x65734f 8b4518           MOV EAX, [EBP+0x18]
0x657352 ff750c           PUSH DWORD [EBP+0xc]
0x657355 8b4d14           MOV ECX, [EBP+0x14]
0x657358 ff7508           PUSH DWORD [EBP+0x8]
0x65735b 6a               DB 0x6a

************************************************************************
Hook mode: Usermode
Hook type: Inline/Trampoline
Process: 844 (vmacthlp.exe)
Victim module: WININET.dll (0x771b0000 - 0x77256000)
Function: WININET.dll!InternetCloseHandle at 0x771c61dc
Hook address: 0x657438
Hooking module: <unknown>

Disassembly(0):
0x771c61dc e957124989       JMP 0x657438
0x771c61e1 51               PUSH ECX
0x771c61e2 51               PUSH ECX
0x771c61e3 53               PUSH EBX
0x771c61e4 56               PUSH ESI
0x771c61e5 33db             XOR EBX, EBX
0x771c61e7 33f6             XOR ESI, ESI
0x771c61e9 f60544a3237701   TEST BYTE [0x7723a344], 0x1
0x771c61f0 895dfc           MOV [EBP-0x4], EBX
0x771c61f3 0f               DB 0xf

Disassembly(1):
0x657438 53               PUSH EBX
0x657439 56               PUSH ESI
0x65743a 57               PUSH EDI
0x65743b e8f8c6feff       CALL 0x643b38
0x657440 8b742410         MOV ESI, [ESP+0x10]
0x657444 56               PUSH ESI
0x657445 ff153c146400     CALL DWORD [0x64143c]
0x65744b bf6c276600       MOV EDI, 0x66276c

************************************************************************
Hook mode: Usermode
Hook type: Inline/Trampoline
Process: 844 (vmacthlp.exe)
Victim module: WININET.dll (0x771b0000 - 0x77256000)
Function: WININET.dll!InternetQueryDataAvailable at 0x771d325f
Hook address: 0x657415
Hooking module: <unknown>

Disassembly(0):
0x771d325f e9b1414889       JMP 0x657415
0x771d3264 83ec10           SUB ESP, 0x10
0x771d3267 53               PUSH EBX
0x771d3268 33db             XOR EBX, EBX
0x771d326a 391d50982377     CMP [0x77239850], EBX
0x771d3270 56               PUSH ESI
0x771d3271 57               PUSH EDI
0x771d3272 895dfc           MOV [EBP-0x4], EBX
0x771d3275 c7               DB 0xc7
0x771d3276 45               INC EBP

Disassembly(1):
0x657415 e81ec7feff       CALL 0x643b38
0x65741a ff742410         PUSH DWORD [ESP+0x10]
0x65741e ff742410         PUSH DWORD [ESP+0x10]
0x657422 ff742410         PUSH DWORD [ESP+0x10]
0x657426 6a00             PUSH 0x0
0x657428 6a00             PUSH 0x0
0x65742a ff               DB 0xff
0x65742b 7424             JZ 0x657451

************************************************************************
Hook mode: Usermode
Hook type: Inline/Trampoline
Process: 844 (vmacthlp.exe)
Victim module: WININET.dll (0x771b0000 - 0x77256000)
Function: WININET.dll!InternetReadFile at 0x771c9555
Hook address: 0x6573d0
Hooking module: <unknown>

Disassembly(0):
0x771c9555 e976de4889       JMP 0x6573d0
0x771c955a 83ec24           SUB ESP, 0x24
0x771c955d 53               PUSH EBX
0x771c955e 33db             XOR EBX, EBX
0x771c9560 391d50982377     CMP [0x77239850], EBX
0x771c9566 57               PUSH EDI
0x771c9567 895df4           MOV [EBP-0xc], EBX
0x771c956a 895df8           MOV [EBP-0x8], EBX

Disassembly(1):
0x6573d0 e863c7feff       CALL 0x643b38
0x6573d5 33c0             XOR EAX, EAX
0x6573d7 50               PUSH EAX
0x6573d8 50               PUSH EAX
0x6573d9 ff742418         PUSH DWORD [ESP+0x18]
0x6573dd ff742418         PUSH DWORD [ESP+0x18]
0x6573e1 ff742418         PUSH DWORD [ESP+0x18]
0x6573e5 ff               DB 0xff
0x6573e6 7424             JZ 0x65740c

************************************************************************
Hook mode: Usermode
Hook type: Inline/Trampoline
Process: 844 (vmacthlp.exe)
Victim module: WININET.dll (0x771b0000 - 0x77256000)
Function: WININET.dll!InternetReadFileExA at 0x771f7e9a
Hook address: 0x6573f2
Hooking module: <unknown>

Disassembly(0):
0x771f7e9a e953f54589       JMP 0x6573f2
0x771f7e9f 83ec20           SUB ESP, 0x20
0x771f7ea2 53               PUSH EBX
0x771f7ea3 56               PUSH ESI
0x771f7ea4 33c0             XOR EAX, EAX
0x771f7ea6 57               PUSH EDI
0x771f7ea7 33ff             XOR EDI, EDI
0x771f7ea9 40               INC EAX
0x771f7eaa 393d50982377     CMP [0x77239850], EDI
0x771f7eb0 89               DB 0x89
0x771f7eb1 7d               DB 0x7d

Disassembly(1):
0x6573f2 e841c7feff       CALL 0x643b38
0x6573f7 ff742410         PUSH DWORD [ESP+0x10]
0x6573fb ff742410         PUSH DWORD [ESP+0x10]
0x6573ff 6a00             PUSH 0x0
0x657401 6a00             PUSH 0x0
0x657403 ff742418         PUSH DWORD [ESP+0x18]
0x657407 ff               DB 0xff
0x657408 7424             JZ 0x65742e

************************************************************************
Hook mode: Usermode
Hook type: Inline/Trampoline
Process: 856 (svchost.exe)
Victim module: ntdll.dll (0x7c900000 - 0x7c9b0000)
Function: ntdll.dll!NtCreateThread at 0x7c90d7d2
Hook address: 0xb73b47
Hooking module: <unknown>

Disassembly(0):
0x7c90d7d2 e970632684       JMP 0xb73b47
0x7c90d7d7 ba0003fe7f       MOV EDX, 0x7ffe0300
0x7c90d7dc ff12             CALL DWORD [EDX]
0x7c90d7de c22000           RET 0x20
0x7c90d7e1 90               NOP
0x7c90d7e2 90               NOP
0x7c90d7e3 90               NOP
0x7c90d7e4 90               NOP
0x7c90d7e5 90               NOP
0x7c90d7e6 90               NOP
0x7c90d7e7 b8               DB 0xb8
0x7c90d7e8 36               DB 0x36
0x7c90d7e9 00               DB 0x0

Disassembly(1):
0xb73b47 55               PUSH EBP
0xb73b48 8bec             MOV EBP, ESP
0xb73b4a 83ec18           SUB ESP, 0x18
0xb73b4d 53               PUSH EBX
0xb73b4e 56               PUSH ESI
0xb73b4f 57               PUSH EDI
0xb73b50 8b7d14           MOV EDI, [EBP+0x14]
0xb73b53 8d4514           LEA EAX, [EBP+0x14]
0xb73b56 50               PUSH EAX
0xb73b57 6a18             PUSH 0x18
0xb73b59 8d45e8           LEA EAX, [EBP-0x18]
0xb73b5c 50               PUSH EAX
0xb73b5d 33f6             XOR ESI, ESI

************************************************************************
Hook mode: Usermode
Hook type: Inline/Trampoline
Process: 856 (svchost.exe)
Victim module: ntdll.dll (0x7c900000 - 0x7c9b0000)
Function: ntdll.dll!ZwCreateThread at 0x7c90d7d2
Hook address: 0xb73b47
Hooking module: <unknown>

Disassembly(0):
0x7c90d7d2 e970632684       JMP 0xb73b47
0x7c90d7d7 ba0003fe7f       MOV EDX, 0x7ffe0300
0x7c90d7dc ff12             CALL DWORD [EDX]
0x7c90d7de c22000           RET 0x20
0x7c90d7e1 90               NOP
0x7c90d7e2 90               NOP
0x7c90d7e3 90               NOP
0x7c90d7e4 90               NOP
0x7c90d7e5 90               NOP
0x7c90d7e6 90               NOP
0x7c90d7e7 b8               DB 0xb8
0x7c90d7e8 36               DB 0x36
0x7c90d7e9 00               DB 0x0

Disassembly(1):
0xb73b47 55               PUSH EBP
0xb73b48 8bec             MOV EBP, ESP
0xb73b4a 83ec18           SUB ESP, 0x18
0xb73b4d 53               PUSH EBX
0xb73b4e 56               PUSH ESI
0xb73b4f 57               PUSH EDI
0xb73b50 8b7d14           MOV EDI, [EBP+0x14]
0xb73b53 8d4514           LEA EAX, [EBP+0x14]
0xb73b56 50               PUSH EAX
0xb73b57 6a18             PUSH 0x18
0xb73b59 8d45e8           LEA EAX, [EBP-0x18]
0xb73b5c 50               PUSH EAX
0xb73b5d 33f6             XOR ESI, ESI

************************************************************************
Hook mode: Usermode
Hook type: Inline/Trampoline
Process: 936 (svchost.exe)
Victim module: ntdll.dll (0x7c900000 - 0x7c9b0000)
Function: ntdll.dll!NtCreateThread at 0x7c90d7d2
Hook address: 0x8d3b47
Hooking module: <unknown>

Disassembly(0):
0x7c90d7d2 e97063fc83       JMP 0x8d3b47
0x7c90d7d7 ba0003fe7f       MOV EDX, 0x7ffe0300
0x7c90d7dc ff12             CALL DWORD [EDX]
0x7c90d7de c22000           RET 0x20
0x7c90d7e1 90               NOP
0x7c90d7e2 90               NOP
0x7c90d7e3 90               NOP
0x7c90d7e4 90               NOP
0x7c90d7e5 90               NOP
0x7c90d7e6 90               NOP
0x7c90d7e7 b8               DB 0xb8
0x7c90d7e8 36               DB 0x36
0x7c90d7e9 00               DB 0x0

Disassembly(1):
0x8d3b47 55               PUSH EBP
0x8d3b48 8bec             MOV EBP, ESP
0x8d3b4a 83ec18           SUB ESP, 0x18
0x8d3b4d 53               PUSH EBX
0x8d3b4e 56               PUSH ESI
0x8d3b4f 57               PUSH EDI
0x8d3b50 8b7d14           MOV EDI, [EBP+0x14]
0x8d3b53 8d4514           LEA EAX, [EBP+0x14]
0x8d3b56 50               PUSH EAX
0x8d3b57 6a18             PUSH 0x18
0x8d3b59 8d45e8           LEA EAX, [EBP-0x18]
0x8d3b5c 50               PUSH EAX
0x8d3b5d 33f6             XOR ESI, ESI

************************************************************************
Hook mode: Usermode
Hook type: Inline/Trampoline
Process: 936 (svchost.exe)
Victim module: ntdll.dll (0x7c900000 - 0x7c9b0000)
Function: ntdll.dll!NtQueryDirectoryFile at 0x7c90df5e
Hook address: 0x8d3ca5
Hooking module: <unknown>

Disassembly(0):
0x7c90df5e e9425dfc83       JMP 0x8d3ca5
0x7c90df63 ba0003fe7f       MOV EDX, 0x7ffe0300
0x7c90df68 ff12             CALL DWORD [EDX]
0x7c90df6a c22c00           RET 0x2c
0x7c90df6d 90               NOP
0x7c90df6e 90               NOP
0x7c90df6f 90               NOP
0x7c90df70 90               NOP
0x7c90df71 90               NOP
0x7c90df72 90               NOP
0x7c90df73 b8               DB 0xb8
0x7c90df74 92               XCHG EDX, EAX
0x7c90df75 00               DB 0x0

Disassembly(1):
0x8d3ca5 55               PUSH EBP
0x8d3ca6 8bec             MOV EBP, ESP
0x8d3ca8 e88bfeffff       CALL 0x8d3b38
0x8d3cad ff7530           PUSH DWORD [EBP+0x30]
0x8d3cb0 ff752c           PUSH DWORD [EBP+0x2c]
0x8d3cb3 ff7528           PUSH DWORD [EBP+0x28]
0x8d3cb6 ff7524           PUSH DWORD [EBP+0x24]
0x8d3cb9 ff7520           PUSH DWORD [EBP+0x20]
0x8d3cbc ff               DB 0xff

************************************************************************
Hook mode: Usermode
Hook type: Inline/Trampoline
Process: 936 (svchost.exe)
Victim module: ntdll.dll (0x7c900000 - 0x7c9b0000)
Function: ntdll.dll!ZwCreateThread at 0x7c90d7d2
Hook address: 0x8d3b47
Hooking module: <unknown>

Disassembly(0):
0x7c90d7d2 e97063fc83       JMP 0x8d3b47
0x7c90d7d7 ba0003fe7f       MOV EDX, 0x7ffe0300
0x7c90d7dc ff12             CALL DWORD [EDX]
0x7c90d7de c22000           RET 0x20
0x7c90d7e1 90               NOP
0x7c90d7e2 90               NOP
0x7c90d7e3 90               NOP
0x7c90d7e4 90               NOP
0x7c90d7e5 90               NOP
0x7c90d7e6 90               NOP
0x7c90d7e7 b8               DB 0xb8
0x7c90d7e8 36               DB 0x36
0x7c90d7e9 00               DB 0x0

Disassembly(1):
0x8d3b47 55               PUSH EBP
0x8d3b48 8bec             MOV EBP, ESP
0x8d3b4a 83ec18           SUB ESP, 0x18
0x8d3b4d 53               PUSH EBX
0x8d3b4e 56               PUSH ESI
0x8d3b4f 57               PUSH EDI
0x8d3b50 8b7d14           MOV EDI, [EBP+0x14]
0x8d3b53 8d4514           LEA EAX, [EBP+0x14]
0x8d3b56 50               PUSH EAX
0x8d3b57 6a18             PUSH 0x18
0x8d3b59 8d45e8           LEA EAX, [EBP-0x18]
0x8d3b5c 50               PUSH EAX
0x8d3b5d 33f6             XOR ESI, ESI

************************************************************************
Hook mode: Usermode
Hook type: Inline/Trampoline
Process: 936 (svchost.exe)
Victim module: ntdll.dll (0x7c900000 - 0x7c9b0000)
Function: ntdll.dll!ZwQueryDirectoryFile at 0x7c90df5e
Hook address: 0x8d3ca5
Hooking module: <unknown>

Disassembly(0):
0x7c90df5e e9425dfc83       JMP 0x8d3ca5
0x7c90df63 ba0003fe7f       MOV EDX, 0x7ffe0300
0x7c90df68 ff12             CALL DWORD [EDX]
0x7c90df6a c22c00           RET 0x2c
0x7c90df6d 90               NOP
0x7c90df6e 90               NOP
0x7c90df6f 90               NOP
0x7c90df70 90               NOP
0x7c90df71 90               NOP
0x7c90df72 90               NOP
0x7c90df73 b8               DB 0xb8
0x7c90df74 92               XCHG EDX, EAX
0x7c90df75 00               DB 0x0

Disassembly(1):
0x8d3ca5 55               PUSH EBP
0x8d3ca6 8bec             MOV EBP, ESP
0x8d3ca8 e88bfeffff       CALL 0x8d3b38
0x8d3cad ff7530           PUSH DWORD [EBP+0x30]
0x8d3cb0 ff752c           PUSH DWORD [EBP+0x2c]
0x8d3cb3 ff7528           PUSH DWORD [EBP+0x28]
0x8d3cb6 ff7524           PUSH DWORD [EBP+0x24]
0x8d3cb9 ff7520           PUSH DWORD [EBP+0x20]
0x8d3cbc ff               DB 0xff

************************************************************************
Hook mode: Usermode
Hook type: Inline/Trampoline
Process: 936 (svchost.exe)
Victim module: USER32.dll (0x77d40000 - 0x77dd0000)
Function: USER32.dll!BeginPaint at 0x77d4b4b1
Hook address: 0x8dfd3f
Hooking module: <unknown>

Disassembly(0):
0x77d4b4b1 e98948b988       JMP 0x8dfd3f
0x77d4b4b6 ba0003fe7f       MOV EDX, 0x7ffe0300
0x77d4b4bb ff12             CALL DWORD [EDX]
0x77d4b4bd c20800           RET 0x8
0x77d4b4c0 90               NOP
0x77d4b4c1 90               NOP
0x77d4b4c2 90               NOP
0x77d4b4c3 90               NOP
0x77d4b4c4 90               NOP
0x77d4b4c5 e9               DB 0xe9
0x77d4b4c6 d7               XLAT BYTE [EBX+AL]
0x77d4b4c7 48               DEC EAX
0x77d4b4c8 b9               DB 0xb9

Disassembly(1):
0x8dfd3f 833d84278f00ff   CMP DWORD [0x8f2784], -0x1
0x8dfd46 56               PUSH ESI
0x8dfd47 8b74240c         MOV ESI, [ESP+0xc]
0x8dfd4b 7540             JNZ 0x8dfd8d
0x8dfd4d 85f6             TEST ESI, ESI
0x8dfd4f 743c             JZ 0x8dfd8d
0x8dfd51 ff1510118d00     CALL DWORD [0x8d1110]

************************************************************************
Hook mode: Usermode
Hook type: Inline/Trampoline
Process: 936 (svchost.exe)
Victim module: USER32.dll (0x77d40000 - 0x77dd0000)
Function: USER32.dll!DefWindowProcA at 0x77d4df6b
Hook address: 0x8dfe0c
Hooking module: <unknown>

Disassembly(0):
0x77d4df6b e99c1eb988       JMP 0x8dfe0c
0x77d4df70 d477             AAM 0x77
0x77d4df72 e819a6ffff       CALL 0x77d48590
0x77d4df77 e890a6ffff       CALL 0x77d4860c
0x77d4df7c 833d6c00da7700   CMP DWORD [0x77da006c], 0x0

Disassembly(1):
0x8dfe0c 55               PUSH EBP
0x8dfe0d 8bec             MOV EBP, ESP
0x8dfe0f 833d84278f00ff   CMP DWORD [0x8f2784], -0x1
0x8dfe16 56               PUSH ESI
0x8dfe17 8b750c           MOV ESI, [EBP+0xc]
0x8dfe1a 7512             JNZ 0x8dfe2e
0x8dfe1c 3b3578268f00     CMP ESI, [0x8f2678]
0x8dfe22 750a             JNZ 0x8dfe2e

************************************************************************
Hook mode: Usermode
Hook type: Inline/Trampoline
Process: 936 (svchost.exe)
Victim module: USER32.dll (0x77d40000 - 0x77dd0000)
Function: USER32.dll!DefWindowProcW at 0x77d4b1e5
Hook address: 0x8dfdd0
Hooking module: <unknown>

Disassembly(0):
0x77d4b1e5 e9e64bb988       JMP 0x8dfdd0
0x77d4b1ea d477             AAM 0x77
0x77d4b1ec e89fd3ffff       CALL 0x77d48590
0x77d4b1f1 e816d4ffff       CALL 0x77d4860c
0x77d4b1f6 833d6c00da7700   CMP DWORD [0x77da006c], 0x0

Disassembly(1):
0x8dfdd0 55               PUSH EBP
0x8dfdd1 8bec             MOV EBP, ESP
0x8dfdd3 833d84278f00ff   CMP DWORD [0x8f2784], -0x1
0x8dfdda 56               PUSH ESI
0x8dfddb 8b750c           MOV ESI, [EBP+0xc]
0x8dfdde 7512             JNZ 0x8dfdf2
0x8dfde0 3b3578268f00     CMP ESI, [0x8f2678]
0x8dfde6 750a             JNZ 0x8dfdf2

************************************************************************
Hook mode: Usermode
Hook type: Inline/Trampoline
Process: 936 (svchost.exe)
Victim module: USER32.dll (0x77d40000 - 0x77dd0000)
Function: USER32.dll!EndPaint at 0x77d4b4c5
Hook address: 0x8dfda1
Hooking module: <unknown>

Disassembly(0):
0x77d4b4c5 e9d748b988       JMP 0x8dfda1
0x77d4b4ca ba0003fe7f       MOV EDX, 0x7ffe0300
0x77d4b4cf ff12             CALL DWORD [EDX]
0x77d4b4d1 c20800           RET 0x8
0x77d4b4d4 90               NOP
0x77d4b4d5 90               NOP
0x77d4b4d6 90               NOP
0x77d4b4d7 90               NOP
0x77d4b4d8 90               NOP
0x77d4b4d9 8bff             MOV EDI, EDI
0x77d4b4db 55               PUSH EBP
0x77d4b4dc 8b               DB 0x8b

Disassembly(1):
0x8dfda1 833d84278f00ff   CMP DWORD [0x8f2784], -0x1
0x8dfda8 751b             JNZ 0x8dfdc5
0x8dfdaa 837c240800       CMP DWORD [ESP+0x8], 0x0
0x8dfdaf 7414             JZ 0x8dfdc5
0x8dfdb1 ff1510118d00     CALL DWORD [0x8d1110]
0x8dfdb7 39               DB 0x39
0x8dfdb8 05               DB 0x5

************************************************************************
Hook mode: Usermode
Hook type: Inline/Trampoline
Process: 936 (svchost.exe)
Victim module: USER32.dll (0x77d40000 - 0x77dd0000)
Function: USER32.dll!GetClipboardData at 0x77d6fcb2
Hook address: 0x8e4fd5
Hooking module: <unknown>

Disassembly(0):
0x77d6fcb2 e91e53b788       JMP 0x8e4fd5
0x77d6fcb7 83ec2c           SUB ESP, 0x2c
0x77d6fcba 56               PUSH ESI
0x77d6fcbb 57               PUSH EDI
0x77d6fcbc 8d45d4           LEA EAX, [EBP-0x2c]
0x77d6fcbf 50               PUSH EAX
0x77d6fcc0 ff7508           PUSH DWORD [EBP+0x8]
0x77d6fcc3 e8e8000000       CALL 0x77d6fdb0
0x77d6fcc8 8bf0             MOV ESI, EAX

Disassembly(1):
0x8e4fd5 55               PUSH EBP
0x8e4fd6 8bec             MOV EBP, ESP
0x8e4fd8 53               PUSH EBX
0x8e4fd9 56               PUSH ESI
0x8e4fda e859ebfeff       CALL 0x8d3b38
0x8e4fdf 8b7508           MOV ESI, [EBP+0x8]
0x8e4fe2 56               PUSH ESI
0x8e4fe3 ff1560138d00     CALL DWORD [0x8d1360]
0x8e4fe9 8bd8             MOV EBX, EAX
0x8e4feb 85db             TEST EBX, EBX

************************************************************************
Hook mode: Usermode
Hook type: Inline/Trampoline
Process: 936 (svchost.exe)
Victim module: USER32.dll (0x77d40000 - 0x77dd0000)
Function: USER32.dll!TranslateMessage at 0x77d48bce
Hook address: 0x8e4ea0
Hooking module: <unknown>

Disassembly(0):
0x77d48bce e9cdc2b988       JMP 0x8e4ea0
0x77d48bd3 56               PUSH ESI
0x77d48bd4 8b7508           MOV ESI, [EBP+0x8]
0x77d48bd7 66817e08e500     CMP WORD [ESI+0x8], 0xe5
0x77d48bdd 0f84a77e0200     JZ 0x77d70a8a
0x77d48be3 6a00             PUSH 0x0
0x77d48be5 56               PUSH ESI

Disassembly(1):
0x8e4ea0 55               PUSH EBP
0x8e4ea1 8bec             MOV EBP, ESP
0x8e4ea3 83e4f8           AND ESP, -0x8
0x8e4ea6 81ec1c030000     SUB ESP, 0x31c
0x8e4eac 53               PUSH EBX
0x8e4ead 8b5d08           MOV EBX, [EBP+0x8]
0x8e4eb0 56               PUSH ESI
0x8e4eb1 57               PUSH EDI
0x8e4eb2 85db             TEST EBX, EBX
0x8e4eb4 0f               DB 0xf
0x8e4eb5 8406             TEST [ESI], AL
0x8e4eb7 01               DB 0x1

************************************************************************
Hook mode: Usermode
Hook type: Inline/Trampoline
Process: 936 (svchost.exe)
Victim module: WS2_32.dll (0x71ab0000 - 0x71ac7000)
Function: WS2_32.dll!WSASend at 0x71ab6233
Hook address: 0x8e112c
Hooking module: <unknown>

Disassembly(0):
0x71ab6233 e9f4aee28e       JMP 0x8e112c
0x71ab6238 51               PUSH ECX
0x71ab6239 51               PUSH ECX
0x71ab623a 813d2840ac714894ab71 CMP DWORD [0x71ac4028], 0x71ab9448
0x71ab6244 56               PUSH ESI
0x71ab6245 0f847f540000     JZ 0x71abb6ca

Disassembly(1):
0x8e112c 55               PUSH EBP
0x8e112d 8bec             MOV EBP, ESP
0x8e112f 837d1000         CMP DWORD [EBP+0x10], 0x0
0x8e1133 56               PUSH ESI
0x8e1134 8b750c           MOV ESI, [EBP+0xc]
0x8e1137 7615             JBE 0x8e114e
0x8e1139 57               PUSH EDI
0x8e113a 8b7d10           MOV EDI, [EBP+0x10]
0x8e113d ff36             PUSH DWORD [ESI]
0x8e113f 8b4604           MOV EAX, [ESI+0x4]
0x8e1142 ff               DB 0xff
0x8e1143 75               DB 0x75

************************************************************************
Hook mode: Usermode
Hook type: Inline/Trampoline
Process: 936 (svchost.exe)
Victim module: WS2_32.dll (0x71ab0000 - 0x71ac7000)
Function: WS2_32.dll!closesocket at 0x71ab9639
Hook address: 0x8e10db
Hooking module: <unknown>

Disassembly(0):
0x71ab9639 e99d7ae28e       JMP 0x8e10db
0x71ab963e 51               PUSH ECX
0x71ab963f 813d2840ac714894ab71 CMP DWORD [0x71ac4028], 0x71ab9448
0x71ab9649 56               PUSH ESI
0x71ab964a 0f84aef3ffff     JZ 0x71ab89fe
0x71ab9650 e8               DB 0xe8

Disassembly(1):
0x8e10db 56               PUSH ESI
0x8e10dc bef4268f00       MOV ESI, 0x8f26f4
0x8e10e1 56               PUSH ESI
0x8e10e2 ff1574128d00     CALL DWORD [0x8d1274]
0x8e10e8 ff742408         PUSH DWORD [ESP+0x8]
0x8e10ec e859fcffff       CALL 0x8e0d4a
0x8e10f1 85c0             TEST EAX, EAX

************************************************************************
Hook mode: Usermode
Hook type: Inline/Trampoline
Process: 936 (svchost.exe)
Victim module: WS2_32.dll (0x71ab0000 - 0x71ac7000)
Function: WS2_32.dll!send at 0x71ab428a
Hook address: 0x8e110f
Hooking module: <unknown>

Disassembly(0):
0x71ab428a e980cee28e       JMP 0x8e110f
0x71ab428f 83ec10           SUB ESP, 0x10
0x71ab4292 56               PUSH ESI
0x71ab4293 57               PUSH EDI
0x71ab4294 33ff             XOR EDI, EDI
0x71ab4296 813d2840ac714894ab71 CMP DWORD [0x71ac4028], 0x71ab9448
0x71ab42a0 0f               DB 0xf
0x71ab42a1 84               DB 0x84

Disassembly(1):
0x8e110f 55               PUSH EBP
0x8e1110 8bec             MOV EBP, ESP
0x8e1112 ff7510           PUSH DWORD [EBP+0x10]
0x8e1115 8b450c           MOV EAX, [EBP+0xc]
0x8e1118 ff7508           PUSH DWORD [EBP+0x8]
0x8e111b e838fdffff       CALL 0x8e0e58
0x8e1120 e8132affff       CALL 0x8d3b38
0x8e1125 5d               POP EBP
0x8e1126 ff               DB 0xff

************************************************************************
Hook mode: Usermode
Hook type: Inline/Trampoline
Process: 936 (svchost.exe)
Victim module: CRYPT32.dll (0x77a80000 - 0x77b14000)
Function: CRYPT32.dll!PFXImportCertStore at 0x77aef748
Hook address: 0x8d3692
Hooking module: <unknown>

Disassembly(0):
0x77aef748 e9453fde88       JMP 0x8d3692
0x77aef74d 83ec18           SUB ESP, 0x18
0x77aef750 53               PUSH EBX
0x77aef751 57               PUSH EDI
0x77aef752 33c0             XOR EAX, EAX
0x77aef754 8d7de8           LEA EDI, [EBP-0x18]
0x77aef757 33db             XOR EBX, EBX
0x77aef759 f74510dcefffef   TEST DWORD [EBP+0x10], 0xefffefdc

Disassembly(1):
0x8d3692 55               PUSH EBP
0x8d3693 8bec             MOV EBP, ESP
0x8d3695 81ec80000000     SUB ESP, 0x80
0x8d369b 53               PUSH EBX
0x8d369c 56               PUSH ESI
0x8d369d e896040000       CALL 0x8d3b38
0x8d36a2 ff7510           PUSH DWORD [EBP+0x10]
0x8d36a5 8b7508           MOV ESI, [EBP+0x8]
0x8d36a8 ff               DB 0xff
0x8d36a9 75               DB 0x75

************************************************************************
Hook mode: Usermode
Hook type: Inline/Trampoline
Process: 936 (svchost.exe)
Victim module: WININET.dll (0x771b0000 - 0x77256000)
Function: WININET.dll!HttpQueryInfoA at 0x771c8c6a
Hook address: 0x8e7477
Hooking module: <unknown>

Disassembly(0):
0x771c8c6a e908e87189       JMP 0x8e7477
0x771c8c6f 1c77             SBB AL, 0x77
0x771c8c71 e8fc89feff       CALL 0x771b1672
0x771c8c76 33db             XOR EBX, EBX
0x771c8c78 895ddc           MOV [EBP-0x24], EBX
0x771c8c7b 895de4           MOV [EBP-0x1c], EBX
0x771c8c7e 39               DB 0x39
0x771c8c7f 1d               DB 0x1d
0x771c8c80 50               PUSH EAX
0x771c8c81 98               CWDE

Disassembly(1):
0x8e7477 55               PUSH EBP
0x8e7478 8bec             MOV EBP, ESP
0x8e747a 56               PUSH ESI
0x8e747b 57               PUSH EDI
0x8e747c bf6c278f00       MOV EDI, 0x8f276c
0x8e7481 57               PUSH EDI
0x8e7482 ff1574128d00     CALL DWORD [0x8d1274]
0x8e7488 8b7508           MOV ESI, [EBP+0x8]
0x8e748b e8               DB 0xe8
0x8e748c 67e5ff           IN EAX, 0xff

************************************************************************
Hook mode: Usermode
Hook type: Inline/Trampoline
Process: 936 (svchost.exe)
Victim module: WININET.dll (0x771b0000 - 0x77256000)
Function: WININET.dll!HttpSendRequestA at 0x771c76b8
Hook address: 0x8e7366
Hooking module: <unknown>

Disassembly(0):
0x771c76b8 e9a9fc7189       JMP 0x8e7366
0x771c76bd 6a13             PUSH 0x13
0x771c76bf 6a00             PUSH 0x0
0x771c76c1 ff7518           PUSH DWORD [EBP+0x18]
0x771c76c4 ff7514           PUSH DWORD [EBP+0x14]
0x771c76c7 ff7510           PUSH DWORD [EBP+0x10]
0x771c76ca ff750c           PUSH DWORD [EBP+0xc]
0x771c76cd ff7508           PUSH DWORD [EBP+0x8]

Disassembly(1):
0x8e7366 55               PUSH EBP
0x8e7367 8bec             MOV EBP, ESP
0x8e7369 e8cac7feff       CALL 0x8d3b38
0x8e736e ff7510           PUSH DWORD [EBP+0x10]
0x8e7371 8b4518           MOV EAX, [EBP+0x18]
0x8e7374 ff750c           PUSH DWORD [EBP+0xc]
0x8e7377 8b4d14           MOV ECX, [EBP+0x14]
0x8e737a ff7508           PUSH DWORD [EBP+0x8]
0x8e737d 6a               DB 0x6a

************************************************************************
Hook mode: Usermode
Hook type: Inline/Trampoline
Process: 936 (svchost.exe)
Victim module: WININET.dll (0x771b0000 - 0x77256000)
Function: WININET.dll!HttpSendRequestExA at 0x7721190d
Hook address: 0x8e73ac
Hooking module: <unknown>

Disassembly(0):
0x7721190d e99a5a6d89       JMP 0x8e73ac
0x77211912 53               PUSH EBX
0x77211913 56               PUSH ESI
0x77211914 57               PUSH EDI
0x77211915 33db             XOR EBX, EBX
0x77211917 33c0             XOR EAX, EAX
0x77211919 33c9             XOR ECX, ECX
0x7721191b 33d2             XOR EDX, EDX
0x7721191d 33ff             XOR EDI, EDI
0x7721191f 395d10           CMP [EBP+0x10], EBX
0x77211922 7539             JNZ 0x7721195d
0x77211924 8b               DB 0x8b

Disassembly(1):
0x8e73ac 55               PUSH EBP
0x8e73ad 8bec             MOV EBP, ESP
0x8e73af 53               PUSH EBX
0x8e73b0 e883c7feff       CALL 0x8d3b38
0x8e73b5 ff7518           PUSH DWORD [EBP+0x18]
0x8e73b8 8b450c           MOV EAX, [EBP+0xc]
0x8e73bb ff7514           PUSH DWORD [EBP+0x14]
0x8e73be 8b5d08           MOV EBX, [EBP+0x8]
0x8e73c1 ff7510           PUSH DWORD [EBP+0x10]

************************************************************************
Hook mode: Usermode
Hook type: Inline/Trampoline
Process: 936 (svchost.exe)
Victim module: WININET.dll (0x771b0000 - 0x77256000)
Function: WININET.dll!HttpSendRequestExW at 0x771d53eb
Hook address: 0x8e7388
Hooking module: <unknown>

Disassembly(0):
0x771d53eb e9981f7189       JMP 0x8e7388
0x771d53f0 83ec14           SUB ESP, 0x14
0x771d53f3 53               PUSH EBX
0x771d53f4 56               PUSH ESI
0x771d53f5 33c0             XOR EAX, EAX
0x771d53f7 57               PUSH EDI
0x771d53f8 33d2             XOR EDX, EDX
0x771d53fa 33db             XOR EBX, EBX
0x771d53fc 33ff             XOR EDI, EDI
0x771d53fe 33c9             XOR ECX, ECX
0x771d5400 395508           CMP [EBP+0x8], EDX

Disassembly(1):
0x8e7388 55               PUSH EBP
0x8e7389 8bec             MOV EBP, ESP
0x8e738b 53               PUSH EBX
0x8e738c e8a7c7feff       CALL 0x8d3b38
0x8e7391 ff7518           PUSH DWORD [EBP+0x18]
0x8e7394 8b450c           MOV EAX, [EBP+0xc]
0x8e7397 ff7514           PUSH DWORD [EBP+0x14]
0x8e739a 8b5d08           MOV EBX, [EBP+0x8]
0x8e739d ff7510           PUSH DWORD [EBP+0x10]

************************************************************************
Hook mode: Usermode
Hook type: Inline/Trampoline
Process: 936 (svchost.exe)
Victim module: WININET.dll (0x771b0000 - 0x77256000)
Function: WININET.dll!HttpSendRequestW at 0x77211808
Hook address: 0x8e7344
Hooking module: <unknown>

Disassembly(0):
0x77211808 e9375b6d89       JMP 0x8e7344
0x7721180d 83ec14           SUB ESP, 0x14
0x77211810 53               PUSH EBX
0x77211811 33db             XOR EBX, EBX
0x77211813 56               PUSH ESI
0x77211814 33f6             XOR ESI, ESI
0x77211816 33c0             XOR EAX, EAX
0x77211818 395d08           CMP [EBP+0x8], EBX
0x7721181b 57               PUSH EDI
0x7721181c 895df8           MOV [EBP-0x8], EBX
0x7721181f 89               DB 0x89

Disassembly(1):
0x8e7344 55               PUSH EBP
0x8e7345 8bec             MOV EBP, ESP
0x8e7347 e8ecc7feff       CALL 0x8d3b38
0x8e734c ff7510           PUSH DWORD [EBP+0x10]
0x8e734f 8b4518           MOV EAX, [EBP+0x18]
0x8e7352 ff750c           PUSH DWORD [EBP+0xc]
0x8e7355 8b4d14           MOV ECX, [EBP+0x14]
0x8e7358 ff7508           PUSH DWORD [EBP+0x8]
0x8e735b 6a               DB 0x6a

************************************************************************
Hook mode: Usermode
Hook type: Inline/Trampoline
Process: 936 (svchost.exe)
Victim module: WININET.dll (0x771b0000 - 0x77256000)
Function: WININET.dll!InternetCloseHandle at 0x771c61dc
Hook address: 0x8e7438
Hooking module: <unknown>

Disassembly(0):
0x771c61dc e957127289       JMP 0x8e7438
0x771c61e1 51               PUSH ECX
0x771c61e2 51               PUSH ECX
0x771c61e3 53               PUSH EBX
0x771c61e4 56               PUSH ESI
0x771c61e5 33db             XOR EBX, EBX
0x771c61e7 33f6             XOR ESI, ESI
0x771c61e9 f60544a3237701   TEST BYTE [0x7723a344], 0x1
0x771c61f0 895dfc           MOV [EBP-0x4], EBX
0x771c61f3 0f               DB 0xf

Disassembly(1):
0x8e7438 53               PUSH EBX
0x8e7439 56               PUSH ESI
0x8e743a 57               PUSH EDI
0x8e743b e8f8c6feff       CALL 0x8d3b38
0x8e7440 8b742410         MOV ESI, [ESP+0x10]
0x8e7444 56               PUSH ESI
0x8e7445 ff153c148d00     CALL DWORD [0x8d143c]
0x8e744b bf6c278f00       MOV EDI, 0x8f276c

************************************************************************
Hook mode: Usermode
Hook type: Inline/Trampoline
Process: 936 (svchost.exe)
Victim module: WININET.dll (0x771b0000 - 0x77256000)
Function: WININET.dll!InternetQueryDataAvailable at 0x771d325f
Hook address: 0x8e7415
Hooking module: <unknown>

Disassembly(0):
0x771d325f e9b1417189       JMP 0x8e7415
0x771d3264 83ec10           SUB ESP, 0x10
0x771d3267 53               PUSH EBX
0x771d3268 33db             XOR EBX, EBX
0x771d326a 391d50982377     CMP [0x77239850], EBX
0x771d3270 56               PUSH ESI
0x771d3271 57               PUSH EDI
0x771d3272 895dfc           MOV [EBP-0x4], EBX
0x771d3275 c7               DB 0xc7
0x771d3276 45               INC EBP

Disassembly(1):
0x8e7415 e81ec7feff       CALL 0x8d3b38
0x8e741a ff742410         PUSH DWORD [ESP+0x10]
0x8e741e ff742410         PUSH DWORD [ESP+0x10]
0x8e7422 ff742410         PUSH DWORD [ESP+0x10]
0x8e7426 6a00             PUSH 0x0
0x8e7428 6a00             PUSH 0x0
0x8e742a ff               DB 0xff
0x8e742b 7424             JZ 0x8e7451

************************************************************************
Hook mode: Usermode
Hook type: Inline/Trampoline
Process: 936 (svchost.exe)
Victim module: WININET.dll (0x771b0000 - 0x77256000)
Function: WININET.dll!InternetReadFile at 0x771c9555
Hook address: 0x8e73d0
Hooking module: <unknown>

Disassembly(0):
0x771c9555 e976de7189       JMP 0x8e73d0
0x771c955a 83ec24           SUB ESP, 0x24
0x771c955d 53               PUSH EBX
0x771c955e 33db             XOR EBX, EBX
0x771c9560 391d50982377     CMP [0x77239850], EBX
0x771c9566 57               PUSH EDI
0x771c9567 895df4           MOV [EBP-0xc], EBX
0x771c956a 895df8           MOV [EBP-0x8], EBX

Disassembly(1):
0x8e73d0 e863c7feff       CALL 0x8d3b38
0x8e73d5 33c0             XOR EAX, EAX
0x8e73d7 50               PUSH EAX
0x8e73d8 50               PUSH EAX
0x8e73d9 ff742418         PUSH DWORD [ESP+0x18]
0x8e73dd ff742418         PUSH DWORD [ESP+0x18]
0x8e73e1 ff742418         PUSH DWORD [ESP+0x18]
0x8e73e5 ff               DB 0xff
0x8e73e6 7424             JZ 0x8e740c

************************************************************************
Hook mode: Usermode
Hook type: Inline/Trampoline
Process: 936 (svchost.exe)
Victim module: WININET.dll (0x771b0000 - 0x77256000)
Function: WININET.dll!InternetReadFileExA at 0x771f7e9a
Hook address: 0x8e73f2
Hooking module: <unknown>

Disassembly(0):
0x771f7e9a e953f56e89       JMP 0x8e73f2
0x771f7e9f 83ec20           SUB ESP, 0x20
0x771f7ea2 53               PUSH EBX
0x771f7ea3 56               PUSH ESI
0x771f7ea4 33c0             XOR EAX, EAX
0x771f7ea6 57               PUSH EDI
0x771f7ea7 33ff             XOR EDI, EDI
0x771f7ea9 40               INC EAX
0x771f7eaa 393d50982377     CMP [0x77239850], EDI
0x771f7eb0 89               DB 0x89
0x771f7eb1 7d               DB 0x7d

Disassembly(1):
0x8e73f2 e841c7feff       CALL 0x8d3b38
0x8e73f7 ff742410         PUSH DWORD [ESP+0x10]
0x8e73fb ff742410         PUSH DWORD [ESP+0x10]
0x8e73ff 6a00             PUSH 0x0
0x8e7401 6a00             PUSH 0x0
0x8e7403 ff742418         PUSH DWORD [ESP+0x18]
0x8e7407 ff               DB 0xff
0x8e7408 7424             JZ 0x8e742e

************************************************************************
Hook mode: Usermode
Hook type: Inline/Trampoline
Process: 1028 (svchost.exe)
Victim module: ntdll.dll (0x7c900000 - 0x7c9b0000)
Function: ntdll.dll!NtCreateThread at 0x7c90d7d2
Hook address: 0x2453b47
Hooking module: <unknown>

Disassembly(0):
0x7c90d7d2 e97063b485       JMP 0x2453b47
0x7c90d7d7 ba0003fe7f       MOV EDX, 0x7ffe0300
0x7c90d7dc ff12             CALL DWORD [EDX]
0x7c90d7de c22000           RET 0x20
0x7c90d7e1 90               NOP
0x7c90d7e2 90               NOP
0x7c90d7e3 90               NOP
0x7c90d7e4 90               NOP
0x7c90d7e5 90               NOP
0x7c90d7e6 90               NOP
0x7c90d7e7 b8               DB 0xb8
0x7c90d7e8 36               DB 0x36
0x7c90d7e9 00               DB 0x0

Disassembly(1):
0x2453b47 55               PUSH EBP
0x2453b48 8bec             MOV EBP, ESP
0x2453b4a 83ec18           SUB ESP, 0x18
0x2453b4d 53               PUSH EBX
0x2453b4e 56               PUSH ESI
0x2453b4f 57               PUSH EDI
0x2453b50 8b7d14           MOV EDI, [EBP+0x14]
0x2453b53 8d4514           LEA EAX, [EBP+0x14]
0x2453b56 50               PUSH EAX
0x2453b57 6a18             PUSH 0x18
0x2453b59 8d45e8           LEA EAX, [EBP-0x18]
0x2453b5c 50               PUSH EAX
0x2453b5d 33f6             XOR ESI, ESI

************************************************************************
Hook mode: Usermode
Hook type: Inline/Trampoline
Process: 1028 (svchost.exe)
Victim module: ntdll.dll (0x7c900000 - 0x7c9b0000)
Function: ntdll.dll!NtQueryDirectoryFile at 0x7c90df5e
Hook address: 0x2453ca5
Hooking module: <unknown>

Disassembly(0):
0x7c90df5e e9425db485       JMP 0x2453ca5
0x7c90df63 ba0003fe7f       MOV EDX, 0x7ffe0300
0x7c90df68 ff12             CALL DWORD [EDX]
0x7c90df6a c22c00           RET 0x2c
0x7c90df6d 90               NOP
0x7c90df6e 90               NOP
0x7c90df6f 90               NOP
0x7c90df70 90               NOP
0x7c90df71 90               NOP
0x7c90df72 90               NOP
0x7c90df73 b8               DB 0xb8
0x7c90df74 92               XCHG EDX, EAX
0x7c90df75 00               DB 0x0

Disassembly(1):
0x2453ca5 55               PUSH EBP
0x2453ca6 8bec             MOV EBP, ESP
0x2453ca8 e88bfeffff       CALL 0x2453b38
0x2453cad ff7530           PUSH DWORD [EBP+0x30]
0x2453cb0 ff752c           PUSH DWORD [EBP+0x2c]
0x2453cb3 ff7528           PUSH DWORD [EBP+0x28]
0x2453cb6 ff7524           PUSH DWORD [EBP+0x24]
0x2453cb9 ff7520           PUSH DWORD [EBP+0x20]
0x2453cbc ff               DB 0xff

************************************************************************
Hook mode: Usermode
Hook type: Inline/Trampoline
Process: 1028 (svchost.exe)
Victim module: ntdll.dll (0x7c900000 - 0x7c9b0000)
Function: ntdll.dll!ZwCreateThread at 0x7c90d7d2
Hook address: 0x2453b47
Hooking module: <unknown>

Disassembly(0):
0x7c90d7d2 e97063b485       JMP 0x2453b47
0x7c90d7d7 ba0003fe7f       MOV EDX, 0x7ffe0300
0x7c90d7dc ff12             CALL DWORD [EDX]
0x7c90d7de c22000           RET 0x20
0x7c90d7e1 90               NOP
0x7c90d7e2 90               NOP
0x7c90d7e3 90               NOP
0x7c90d7e4 90               NOP
0x7c90d7e5 90               NOP
0x7c90d7e6 90               NOP
0x7c90d7e7 b8               DB 0xb8
0x7c90d7e8 36               DB 0x36
0x7c90d7e9 00               DB 0x0

Disassembly(1):
0x2453b47 55               PUSH EBP
0x2453b48 8bec             MOV EBP, ESP
0x2453b4a 83ec18           SUB ESP, 0x18
0x2453b4d 53               PUSH EBX
0x2453b4e 56               PUSH ESI
0x2453b4f 57               PUSH EDI
0x2453b50 8b7d14           MOV EDI, [EBP+0x14]
0x2453b53 8d4514           LEA EAX, [EBP+0x14]
0x2453b56 50               PUSH EAX
0x2453b57 6a18             PUSH 0x18
0x2453b59 8d45e8           LEA EAX, [EBP-0x18]
0x2453b5c 50               PUSH EAX
0x2453b5d 33f6             XOR ESI, ESI

************************************************************************
Hook mode: Usermode
Hook type: Inline/Trampoline
Process: 1028 (svchost.exe)
Victim module: ntdll.dll (0x7c900000 - 0x7c9b0000)
Function: ntdll.dll!ZwQueryDirectoryFile at 0x7c90df5e
Hook address: 0x2453ca5
Hooking module: <unknown>

Disassembly(0):
0x7c90df5e e9425db485       JMP 0x2453ca5
0x7c90df63 ba0003fe7f       MOV EDX, 0x7ffe0300
0x7c90df68 ff12             CALL DWORD [EDX]
0x7c90df6a c22c00           RET 0x2c
0x7c90df6d 90               NOP
0x7c90df6e 90               NOP
0x7c90df6f 90               NOP
0x7c90df70 90               NOP
0x7c90df71 90               NOP
0x7c90df72 90               NOP
0x7c90df73 b8               DB 0xb8
0x7c90df74 92               XCHG EDX, EAX
0x7c90df75 00               DB 0x0

Disassembly(1):
0x2453ca5 55               PUSH EBP
0x2453ca6 8bec             MOV EBP, ESP
0x2453ca8 e88bfeffff       CALL 0x2453b38
0x2453cad ff7530           PUSH DWORD [EBP+0x30]
0x2453cb0 ff752c           PUSH DWORD [EBP+0x2c]
0x2453cb3 ff7528           PUSH DWORD [EBP+0x28]
0x2453cb6 ff7524           PUSH DWORD [EBP+0x24]
0x2453cb9 ff7520           PUSH DWORD [EBP+0x20]
0x2453cbc ff               DB 0xff

************************************************************************
Hook mode: Usermode
Hook type: Inline/Trampoline
Process: 1028 (svchost.exe)
Victim module: USER32.dll (0x77d40000 - 0x77dd0000)
Function: USER32.dll!BeginPaint at 0x77d4b4b1
Hook address: 0x245fd3f
Hooking module: <unknown>

Disassembly(0):
0x77d4b4b1 e98948718a       JMP 0x245fd3f
0x77d4b4b6 ba0003fe7f       MOV EDX, 0x7ffe0300
0x77d4b4bb ff12             CALL DWORD [EDX]
0x77d4b4bd c20800           RET 0x8
0x77d4b4c0 90               NOP
0x77d4b4c1 90               NOP
0x77d4b4c2 90               NOP
0x77d4b4c3 90               NOP
0x77d4b4c4 90               NOP
0x77d4b4c5 e9               DB 0xe9
0x77d4b4c6 d7               XLAT BYTE [EBX+AL]
0x77d4b4c7 48               DEC EAX
0x77d4b4c8 71               DB 0x71

Disassembly(1):
0x245fd3f 833d84274702ff   CMP DWORD [0x2472784], -0x1
0x245fd46 56               PUSH ESI
0x245fd47 8b74240c         MOV ESI, [ESP+0xc]
0x245fd4b 7540             JNZ 0x245fd8d
0x245fd4d 85f6             TEST ESI, ESI
0x245fd4f 743c             JZ 0x245fd8d
0x245fd51 ff1510114502     CALL DWORD [0x2451110]

************************************************************************
Hook mode: Usermode
Hook type: Inline/Trampoline
Process: 1028 (svchost.exe)
Victim module: USER32.dll (0x77d40000 - 0x77dd0000)
Function: USER32.dll!DefWindowProcA at 0x77d4df6b
Hook address: 0x245fe0c
Hooking module: <unknown>

Disassembly(0):
0x77d4df6b e99c1e718a       JMP 0x245fe0c
0x77d4df70 d477             AAM 0x77
0x77d4df72 e819a6ffff       CALL 0x77d48590
0x77d4df77 e890a6ffff       CALL 0x77d4860c
0x77d4df7c 833d6c00da7700   CMP DWORD [0x77da006c], 0x0

Disassembly(1):
0x245fe0c 55               PUSH EBP
0x245fe0d 8bec             MOV EBP, ESP
0x245fe0f 833d84274702ff   CMP DWORD [0x2472784], -0x1
0x245fe16 56               PUSH ESI
0x245fe17 8b750c           MOV ESI, [EBP+0xc]
0x245fe1a 7512             JNZ 0x245fe2e
0x245fe1c 3b3578264702     CMP ESI, [0x2472678]
0x245fe22 750a             JNZ 0x245fe2e

************************************************************************
Hook mode: Usermode
Hook type: Inline/Trampoline
Process: 1028 (svchost.exe)
Victim module: USER32.dll (0x77d40000 - 0x77dd0000)
Function: USER32.dll!DefWindowProcW at 0x77d4b1e5
Hook address: 0x245fdd0
Hooking module: <unknown>

Disassembly(0):
0x77d4b1e5 e9e64b718a       JMP 0x245fdd0
0x77d4b1ea d477             AAM 0x77
0x77d4b1ec e89fd3ffff       CALL 0x77d48590
0x77d4b1f1 e816d4ffff       CALL 0x77d4860c
0x77d4b1f6 833d6c00da7700   CMP DWORD [0x77da006c], 0x0

Disassembly(1):
0x245fdd0 55               PUSH EBP
0x245fdd1 8bec             MOV EBP, ESP
0x245fdd3 833d84274702ff   CMP DWORD [0x2472784], -0x1
0x245fdda 56               PUSH ESI
0x245fddb 8b750c           MOV ESI, [EBP+0xc]
0x245fdde 7512             JNZ 0x245fdf2
0x245fde0 3b3578264702     CMP ESI, [0x2472678]
0x245fde6 750a             JNZ 0x245fdf2

************************************************************************
Hook mode: Usermode
Hook type: Inline/Trampoline
Process: 1028 (svchost.exe)
Victim module: USER32.dll (0x77d40000 - 0x77dd0000)
Function: USER32.dll!EndPaint at 0x77d4b4c5
Hook address: 0x245fda1
Hooking module: <unknown>

Disassembly(0):
0x77d4b4c5 e9d748718a       JMP 0x245fda1
0x77d4b4ca ba0003fe7f       MOV EDX, 0x7ffe0300
0x77d4b4cf ff12             CALL DWORD [EDX]
0x77d4b4d1 c20800           RET 0x8
0x77d4b4d4 90               NOP
0x77d4b4d5 90               NOP
0x77d4b4d6 90               NOP
0x77d4b4d7 90               NOP
0x77d4b4d8 90               NOP
0x77d4b4d9 8bff             MOV EDI, EDI
0x77d4b4db 55               PUSH EBP
0x77d4b4dc 8b               DB 0x8b

Disassembly(1):
0x245fda1 833d84274702ff   CMP DWORD [0x2472784], -0x1
0x245fda8 751b             JNZ 0x245fdc5
0x245fdaa 837c240800       CMP DWORD [ESP+0x8], 0x0
0x245fdaf 7414             JZ 0x245fdc5
0x245fdb1 ff1510114502     CALL DWORD [0x2451110]
0x245fdb7 39               DB 0x39
0x245fdb8 05               DB 0x5

************************************************************************
Hook mode: Usermode
Hook type: Inline/Trampoline
Process: 1028 (svchost.exe)
Victim module: USER32.dll (0x77d40000 - 0x77dd0000)
Function: USER32.dll!GetClipboardData at 0x77d6fcb2
Hook address: 0x2464fd5
Hooking module: <unknown>

Disassembly(0):
0x77d6fcb2 e91e536f8a       JMP 0x2464fd5
0x77d6fcb7 83ec2c           SUB ESP, 0x2c
0x77d6fcba 56               PUSH ESI
0x77d6fcbb 57               PUSH EDI
0x77d6fcbc 8d45d4           LEA EAX, [EBP-0x2c]
0x77d6fcbf 50               PUSH EAX
0x77d6fcc0 ff7508           PUSH DWORD [EBP+0x8]
0x77d6fcc3 e8e8000000       CALL 0x77d6fdb0
0x77d6fcc8 8bf0             MOV ESI, EAX

Disassembly(1):
0x2464fd5 55               PUSH EBP
0x2464fd6 8bec             MOV EBP, ESP
0x2464fd8 53               PUSH EBX
0x2464fd9 56               PUSH ESI
0x2464fda e859ebfeff       CALL 0x2453b38
0x2464fdf 8b7508           MOV ESI, [EBP+0x8]
0x2464fe2 56               PUSH ESI
0x2464fe3 ff1560134502     CALL DWORD [0x2451360]
0x2464fe9 8bd8             MOV EBX, EAX
0x2464feb 85db             TEST EBX, EBX

************************************************************************
Hook mode: Usermode
Hook type: Inline/Trampoline
Process: 1028 (svchost.exe)
Victim module: USER32.dll (0x77d40000 - 0x77dd0000)
Function: USER32.dll!TranslateMessage at 0x77d48bce
Hook address: 0x2464ea0
Hooking module: <unknown>

Disassembly(0):
0x77d48bce e9cdc2718a       JMP 0x2464ea0
0x77d48bd3 56               PUSH ESI
0x77d48bd4 8b7508           MOV ESI, [EBP+0x8]
0x77d48bd7 66817e08e500     CMP WORD [ESI+0x8], 0xe5
0x77d48bdd 0f84a77e0200     JZ 0x77d70a8a
0x77d48be3 6a00             PUSH 0x0
0x77d48be5 56               PUSH ESI

Disassembly(1):
0x2464ea0 55               PUSH EBP
0x2464ea1 8bec             MOV EBP, ESP
0x2464ea3 83e4f8           AND ESP, -0x8
0x2464ea6 81ec1c030000     SUB ESP, 0x31c
0x2464eac 53               PUSH EBX
0x2464ead 8b5d08           MOV EBX, [EBP+0x8]
0x2464eb0 56               PUSH ESI
0x2464eb1 57               PUSH EDI
0x2464eb2 85db             TEST EBX, EBX
0x2464eb4 0f               DB 0xf
0x2464eb5 8406             TEST [ESI], AL
0x2464eb7 01               DB 0x1

************************************************************************
Hook mode: Usermode
Hook type: Inline/Trampoline
Process: 1028 (svchost.exe)
Victim module: WS2_32.dll (0x71ab0000 - 0x71ac7000)
Function: WS2_32.dll!WSASend at 0x71ab6233
Hook address: 0x246112c
Hooking module: <unknown>

Disassembly(0):
0x71ab6233 e9f4ae9a90       JMP 0x246112c
0x71ab6238 51               PUSH ECX
0x71ab6239 51               PUSH ECX
0x71ab623a 813d2840ac714894ab71 CMP DWORD [0x71ac4028], 0x71ab9448
0x71ab6244 56               PUSH ESI
0x71ab6245 0f847f540000     JZ 0x71abb6ca

Disassembly(1):
0x246112c 55               PUSH EBP
0x246112d 8bec             MOV EBP, ESP
0x246112f 837d1000         CMP DWORD [EBP+0x10], 0x0
0x2461133 56               PUSH ESI
0x2461134 8b750c           MOV ESI, [EBP+0xc]
0x2461137 7615             JBE 0x246114e
0x2461139 57               PUSH EDI
0x246113a 8b7d10           MOV EDI, [EBP+0x10]
0x246113d ff36             PUSH DWORD [ESI]
0x246113f 8b4604           MOV EAX, [ESI+0x4]
0x2461142 ff               DB 0xff
0x2461143 75               DB 0x75

************************************************************************
Hook mode: Usermode
Hook type: Inline/Trampoline
Process: 1028 (svchost.exe)
Victim module: WS2_32.dll (0x71ab0000 - 0x71ac7000)
Function: WS2_32.dll!closesocket at 0x71ab9639
Hook address: 0x24610db
Hooking module: <unknown>

Disassembly(0):
0x71ab9639 e99d7a9a90       JMP 0x24610db
0x71ab963e 51               PUSH ECX
0x71ab963f 813d2840ac714894ab71 CMP DWORD [0x71ac4028], 0x71ab9448
0x71ab9649 56               PUSH ESI
0x71ab964a 0f84aef3ffff     JZ 0x71ab89fe
0x71ab9650 e8               DB 0xe8

Disassembly(1):
0x24610db 56               PUSH ESI
0x24610dc bef4264702       MOV ESI, 0x24726f4
0x24610e1 56               PUSH ESI
0x24610e2 ff1574124502     CALL DWORD [0x2451274]
0x24610e8 ff742408         PUSH DWORD [ESP+0x8]
0x24610ec e859fcffff       CALL 0x2460d4a
0x24610f1 85c0             TEST EAX, EAX

************************************************************************
Hook mode: Usermode
Hook type: Inline/Trampoline
Process: 1028 (svchost.exe)
Victim module: WS2_32.dll (0x71ab0000 - 0x71ac7000)
Function: WS2_32.dll!send at 0x71ab428a
Hook address: 0x246110f
Hooking module: <unknown>

Disassembly(0):
0x71ab428a e980ce9a90       JMP 0x246110f
0x71ab428f 83ec10           SUB ESP, 0x10
0x71ab4292 56               PUSH ESI
0x71ab4293 57               PUSH EDI
0x71ab4294 33ff             XOR EDI, EDI
0x71ab4296 813d2840ac714894ab71 CMP DWORD [0x71ac4028], 0x71ab9448
0x71ab42a0 0f               DB 0xf
0x71ab42a1 84               DB 0x84

Disassembly(1):
0x246110f 55               PUSH EBP
0x2461110 8bec             MOV EBP, ESP
0x2461112 ff7510           PUSH DWORD [EBP+0x10]
0x2461115 8b450c           MOV EAX, [EBP+0xc]
0x2461118 ff7508           PUSH DWORD [EBP+0x8]
0x246111b e838fdffff       CALL 0x2460e58
0x2461120 e8132affff       CALL 0x2453b38
0x2461125 5d               POP EBP
0x2461126 ff               DB 0xff

************************************************************************
Hook mode: Usermode
Hook type: Inline/Trampoline
Process: 1028 (svchost.exe)
Victim module: CRYPT32.dll (0x77a80000 - 0x77b14000)
Function: CRYPT32.dll!PFXImportCertStore at 0x77aef748
Hook address: 0x2453692
Hooking module: <unknown>

Disassembly(0):
0x77aef748 e9453f968a       JMP 0x2453692
0x77aef74d 83ec18           SUB ESP, 0x18
0x77aef750 53               PUSH EBX
0x77aef751 57               PUSH EDI
0x77aef752 33c0             XOR EAX, EAX
0x77aef754 8d7de8           LEA EDI, [EBP-0x18]
0x77aef757 33db             XOR EBX, EBX
0x77aef759 f74510dcefffef   TEST DWORD [EBP+0x10], 0xefffefdc

Disassembly(1):
0x2453692 55               PUSH EBP
0x2453693 8bec             MOV EBP, ESP
0x2453695 81ec80000000     SUB ESP, 0x80
0x245369b 53               PUSH EBX
0x245369c 56               PUSH ESI
0x245369d e896040000       CALL 0x2453b38
0x24536a2 ff7510           PUSH DWORD [EBP+0x10]
0x24536a5 8b7508           MOV ESI, [EBP+0x8]
0x24536a8 ff               DB 0xff
0x24536a9 75               DB 0x75

************************************************************************
Hook mode: Usermode
Hook type: Inline/Trampoline
Process: 1028 (svchost.exe)
Victim module: WININET.dll (0x771b0000 - 0x77256000)
Function: WININET.dll!HttpQueryInfoA at 0x771c8c6a
Hook address: 0x2467477
Hooking module: <unknown>

Disassembly(0):
0x771c8c6a e908e8298b       JMP 0x2467477
0x771c8c6f 1c77             SBB AL, 0x77
0x771c8c71 e8fc89feff       CALL 0x771b1672
0x771c8c76 33db             XOR EBX, EBX
0x771c8c78 895ddc           MOV [EBP-0x24], EBX
0x771c8c7b 895de4           MOV [EBP-0x1c], EBX
0x771c8c7e 39               DB 0x39
0x771c8c7f 1d               DB 0x1d
0x771c8c80 50               PUSH EAX
0x771c8c81 98               CWDE

Disassembly(1):
0x2467477 55               PUSH EBP
0x2467478 8bec             MOV EBP, ESP
0x246747a 56               PUSH ESI
0x246747b 57               PUSH EDI
0x246747c bf6c274702       MOV EDI, 0x247276c
0x2467481 57               PUSH EDI
0x2467482 ff1574124502     CALL DWORD [0x2451274]
0x2467488 8b7508           MOV ESI, [EBP+0x8]
0x246748b e8               DB 0xe8
0x246748c 67e5ff           IN EAX, 0xff

************************************************************************
Hook mode: Usermode
Hook type: Inline/Trampoline
Process: 1028 (svchost.exe)
Victim module: WININET.dll (0x771b0000 - 0x77256000)
Function: WININET.dll!HttpSendRequestA at 0x771c76b8
Hook address: 0x2467366
Hooking module: <unknown>

Disassembly(0):
0x771c76b8 e9a9fc298b       JMP 0x2467366
0x771c76bd 6a13             PUSH 0x13
0x771c76bf 6a00             PUSH 0x0
0x771c76c1 ff7518           PUSH DWORD [EBP+0x18]
0x771c76c4 ff7514           PUSH DWORD [EBP+0x14]
0x771c76c7 ff7510           PUSH DWORD [EBP+0x10]
0x771c76ca ff750c           PUSH DWORD [EBP+0xc]
0x771c76cd ff7508           PUSH DWORD [EBP+0x8]

Disassembly(1):
0x2467366 55               PUSH EBP
0x2467367 8bec             MOV EBP, ESP
0x2467369 e8cac7feff       CALL 0x2453b38
0x246736e ff7510           PUSH DWORD [EBP+0x10]
0x2467371 8b4518           MOV EAX, [EBP+0x18]
0x2467374 ff750c           PUSH DWORD [EBP+0xc]
0x2467377 8b4d14           MOV ECX, [EBP+0x14]
0x246737a ff7508           PUSH DWORD [EBP+0x8]
0x246737d 6a               DB 0x6a

************************************************************************
Hook mode: Usermode
Hook type: Inline/Trampoline
Process: 1028 (svchost.exe)
Victim module: WININET.dll (0x771b0000 - 0x77256000)
Function: WININET.dll!HttpSendRequestExA at 0x7721190d
Hook address: 0x24673ac
Hooking module: <unknown>

Disassembly(0):
0x7721190d e99a5a258b       JMP 0x24673ac
0x77211912 53               PUSH EBX
0x77211913 56               PUSH ESI
0x77211914 57               PUSH EDI
0x77211915 33db             XOR EBX, EBX
0x77211917 33c0             XOR EAX, EAX
0x77211919 33c9             XOR ECX, ECX
0x7721191b 33d2             XOR EDX, EDX
0x7721191d 33ff             XOR EDI, EDI
0x7721191f 395d10           CMP [EBP+0x10], EBX
0x77211922 7539             JNZ 0x7721195d
0x77211924 8b               DB 0x8b

Disassembly(1):
0x24673ac 55               PUSH EBP
0x24673ad 8bec             MOV EBP, ESP
0x24673af 53               PUSH EBX
0x24673b0 e883c7feff       CALL 0x2453b38
0x24673b5 ff7518           PUSH DWORD [EBP+0x18]
0x24673b8 8b450c           MOV EAX, [EBP+0xc]
0x24673bb ff7514           PUSH DWORD [EBP+0x14]
0x24673be 8b5d08           MOV EBX, [EBP+0x8]
0x24673c1 ff7510           PUSH DWORD [EBP+0x10]

************************************************************************
Hook mode: Usermode
Hook type: Inline/Trampoline
Process: 1028 (svchost.exe)
Victim module: WININET.dll (0x771b0000 - 0x77256000)
Function: WININET.dll!HttpSendRequestExW at 0x771d53eb
Hook address: 0x2467388
Hooking module: <unknown>

Disassembly(0):
0x771d53eb e9981f298b       JMP 0x2467388
0x771d53f0 83ec14           SUB ESP, 0x14
0x771d53f3 53               PUSH EBX
0x771d53f4 56               PUSH ESI
0x771d53f5 33c0             XOR EAX, EAX
0x771d53f7 57               PUSH EDI
0x771d53f8 33d2             XOR EDX, EDX
0x771d53fa 33db             XOR EBX, EBX
0x771d53fc 33ff             XOR EDI, EDI
0x771d53fe 33c9             XOR ECX, ECX
0x771d5400 395508           CMP [EBP+0x8], EDX

Disassembly(1):
0x2467388 55               PUSH EBP
0x2467389 8bec             MOV EBP, ESP
0x246738b 53               PUSH EBX
0x246738c e8a7c7feff       CALL 0x2453b38
0x2467391 ff7518           PUSH DWORD [EBP+0x18]
0x2467394 8b450c           MOV EAX, [EBP+0xc]
0x2467397 ff7514           PUSH DWORD [EBP+0x14]
0x246739a 8b5d08           MOV EBX, [EBP+0x8]
0x246739d ff7510           PUSH DWORD [EBP+0x10]

************************************************************************
Hook mode: Usermode
Hook type: Inline/Trampoline
Process: 1028 (svchost.exe)
Victim module: WININET.dll (0x771b0000 - 0x77256000)
Function: WININET.dll!HttpSendRequestW at 0x77211808
Hook address: 0x2467344
Hooking module: <unknown>

Disassembly(0):
0x77211808 e9375b258b       JMP 0x2467344
0x7721180d 83ec14           SUB ESP, 0x14
0x77211810 53               PUSH EBX
0x77211811 33db             XOR EBX, EBX
0x77211813 56               PUSH ESI
0x77211814 33f6             XOR ESI, ESI
0x77211816 33c0             XOR EAX, EAX
0x77211818 395d08           CMP [EBP+0x8], EBX
0x7721181b 57               PUSH EDI
0x7721181c 895df8           MOV [EBP-0x8], EBX
0x7721181f 89               DB 0x89

Disassembly(1):
0x2467344 55               PUSH EBP
0x2467345 8bec             MOV EBP, ESP
0x2467347 e8ecc7feff       CALL 0x2453b38
0x246734c ff7510           PUSH DWORD [EBP+0x10]
0x246734f 8b4518           MOV EAX, [EBP+0x18]
0x2467352 ff750c           PUSH DWORD [EBP+0xc]
0x2467355 8b4d14           MOV ECX, [EBP+0x14]
0x2467358 ff7508           PUSH DWORD [EBP+0x8]
0x246735b 6a               DB 0x6a

************************************************************************
Hook mode: Usermode
Hook type: Inline/Trampoline
Process: 1028 (svchost.exe)
Victim module: WININET.dll (0x771b0000 - 0x77256000)
Function: WININET.dll!InternetCloseHandle at 0x771c61dc
Hook address: 0x2467438
Hooking module: <unknown>

Disassembly(0):
0x771c61dc e957122a8b       JMP 0x2467438
0x771c61e1 51               PUSH ECX
0x771c61e2 51               PUSH ECX
0x771c61e3 53               PUSH EBX
0x771c61e4 56               PUSH ESI
0x771c61e5 33db             XOR EBX, EBX
0x771c61e7 33f6             XOR ESI, ESI
0x771c61e9 f60544a3237701   TEST BYTE [0x7723a344], 0x1
0x771c61f0 895dfc           MOV [EBP-0x4], EBX
0x771c61f3 0f               DB 0xf

Disassembly(1):
0x2467438 53               PUSH EBX
0x2467439 56               PUSH ESI
0x246743a 57               PUSH EDI
0x246743b e8f8c6feff       CALL 0x2453b38
0x2467440 8b742410         MOV ESI, [ESP+0x10]
0x2467444 56               PUSH ESI
0x2467445 ff153c144502     CALL DWORD [0x245143c]
0x246744b bf6c274702       MOV EDI, 0x247276c

************************************************************************
Hook mode: Usermode
Hook type: Inline/Trampoline
Process: 1028 (svchost.exe)
Victim module: WININET.dll (0x771b0000 - 0x77256000)
Function: WININET.dll!InternetQueryDataAvailable at 0x771d325f
Hook address: 0x2467415
Hooking module: <unknown>

Disassembly(0):
0x771d325f e9b141298b       JMP 0x2467415
0x771d3264 83ec10           SUB ESP, 0x10
0x771d3267 53               PUSH EBX
0x771d3268 33db             XOR EBX, EBX
0x771d326a 391d50982377     CMP [0x77239850], EBX
0x771d3270 56               PUSH ESI
0x771d3271 57               PUSH EDI
0x771d3272 895dfc           MOV [EBP-0x4], EBX
0x771d3275 c7               DB 0xc7
0x771d3276 45               INC EBP

Disassembly(1):
0x2467415 e81ec7feff       CALL 0x2453b38
0x246741a ff742410         PUSH DWORD [ESP+0x10]
0x246741e ff742410         PUSH DWORD [ESP+0x10]
0x2467422 ff742410         PUSH DWORD [ESP+0x10]
0x2467426 6a00             PUSH 0x0
0x2467428 6a00             PUSH 0x0
0x246742a ff               DB 0xff
0x246742b 7424             JZ 0x2467451

************************************************************************
Hook mode: Usermode
Hook type: Inline/Trampoline
Process: 1028 (svchost.exe)
Victim module: WININET.dll (0x771b0000 - 0x77256000)
Function: WININET.dll!InternetReadFile at 0x771c9555
Hook address: 0x24673d0
Hooking module: <unknown>

Disassembly(0):
0x771c9555 e976de298b       JMP 0x24673d0
0x771c955a 83ec24           SUB ESP, 0x24
0x771c955d 53               PUSH EBX
0x771c955e 33db             XOR EBX, EBX
0x771c9560 391d50982377     CMP [0x77239850], EBX
0x771c9566 57               PUSH EDI
0x771c9567 895df4           MOV [EBP-0xc], EBX
0x771c956a 895df8           MOV [EBP-0x8], EBX

Disassembly(1):
0x24673d0 e863c7feff       CALL 0x2453b38
0x24673d5 33c0             XOR EAX, EAX
0x24673d7 50               PUSH EAX
0x24673d8 50               PUSH EAX
0x24673d9 ff742418         PUSH DWORD [ESP+0x18]
0x24673dd ff742418         PUSH DWORD [ESP+0x18]
0x24673e1 ff742418         PUSH DWORD [ESP+0x18]
0x24673e5 ff               DB 0xff
0x24673e6 7424             JZ 0x246740c

************************************************************************
Hook mode: Usermode
Hook type: Inline/Trampoline
Process: 1028 (svchost.exe)
Victim module: WININET.dll (0x771b0000 - 0x77256000)
Function: WININET.dll!InternetReadFileExA at 0x771f7e9a
Hook address: 0x24673f2
Hooking module: <unknown>

Disassembly(0):
0x771f7e9a e953f5268b       JMP 0x24673f2
0x771f7e9f 83ec20           SUB ESP, 0x20
0x771f7ea2 53               PUSH EBX
0x771f7ea3 56               PUSH ESI
0x771f7ea4 33c0             XOR EAX, EAX
0x771f7ea6 57               PUSH EDI
0x771f7ea7 33ff             XOR EDI, EDI
0x771f7ea9 40               INC EAX
0x771f7eaa 393d50982377     CMP [0x77239850], EDI
0x771f7eb0 89               DB 0x89
0x771f7eb1 7d               DB 0x7d

Disassembly(1):
0x24673f2 e841c7feff       CALL 0x2453b38
0x24673f7 ff742410         PUSH DWORD [ESP+0x10]
0x24673fb ff742410         PUSH DWORD [ESP+0x10]
0x24673ff 6a00             PUSH 0x0
0x2467401 6a00             PUSH 0x0
0x2467403 ff742418         PUSH DWORD [ESP+0x18]
0x2467407 ff               DB 0xff
0x2467408 7424             JZ 0x246742e

************************************************************************
Hook mode: Usermode
Hook type: Inline/Trampoline
Process: 1088 (svchost.exe)
Victim module: ntdll.dll (0x7c900000 - 0x7c9b0000)
Function: ntdll.dll!NtCreateThread at 0x7c90d7d2
Hook address: 0x8b3b47
Hooking module: <unknown>

Disassembly(0):
0x7c90d7d2 e97063fa83       JMP 0x8b3b47
0x7c90d7d7 ba0003fe7f       MOV EDX, 0x7ffe0300
0x7c90d7dc ff12             CALL DWORD [EDX]
0x7c90d7de c22000           RET 0x20
0x7c90d7e1 90               NOP
0x7c90d7e2 90               NOP
0x7c90d7e3 90               NOP
0x7c90d7e4 90               NOP
0x7c90d7e5 90               NOP
0x7c90d7e6 90               NOP
0x7c90d7e7 b8               DB 0xb8
0x7c90d7e8 36               DB 0x36
0x7c90d7e9 00               DB 0x0

Disassembly(1):
0x8b3b47 55               PUSH EBP
0x8b3b48 8bec             MOV EBP, ESP
0x8b3b4a 83ec18           SUB ESP, 0x18
0x8b3b4d 53               PUSH EBX
0x8b3b4e 56               PUSH ESI
0x8b3b4f 57               PUSH EDI
0x8b3b50 8b7d14           MOV EDI, [EBP+0x14]
0x8b3b53 8d4514           LEA EAX, [EBP+0x14]
0x8b3b56 50               PUSH EAX
0x8b3b57 6a18             PUSH 0x18
0x8b3b59 8d45e8           LEA EAX, [EBP-0x18]
0x8b3b5c 50               PUSH EAX
0x8b3b5d 33f6             XOR ESI, ESI

************************************************************************
Hook mode: Usermode
Hook type: Inline/Trampoline
Process: 1088 (svchost.exe)
Victim module: ntdll.dll (0x7c900000 - 0x7c9b0000)
Function: ntdll.dll!NtQueryDirectoryFile at 0x7c90df5e
Hook address: 0x8b3ca5
Hooking module: <unknown>

Disassembly(0):
0x7c90df5e e9425dfa83       JMP 0x8b3ca5
0x7c90df63 ba0003fe7f       MOV EDX, 0x7ffe0300
0x7c90df68 ff12             CALL DWORD [EDX]
0x7c90df6a c22c00           RET 0x2c
0x7c90df6d 90               NOP
0x7c90df6e 90               NOP
0x7c90df6f 90               NOP
0x7c90df70 90               NOP
0x7c90df71 90               NOP
0x7c90df72 90               NOP
0x7c90df73 b8               DB 0xb8
0x7c90df74 92               XCHG EDX, EAX
0x7c90df75 00               DB 0x0

Disassembly(1):
0x8b3ca5 55               PUSH EBP
0x8b3ca6 8bec             MOV EBP, ESP
0x8b3ca8 e88bfeffff       CALL 0x8b3b38
0x8b3cad ff7530           PUSH DWORD [EBP+0x30]
0x8b3cb0 ff752c           PUSH DWORD [EBP+0x2c]
0x8b3cb3 ff7528           PUSH DWORD [EBP+0x28]
0x8b3cb6 ff7524           PUSH DWORD [EBP+0x24]
0x8b3cb9 ff7520           PUSH DWORD [EBP+0x20]
0x8b3cbc ff               DB 0xff

************************************************************************
Hook mode: Usermode
Hook type: Inline/Trampoline
Process: 1088 (svchost.exe)
Victim module: ntdll.dll (0x7c900000 - 0x7c9b0000)
Function: ntdll.dll!ZwCreateThread at 0x7c90d7d2
Hook address: 0x8b3b47
Hooking module: <unknown>

Disassembly(0):
0x7c90d7d2 e97063fa83       JMP 0x8b3b47
0x7c90d7d7 ba0003fe7f       MOV EDX, 0x7ffe0300
0x7c90d7dc ff12             CALL DWORD [EDX]
0x7c90d7de c22000           RET 0x20
0x7c90d7e1 90               NOP
0x7c90d7e2 90               NOP
0x7c90d7e3 90               NOP
0x7c90d7e4 90               NOP
0x7c90d7e5 90               NOP
0x7c90d7e6 90               NOP
0x7c90d7e7 b8               DB 0xb8
0x7c90d7e8 36               DB 0x36
0x7c90d7e9 00               DB 0x0

Disassembly(1):
0x8b3b47 55               PUSH EBP
0x8b3b48 8bec             MOV EBP, ESP
0x8b3b4a 83ec18           SUB ESP, 0x18
0x8b3b4d 53               PUSH EBX
0x8b3b4e 56               PUSH ESI
0x8b3b4f 57               PUSH EDI
0x8b3b50 8b7d14           MOV EDI, [EBP+0x14]
0x8b3b53 8d4514           LEA EAX, [EBP+0x14]
0x8b3b56 50               PUSH EAX
0x8b3b57 6a18             PUSH 0x18
0x8b3b59 8d45e8           LEA EAX, [EBP-0x18]
0x8b3b5c 50               PUSH EAX
0x8b3b5d 33f6             XOR ESI, ESI

************************************************************************
Hook mode: Usermode
Hook type: Inline/Trampoline
Process: 1088 (svchost.exe)
Victim module: ntdll.dll (0x7c900000 - 0x7c9b0000)
Function: ntdll.dll!ZwQueryDirectoryFile at 0x7c90df5e
Hook address: 0x8b3ca5
Hooking module: <unknown>

Disassembly(0):
0x7c90df5e e9425dfa83       JMP 0x8b3ca5
0x7c90df63 ba0003fe7f       MOV EDX, 0x7ffe0300
0x7c90df68 ff12             CALL DWORD [EDX]
0x7c90df6a c22c00           RET 0x2c
0x7c90df6d 90               NOP
0x7c90df6e 90               NOP
0x7c90df6f 90               NOP
0x7c90df70 90               NOP
0x7c90df71 90               NOP
0x7c90df72 90               NOP
0x7c90df73 b8               DB 0xb8
0x7c90df74 92               XCHG EDX, EAX
0x7c90df75 00               DB 0x0

Disassembly(1):
0x8b3ca5 55               PUSH EBP
0x8b3ca6 8bec             MOV EBP, ESP
0x8b3ca8 e88bfeffff       CALL 0x8b3b38
0x8b3cad ff7530           PUSH DWORD [EBP+0x30]
0x8b3cb0 ff752c           PUSH DWORD [EBP+0x2c]
0x8b3cb3 ff7528           PUSH DWORD [EBP+0x28]
0x8b3cb6 ff7524           PUSH DWORD [EBP+0x24]
0x8b3cb9 ff7520           PUSH DWORD [EBP+0x20]
0x8b3cbc ff               DB 0xff

************************************************************************
Hook mode: Usermode
Hook type: Inline/Trampoline
Process: 1088 (svchost.exe)
Victim module: USER32.dll (0x77d40000 - 0x77dd0000)
Function: USER32.dll!BeginPaint at 0x77d4b4b1
Hook address: 0x8bfd3f
Hooking module: <unknown>

Disassembly(0):
0x77d4b4b1 e98948b788       JMP 0x8bfd3f
0x77d4b4b6 ba0003fe7f       MOV EDX, 0x7ffe0300
0x77d4b4bb ff12             CALL DWORD [EDX]
0x77d4b4bd c20800           RET 0x8
0x77d4b4c0 90               NOP
0x77d4b4c1 90               NOP
0x77d4b4c2 90               NOP
0x77d4b4c3 90               NOP
0x77d4b4c4 90               NOP
0x77d4b4c5 e9               DB 0xe9
0x77d4b4c6 d7               XLAT BYTE [EBX+AL]
0x77d4b4c7 48               DEC EAX
0x77d4b4c8 b7               DB 0xb7

Disassembly(1):
0x8bfd3f 833d84278d00ff   CMP DWORD [0x8d2784], -0x1
0x8bfd46 56               PUSH ESI
0x8bfd47 8b74240c         MOV ESI, [ESP+0xc]
0x8bfd4b 7540             JNZ 0x8bfd8d
0x8bfd4d 85f6             TEST ESI, ESI
0x8bfd4f 743c             JZ 0x8bfd8d
0x8bfd51 ff1510118b00     CALL DWORD [0x8b1110]

************************************************************************
Hook mode: Usermode
Hook type: Inline/Trampoline
Process: 1088 (svchost.exe)
Victim module: USER32.dll (0x77d40000 - 0x77dd0000)
Function: USER32.dll!DefWindowProcA at 0x77d4df6b
Hook address: 0x8bfe0c
Hooking module: <unknown>

Disassembly(0):
0x77d4df6b e99c1eb788       JMP 0x8bfe0c
0x77d4df70 d477             AAM 0x77
0x77d4df72 e819a6ffff       CALL 0x77d48590
0x77d4df77 e890a6ffff       CALL 0x77d4860c
0x77d4df7c 833d6c00da7700   CMP DWORD [0x77da006c], 0x0

Disassembly(1):
0x8bfe0c 55               PUSH EBP
0x8bfe0d 8bec             MOV EBP, ESP
0x8bfe0f 833d84278d00ff   CMP DWORD [0x8d2784], -0x1
0x8bfe16 56               PUSH ESI
0x8bfe17 8b750c           MOV ESI, [EBP+0xc]
0x8bfe1a 7512             JNZ 0x8bfe2e
0x8bfe1c 3b3578268d00     CMP ESI, [0x8d2678]
0x8bfe22 750a             JNZ 0x8bfe2e

************************************************************************
Hook mode: Usermode
Hook type: Inline/Trampoline
Process: 1088 (svchost.exe)
Victim module: USER32.dll (0x77d40000 - 0x77dd0000)
Function: USER32.dll!DefWindowProcW at 0x77d4b1e5
Hook address: 0x8bfdd0
Hooking module: <unknown>

Disassembly(0):
0x77d4b1e5 e9e64bb788       JMP 0x8bfdd0
0x77d4b1ea d477             AAM 0x77
0x77d4b1ec e89fd3ffff       CALL 0x77d48590
0x77d4b1f1 e816d4ffff       CALL 0x77d4860c
0x77d4b1f6 833d6c00da7700   CMP DWORD [0x77da006c], 0x0

Disassembly(1):
0x8bfdd0 55               PUSH EBP
0x8bfdd1 8bec             MOV EBP, ESP
0x8bfdd3 833d84278d00ff   CMP DWORD [0x8d2784], -0x1
0x8bfdda 56               PUSH ESI
0x8bfddb 8b750c           MOV ESI, [EBP+0xc]
0x8bfdde 7512             JNZ 0x8bfdf2
0x8bfde0 3b3578268d00     CMP ESI, [0x8d2678]
0x8bfde6 750a             JNZ 0x8bfdf2

************************************************************************
Hook mode: Usermode
Hook type: Inline/Trampoline
Process: 1088 (svchost.exe)
Victim module: USER32.dll (0x77d40000 - 0x77dd0000)
Function: USER32.dll!EndPaint at 0x77d4b4c5
Hook address: 0x8bfda1
Hooking module: <unknown>

Disassembly(0):
0x77d4b4c5 e9d748b788       JMP 0x8bfda1
0x77d4b4ca ba0003fe7f       MOV EDX, 0x7ffe0300
0x77d4b4cf ff12             CALL DWORD [EDX]
0x77d4b4d1 c20800           RET 0x8
0x77d4b4d4 90               NOP
0x77d4b4d5 90               NOP
0x77d4b4d6 90               NOP
0x77d4b4d7 90               NOP
0x77d4b4d8 90               NOP
0x77d4b4d9 8bff             MOV EDI, EDI
0x77d4b4db 55               PUSH EBP
0x77d4b4dc 8b               DB 0x8b

Disassembly(1):
0x8bfda1 833d84278d00ff   CMP DWORD [0x8d2784], -0x1
0x8bfda8 751b             JNZ 0x8bfdc5
0x8bfdaa 837c240800       CMP DWORD [ESP+0x8], 0x0
0x8bfdaf 7414             JZ 0x8bfdc5
0x8bfdb1 ff1510118b00     CALL DWORD [0x8b1110]
0x8bfdb7 39               DB 0x39
0x8bfdb8 05               DB 0x5

************************************************************************
Hook mode: Usermode
Hook type: Inline/Trampoline
Process: 1088 (svchost.exe)
Victim module: USER32.dll (0x77d40000 - 0x77dd0000)
Function: USER32.dll!GetClipboardData at 0x77d6fcb2
Hook address: 0x8c4fd5
Hooking module: <unknown>

Disassembly(0):
0x77d6fcb2 e91e53b588       JMP 0x8c4fd5
0x77d6fcb7 83ec2c           SUB ESP, 0x2c
0x77d6fcba 56               PUSH ESI
0x77d6fcbb 57               PUSH EDI
0x77d6fcbc 8d45d4           LEA EAX, [EBP-0x2c]
0x77d6fcbf 50               PUSH EAX
0x77d6fcc0 ff7508           PUSH DWORD [EBP+0x8]
0x77d6fcc3 e8e8000000       CALL 0x77d6fdb0
0x77d6fcc8 8bf0             MOV ESI, EAX

Disassembly(1):
0x8c4fd5 55               PUSH EBP
0x8c4fd6 8bec             MOV EBP, ESP
0x8c4fd8 53               PUSH EBX
0x8c4fd9 56               PUSH ESI
0x8c4fda e859ebfeff       CALL 0x8b3b38
0x8c4fdf 8b7508           MOV ESI, [EBP+0x8]
0x8c4fe2 56               PUSH ESI
0x8c4fe3 ff1560138b00     CALL DWORD [0x8b1360]
0x8c4fe9 8bd8             MOV EBX, EAX
0x8c4feb 85db             TEST EBX, EBX

************************************************************************
Hook mode: Usermode
Hook type: Inline/Trampoline
Process: 1088 (svchost.exe)
Victim module: USER32.dll (0x77d40000 - 0x77dd0000)
Function: USER32.dll!TranslateMessage at 0x77d48bce
Hook address: 0x8c4ea0
Hooking module: <unknown>

Disassembly(0):
0x77d48bce e9cdc2b788       JMP 0x8c4ea0
0x77d48bd3 56               PUSH ESI
0x77d48bd4 8b7508           MOV ESI, [EBP+0x8]
0x77d48bd7 66817e08e500     CMP WORD [ESI+0x8], 0xe5
0x77d48bdd 0f84a77e0200     JZ 0x77d70a8a
0x77d48be3 6a00             PUSH 0x0
0x77d48be5 56               PUSH ESI

Disassembly(1):
0x8c4ea0 55               PUSH EBP
0x8c4ea1 8bec             MOV EBP, ESP
0x8c4ea3 83e4f8           AND ESP, -0x8
0x8c4ea6 81ec1c030000     SUB ESP, 0x31c
0x8c4eac 53               PUSH EBX
0x8c4ead 8b5d08           MOV EBX, [EBP+0x8]
0x8c4eb0 56               PUSH ESI
0x8c4eb1 57               PUSH EDI
0x8c4eb2 85db             TEST EBX, EBX
0x8c4eb4 0f               DB 0xf
0x8c4eb5 8406             TEST [ESI], AL
0x8c4eb7 01               DB 0x1

************************************************************************
Hook mode: Usermode
Hook type: Inline/Trampoline
Process: 1088 (svchost.exe)
Victim module: WS2_32.dll (0x71ab0000 - 0x71ac7000)
Function: WS2_32.dll!WSASend at 0x71ab6233
Hook address: 0x8c112c
Hooking module: <unknown>

Disassembly(0):
0x71ab6233 e9f4aee08e       JMP 0x8c112c
0x71ab6238 51               PUSH ECX
0x71ab6239 51               PUSH ECX
0x71ab623a 813d2840ac714894ab71 CMP DWORD [0x71ac4028], 0x71ab9448
0x71ab6244 56               PUSH ESI
0x71ab6245 0f847f540000     JZ 0x71abb6ca

Disassembly(1):
0x8c112c 55               PUSH EBP
0x8c112d 8bec             MOV EBP, ESP
0x8c112f 837d1000         CMP DWORD [EBP+0x10], 0x0
0x8c1133 56               PUSH ESI
0x8c1134 8b750c           MOV ESI, [EBP+0xc]
0x8c1137 7615             JBE 0x8c114e
0x8c1139 57               PUSH EDI
0x8c113a 8b7d10           MOV EDI, [EBP+0x10]
0x8c113d ff36             PUSH DWORD [ESI]
0x8c113f 8b4604           MOV EAX, [ESI+0x4]
0x8c1142 ff               DB 0xff
0x8c1143 75               DB 0x75

************************************************************************
Hook mode: Usermode
Hook type: Inline/Trampoline
Process: 1088 (svchost.exe)
Victim module: WS2_32.dll (0x71ab0000 - 0x71ac7000)
Function: WS2_32.dll!closesocket at 0x71ab9639
Hook address: 0x8c10db
Hooking module: <unknown>

Disassembly(0):
0x71ab9639 e99d7ae08e       JMP 0x8c10db
0x71ab963e 51               PUSH ECX
0x71ab963f 813d2840ac714894ab71 CMP DWORD [0x71ac4028], 0x71ab9448
0x71ab9649 56               PUSH ESI
0x71ab964a 0f84aef3ffff     JZ 0x71ab89fe
0x71ab9650 e8               DB 0xe8

Disassembly(1):
0x8c10db 56               PUSH ESI
0x8c10dc bef4268d00       MOV ESI, 0x8d26f4
0x8c10e1 56               PUSH ESI
0x8c10e2 ff1574128b00     CALL DWORD [0x8b1274]
0x8c10e8 ff742408         PUSH DWORD [ESP+0x8]
0x8c10ec e859fcffff       CALL 0x8c0d4a
0x8c10f1 85c0             TEST EAX, EAX

************************************************************************
Hook mode: Usermode
Hook type: Inline/Trampoline
Process: 1088 (svchost.exe)
Victim module: WS2_32.dll (0x71ab0000 - 0x71ac7000)
Function: WS2_32.dll!send at 0x71ab428a
Hook address: 0x8c110f
Hooking module: <unknown>

Disassembly(0):
0x71ab428a e980cee08e       JMP 0x8c110f
0x71ab428f 83ec10           SUB ESP, 0x10
0x71ab4292 56               PUSH ESI
0x71ab4293 57               PUSH EDI
0x71ab4294 33ff             XOR EDI, EDI
0x71ab4296 813d2840ac714894ab71 CMP DWORD [0x71ac4028], 0x71ab9448
0x71ab42a0 0f               DB 0xf
0x71ab42a1 84               DB 0x84

Disassembly(1):
0x8c110f 55               PUSH EBP
0x8c1110 8bec             MOV EBP, ESP
0x8c1112 ff7510           PUSH DWORD [EBP+0x10]
0x8c1115 8b450c           MOV EAX, [EBP+0xc]
0x8c1118 ff7508           PUSH DWORD [EBP+0x8]
0x8c111b e838fdffff       CALL 0x8c0e58
0x8c1120 e8132affff       CALL 0x8b3b38
0x8c1125 5d               POP EBP
0x8c1126 ff               DB 0xff

************************************************************************
Hook mode: Usermode
Hook type: Inline/Trampoline
Process: 1088 (svchost.exe)
Victim module: CRYPT32.dll (0x77a80000 - 0x77b14000)
Function: CRYPT32.dll!PFXImportCertStore at 0x77aef748
Hook address: 0x8b3692
Hooking module: <unknown>

Disassembly(0):
0x77aef748 e9453fdc88       JMP 0x8b3692
0x77aef74d 83ec18           SUB ESP, 0x18
0x77aef750 53               PUSH EBX
0x77aef751 57               PUSH EDI
0x77aef752 33c0             XOR EAX, EAX
0x77aef754 8d7de8           LEA EDI, [EBP-0x18]
0x77aef757 33db             XOR EBX, EBX
0x77aef759 f74510dcefffef   TEST DWORD [EBP+0x10], 0xefffefdc

Disassembly(1):
0x8b3692 55               PUSH EBP
0x8b3693 8bec             MOV EBP, ESP
0x8b3695 81ec80000000     SUB ESP, 0x80
0x8b369b 53               PUSH EBX
0x8b369c 56               PUSH ESI
0x8b369d e896040000       CALL 0x8b3b38
0x8b36a2 ff7510           PUSH DWORD [EBP+0x10]
0x8b36a5 8b7508           MOV ESI, [EBP+0x8]
0x8b36a8 ff               DB 0xff
0x8b36a9 75               DB 0x75

************************************************************************
Hook mode: Usermode
Hook type: Inline/Trampoline
Process: 1088 (svchost.exe)
Victim module: WININET.dll (0x771b0000 - 0x77256000)
Function: WININET.dll!HttpQueryInfoA at 0x771c8c6a
Hook address: 0x8c7477
Hooking module: <unknown>

Disassembly(0):
0x771c8c6a e908e86f89       JMP 0x8c7477
0x771c8c6f 1c77             SBB AL, 0x77
0x771c8c71 e8fc89feff       CALL 0x771b1672
0x771c8c76 33db             XOR EBX, EBX
0x771c8c78 895ddc           MOV [EBP-0x24], EBX
0x771c8c7b 895de4           MOV [EBP-0x1c], EBX
0x771c8c7e 39               DB 0x39
0x771c8c7f 1d               DB 0x1d
0x771c8c80 50               PUSH EAX
0x771c8c81 98               CWDE

Disassembly(1):
0x8c7477 55               PUSH EBP
0x8c7478 8bec             MOV EBP, ESP
0x8c747a 56               PUSH ESI
0x8c747b 57               PUSH EDI
0x8c747c bf6c278d00       MOV EDI, 0x8d276c
0x8c7481 57               PUSH EDI
0x8c7482 ff1574128b00     CALL DWORD [0x8b1274]
0x8c7488 8b7508           MOV ESI, [EBP+0x8]
0x8c748b e8               DB 0xe8
0x8c748c 67e5ff           IN EAX, 0xff

************************************************************************
Hook mode: Usermode
Hook type: Inline/Trampoline
Process: 1088 (svchost.exe)
Victim module: WININET.dll (0x771b0000 - 0x77256000)
Function: WININET.dll!HttpSendRequestA at 0x771c76b8
Hook address: 0x8c7366
Hooking module: <unknown>

Disassembly(0):
0x771c76b8 e9a9fc6f89       JMP 0x8c7366
0x771c76bd 6a13             PUSH 0x13
0x771c76bf 6a00             PUSH 0x0
0x771c76c1 ff7518           PUSH DWORD [EBP+0x18]
0x771c76c4 ff7514           PUSH DWORD [EBP+0x14]
0x771c76c7 ff7510           PUSH DWORD [EBP+0x10]
0x771c76ca ff750c           PUSH DWORD [EBP+0xc]
0x771c76cd ff7508           PUSH DWORD [EBP+0x8]

Disassembly(1):
0x8c7366 55               PUSH EBP
0x8c7367 8bec             MOV EBP, ESP
0x8c7369 e8cac7feff       CALL 0x8b3b38
0x8c736e ff7510           PUSH DWORD [EBP+0x10]
0x8c7371 8b4518           MOV EAX, [EBP+0x18]
0x8c7374 ff750c           PUSH DWORD [EBP+0xc]
0x8c7377 8b4d14           MOV ECX, [EBP+0x14]
0x8c737a ff7508           PUSH DWORD [EBP+0x8]
0x8c737d 6a               DB 0x6a

************************************************************************
Hook mode: Usermode
Hook type: Inline/Trampoline
Process: 1088 (svchost.exe)
Victim module: WININET.dll (0x771b0000 - 0x77256000)
Function: WININET.dll!HttpSendRequestExA at 0x7721190d
Hook address: 0x8c73ac
Hooking module: <unknown>

Disassembly(0):
0x7721190d e99a5a6b89       JMP 0x8c73ac
0x77211912 53               PUSH EBX
0x77211913 56               PUSH ESI
0x77211914 57               PUSH EDI
0x77211915 33db             XOR EBX, EBX
0x77211917 33c0             XOR EAX, EAX
0x77211919 33c9             XOR ECX, ECX
0x7721191b 33d2             XOR EDX, EDX
0x7721191d 33ff             XOR EDI, EDI
0x7721191f 395d10           CMP [EBP+0x10], EBX
0x77211922 7539             JNZ 0x7721195d
0x77211924 8b               DB 0x8b

Disassembly(1):
0x8c73ac 55               PUSH EBP
0x8c73ad 8bec             MOV EBP, ESP
0x8c73af 53               PUSH EBX
0x8c73b0 e883c7feff       CALL 0x8b3b38
0x8c73b5 ff7518           PUSH DWORD [EBP+0x18]
0x8c73b8 8b450c           MOV EAX, [EBP+0xc]
0x8c73bb ff7514           PUSH DWORD [EBP+0x14]
0x8c73be 8b5d08           MOV EBX, [EBP+0x8]
0x8c73c1 ff7510           PUSH DWORD [EBP+0x10]

************************************************************************
Hook mode: Usermode
Hook type: Inline/Trampoline
Process: 1088 (svchost.exe)
Victim module: WININET.dll (0x771b0000 - 0x77256000)
Function: WININET.dll!HttpSendRequestExW at 0x771d53eb
Hook address: 0x8c7388
Hooking module: <unknown>

Disassembly(0):
0x771d53eb e9981f6f89       JMP 0x8c7388
0x771d53f0 83ec14           SUB ESP, 0x14
0x771d53f3 53               PUSH EBX
0x771d53f4 56               PUSH ESI
0x771d53f5 33c0             XOR EAX, EAX
0x771d53f7 57               PUSH EDI
0x771d53f8 33d2             XOR EDX, EDX
0x771d53fa 33db             XOR EBX, EBX
0x771d53fc 33ff             XOR EDI, EDI
0x771d53fe 33c9             XOR ECX, ECX
0x771d5400 395508           CMP [EBP+0x8], EDX

Disassembly(1):
0x8c7388 55               PUSH EBP
0x8c7389 8bec             MOV EBP, ESP
0x8c738b 53               PUSH EBX
0x8c738c e8a7c7feff       CALL 0x8b3b38
0x8c7391 ff7518           PUSH DWORD [EBP+0x18]
0x8c7394 8b450c           MOV EAX, [EBP+0xc]
0x8c7397 ff7514           PUSH DWORD [EBP+0x14]
0x8c739a 8b5d08           MOV EBX, [EBP+0x8]
0x8c739d ff7510           PUSH DWORD [EBP+0x10]

************************************************************************
Hook mode: Usermode
Hook type: Inline/Trampoline
Process: 1088 (svchost.exe)
Victim module: WININET.dll (0x771b0000 - 0x77256000)
Function: WININET.dll!HttpSendRequestW at 0x77211808
Hook address: 0x8c7344
Hooking module: <unknown>

Disassembly(0):
0x77211808 e9375b6b89       JMP 0x8c7344
0x7721180d 83ec14           SUB ESP, 0x14
0x77211810 53               PUSH EBX
0x77211811 33db             XOR EBX, EBX
0x77211813 56               PUSH ESI
0x77211814 33f6             XOR ESI, ESI
0x77211816 33c0             XOR EAX, EAX
0x77211818 395d08           CMP [EBP+0x8], EBX
0x7721181b 57               PUSH EDI
0x7721181c 895df8           MOV [EBP-0x8], EBX
0x7721181f 89               DB 0x89

Disassembly(1):
0x8c7344 55               PUSH EBP
0x8c7345 8bec             MOV EBP, ESP
0x8c7347 e8ecc7feff       CALL 0x8b3b38
0x8c734c ff7510           PUSH DWORD [EBP+0x10]
0x8c734f 8b4518           MOV EAX, [EBP+0x18]
0x8c7352 ff750c           PUSH DWORD [EBP+0xc]
0x8c7355 8b4d14           MOV ECX, [EBP+0x14]
0x8c7358 ff7508           PUSH DWORD [EBP+0x8]
0x8c735b 6a               DB 0x6a

************************************************************************
Hook mode: Usermode
Hook type: Inline/Trampoline
Process: 1088 (svchost.exe)
Victim module: WININET.dll (0x771b0000 - 0x77256000)
Function: WININET.dll!InternetCloseHandle at 0x771c61dc
Hook address: 0x8c7438
Hooking module: <unknown>

Disassembly(0):
0x771c61dc e957127089       JMP 0x8c7438
0x771c61e1 51               PUSH ECX
0x771c61e2 51               PUSH ECX
0x771c61e3 53               PUSH EBX
0x771c61e4 56               PUSH ESI
0x771c61e5 33db             XOR EBX, EBX
0x771c61e7 33f6             XOR ESI, ESI
0x771c61e9 f60544a3237701   TEST BYTE [0x7723a344], 0x1
0x771c61f0 895dfc           MOV [EBP-0x4], EBX
0x771c61f3 0f               DB 0xf

Disassembly(1):
0x8c7438 53               PUSH EBX
0x8c7439 56               PUSH ESI
0x8c743a 57               PUSH EDI
0x8c743b e8f8c6feff       CALL 0x8b3b38
0x8c7440 8b742410         MOV ESI, [ESP+0x10]
0x8c7444 56               PUSH ESI
0x8c7445 ff153c148b00     CALL DWORD [0x8b143c]
0x8c744b bf6c278d00       MOV EDI, 0x8d276c

************************************************************************
Hook mode: Usermode
Hook type: Inline/Trampoline
Process: 1088 (svchost.exe)
Victim module: WININET.dll (0x771b0000 - 0x77256000)
Function: WININET.dll!InternetQueryDataAvailable at 0x771d325f
Hook address: 0x8c7415
Hooking module: <unknown>

Disassembly(0):
0x771d325f e9b1416f89       JMP 0x8c7415
0x771d3264 83ec10           SUB ESP, 0x10
0x771d3267 53               PUSH EBX
0x771d3268 33db             XOR EBX, EBX
0x771d326a 391d50982377     CMP [0x77239850], EBX
0x771d3270 56               PUSH ESI
0x771d3271 57               PUSH EDI
0x771d3272 895dfc           MOV [EBP-0x4], EBX
0x771d3275 c7               DB 0xc7
0x771d3276 45               INC EBP

Disassembly(1):
0x8c7415 e81ec7feff       CALL 0x8b3b38
0x8c741a ff742410         PUSH DWORD [ESP+0x10]
0x8c741e ff742410         PUSH DWORD [ESP+0x10]
0x8c7422 ff742410         PUSH DWORD [ESP+0x10]
0x8c7426 6a00             PUSH 0x0
0x8c7428 6a00             PUSH 0x0
0x8c742a ff               DB 0xff
0x8c742b 7424             JZ 0x8c7451

************************************************************************
Hook mode: Usermode
Hook type: Inline/Trampoline
Process: 1088 (svchost.exe)
Victim module: WININET.dll (0x771b0000 - 0x77256000)
Function: WININET.dll!InternetReadFile at 0x771c9555
Hook address: 0x8c73d0
Hooking module: <unknown>

Disassembly(0):
0x771c9555 e976de6f89       JMP 0x8c73d0
0x771c955a 83ec24           SUB ESP, 0x24
0x771c955d 53               PUSH EBX
0x771c955e 33db             XOR EBX, EBX
0x771c9560 391d50982377     CMP [0x77239850], EBX
0x771c9566 57               PUSH EDI
0x771c9567 895df4           MOV [EBP-0xc], EBX
0x771c956a 895df8           MOV [EBP-0x8], EBX

Disassembly(1):
0x8c73d0 e863c7feff       CALL 0x8b3b38
0x8c73d5 33c0             XOR EAX, EAX
0x8c73d7 50               PUSH EAX
0x8c73d8 50               PUSH EAX
0x8c73d9 ff742418         PUSH DWORD [ESP+0x18]
0x8c73dd ff742418         PUSH DWORD [ESP+0x18]
0x8c73e1 ff742418         PUSH DWORD [ESP+0x18]
0x8c73e5 ff               DB 0xff
0x8c73e6 7424             JZ 0x8c740c

************************************************************************
Hook mode: Usermode
Hook type: Inline/Trampoline
Process: 1088 (svchost.exe)
Victim module: WININET.dll (0x771b0000 - 0x77256000)
Function: WININET.dll!InternetReadFileExA at 0x771f7e9a
Hook address: 0x8c73f2
Hooking module: <unknown>

Disassembly(0):
0x771f7e9a e953f56c89       JMP 0x8c73f2
0x771f7e9f 83ec20           SUB ESP, 0x20
0x771f7ea2 53               PUSH EBX
0x771f7ea3 56               PUSH ESI
0x771f7ea4 33c0             XOR EAX, EAX
0x771f7ea6 57               PUSH EDI
0x771f7ea7 33ff             XOR EDI, EDI
0x771f7ea9 40               INC EAX
0x771f7eaa 393d50982377     CMP [0x77239850], EDI
0x771f7eb0 89               DB 0x89
0x771f7eb1 7d               DB 0x7d

Disassembly(1):
0x8c73f2 e841c7feff       CALL 0x8b3b38
0x8c73f7 ff742410         PUSH DWORD [ESP+0x10]
0x8c73fb ff742410         PUSH DWORD [ESP+0x10]
0x8c73ff 6a00             PUSH 0x0
0x8c7401 6a00             PUSH 0x0
0x8c7403 ff742418         PUSH DWORD [ESP+0x18]
0x8c7407 ff               DB 0xff
0x8c7408 7424             JZ 0x8c742e

************************************************************************
Hook mode: Usermode
Hook type: Inline/Trampoline
Process: 1148 (svchost.exe)
Victim module: ntdll.dll (0x7c900000 - 0x7c9b0000)
Function: ntdll.dll!NtCreateThread at 0x7c90d7d2
Hook address: 0x9f3b47
Hooking module: <unknown>

Disassembly(0):
0x7c90d7d2 e970630e84       JMP 0x9f3b47
0x7c90d7d7 ba0003fe7f       MOV EDX, 0x7ffe0300
0x7c90d7dc ff12             CALL DWORD [EDX]
0x7c90d7de c22000           RET 0x20
0x7c90d7e1 90               NOP
0x7c90d7e2 90               NOP
0x7c90d7e3 90               NOP
0x7c90d7e4 90               NOP
0x7c90d7e5 90               NOP
0x7c90d7e6 90               NOP
0x7c90d7e7 b8               DB 0xb8
0x7c90d7e8 36               DB 0x36
0x7c90d7e9 00               DB 0x0

Disassembly(1):
0x9f3b47 55               PUSH EBP
0x9f3b48 8bec             MOV EBP, ESP
0x9f3b4a 83ec18           SUB ESP, 0x18
0x9f3b4d 53               PUSH EBX
0x9f3b4e 56               PUSH ESI
0x9f3b4f 57               PUSH EDI
0x9f3b50 8b7d14           MOV EDI, [EBP+0x14]
0x9f3b53 8d4514           LEA EAX, [EBP+0x14]
0x9f3b56 50               PUSH EAX
0x9f3b57 6a18             PUSH 0x18
0x9f3b59 8d45e8           LEA EAX, [EBP-0x18]
0x9f3b5c 50               PUSH EAX
0x9f3b5d 33f6             XOR ESI, ESI

************************************************************************
Hook mode: Usermode
Hook type: Inline/Trampoline
Process: 1148 (svchost.exe)
Victim module: ntdll.dll (0x7c900000 - 0x7c9b0000)
Function: ntdll.dll!NtQueryDirectoryFile at 0x7c90df5e
Hook address: 0x9f3ca5
Hooking module: <unknown>

Disassembly(0):
0x7c90df5e e9425d0e84       JMP 0x9f3ca5
0x7c90df63 ba0003fe7f       MOV EDX, 0x7ffe0300
0x7c90df68 ff12             CALL DWORD [EDX]
0x7c90df6a c22c00           RET 0x2c
0x7c90df6d 90               NOP
0x7c90df6e 90               NOP
0x7c90df6f 90               NOP
0x7c90df70 90               NOP
0x7c90df71 90               NOP
0x7c90df72 90               NOP
0x7c90df73 b8               DB 0xb8
0x7c90df74 92               XCHG EDX, EAX
0x7c90df75 00               DB 0x0

Disassembly(1):
0x9f3ca5 55               PUSH EBP
0x9f3ca6 8bec             MOV EBP, ESP
0x9f3ca8 e88bfeffff       CALL 0x9f3b38
0x9f3cad ff7530           PUSH DWORD [EBP+0x30]
0x9f3cb0 ff752c           PUSH DWORD [EBP+0x2c]
0x9f3cb3 ff7528           PUSH DWORD [EBP+0x28]
0x9f3cb6 ff7524           PUSH DWORD [EBP+0x24]
0x9f3cb9 ff7520           PUSH DWORD [EBP+0x20]
0x9f3cbc ff               DB 0xff

************************************************************************
Hook mode: Usermode
Hook type: Inline/Trampoline
Process: 1148 (svchost.exe)
Victim module: ntdll.dll (0x7c900000 - 0x7c9b0000)
Function: ntdll.dll!ZwCreateThread at 0x7c90d7d2
Hook address: 0x9f3b47
Hooking module: <unknown>

Disassembly(0):
0x7c90d7d2 e970630e84       JMP 0x9f3b47
0x7c90d7d7 ba0003fe7f       MOV EDX, 0x7ffe0300
0x7c90d7dc ff12             CALL DWORD [EDX]
0x7c90d7de c22000           RET 0x20
0x7c90d7e1 90               NOP
0x7c90d7e2 90               NOP
0x7c90d7e3 90               NOP
0x7c90d7e4 90               NOP
0x7c90d7e5 90               NOP
0x7c90d7e6 90               NOP
0x7c90d7e7 b8               DB 0xb8
0x7c90d7e8 36               DB 0x36
0x7c90d7e9 00               DB 0x0

Disassembly(1):
0x9f3b47 55               PUSH EBP
0x9f3b48 8bec             MOV EBP, ESP
0x9f3b4a 83ec18           SUB ESP, 0x18
0x9f3b4d 53               PUSH EBX
0x9f3b4e 56               PUSH ESI
0x9f3b4f 57               PUSH EDI
0x9f3b50 8b7d14           MOV EDI, [EBP+0x14]
0x9f3b53 8d4514           LEA EAX, [EBP+0x14]
0x9f3b56 50               PUSH EAX
0x9f3b57 6a18             PUSH 0x18
0x9f3b59 8d45e8           LEA EAX, [EBP-0x18]
0x9f3b5c 50               PUSH EAX
0x9f3b5d 33f6             XOR ESI, ESI

************************************************************************
Hook mode: Usermode
Hook type: Inline/Trampoline
Process: 1148 (svchost.exe)
Victim module: ntdll.dll (0x7c900000 - 0x7c9b0000)
Function: ntdll.dll!ZwQueryDirectoryFile at 0x7c90df5e
Hook address: 0x9f3ca5
Hooking module: <unknown>

Disassembly(0):
0x7c90df5e e9425d0e84       JMP 0x9f3ca5
0x7c90df63 ba0003fe7f       MOV EDX, 0x7ffe0300
0x7c90df68 ff12             CALL DWORD [EDX]
0x7c90df6a c22c00           RET 0x2c
0x7c90df6d 90               NOP
0x7c90df6e 90               NOP
0x7c90df6f 90               NOP
0x7c90df70 90               NOP
0x7c90df71 90               NOP
0x7c90df72 90               NOP
0x7c90df73 b8               DB 0xb8
0x7c90df74 92               XCHG EDX, EAX
0x7c90df75 00               DB 0x0

Disassembly(1):
0x9f3ca5 55               PUSH EBP
0x9f3ca6 8bec             MOV EBP, ESP
0x9f3ca8 e88bfeffff       CALL 0x9f3b38
0x9f3cad ff7530           PUSH DWORD [EBP+0x30]
0x9f3cb0 ff752c           PUSH DWORD [EBP+0x2c]
0x9f3cb3 ff7528           PUSH DWORD [EBP+0x28]
0x9f3cb6 ff7524           PUSH DWORD [EBP+0x24]
0x9f3cb9 ff7520           PUSH DWORD [EBP+0x20]
0x9f3cbc ff               DB 0xff

************************************************************************
Hook mode: Usermode
Hook type: Inline/Trampoline
Process: 1148 (svchost.exe)
Victim module: USER32.dll (0x77d40000 - 0x77dd0000)
Function: USER32.dll!BeginPaint at 0x77d4b4b1
Hook address: 0x9ffd3f
Hooking module: <unknown>

Disassembly(0):
0x77d4b4b1 e98948cb88       JMP 0x9ffd3f
0x77d4b4b6 ba0003fe7f       MOV EDX, 0x7ffe0300
0x77d4b4bb ff12             CALL DWORD [EDX]
0x77d4b4bd c20800           RET 0x8
0x77d4b4c0 90               NOP
0x77d4b4c1 90               NOP
0x77d4b4c2 90               NOP
0x77d4b4c3 90               NOP
0x77d4b4c4 90               NOP
0x77d4b4c5 e9               DB 0xe9
0x77d4b4c6 d7               XLAT BYTE [EBX+AL]
0x77d4b4c7 48               DEC EAX
0x77d4b4c8 cb               RETF

Disassembly(1):
0x9ffd3f 833d8427a100ff   CMP DWORD [0xa12784], -0x1
0x9ffd46 56               PUSH ESI
0x9ffd47 8b74240c         MOV ESI, [ESP+0xc]
0x9ffd4b 7540             JNZ 0x9ffd8d
0x9ffd4d 85f6             TEST ESI, ESI
0x9ffd4f 743c             JZ 0x9ffd8d
0x9ffd51 ff1510119f00     CALL DWORD [0x9f1110]

************************************************************************
Hook mode: Usermode
Hook type: Inline/Trampoline
Process: 1148 (svchost.exe)
Victim module: USER32.dll (0x77d40000 - 0x77dd0000)
Function: USER32.dll!DefWindowProcA at 0x77d4df6b
Hook address: 0x9ffe0c
Hooking module: <unknown>

Disassembly(0):
0x77d4df6b e99c1ecb88       JMP 0x9ffe0c
0x77d4df70 d477             AAM 0x77
0x77d4df72 e819a6ffff       CALL 0x77d48590
0x77d4df77 e890a6ffff       CALL 0x77d4860c
0x77d4df7c 833d6c00da7700   CMP DWORD [0x77da006c], 0x0

Disassembly(1):
0x9ffe0c 55               PUSH EBP
0x9ffe0d 8bec             MOV EBP, ESP
0x9ffe0f 833d8427a100ff   CMP DWORD [0xa12784], -0x1
0x9ffe16 56               PUSH ESI
0x9ffe17 8b750c           MOV ESI, [EBP+0xc]
0x9ffe1a 7512             JNZ 0x9ffe2e
0x9ffe1c 3b357826a100     CMP ESI, [0xa12678]
0x9ffe22 750a             JNZ 0x9ffe2e

************************************************************************
Hook mode: Usermode
Hook type: Inline/Trampoline
Process: 1148 (svchost.exe)
Victim module: USER32.dll (0x77d40000 - 0x77dd0000)
Function: USER32.dll!DefWindowProcW at 0x77d4b1e5
Hook address: 0x9ffdd0
Hooking module: <unknown>

Disassembly(0):
0x77d4b1e5 e9e64bcb88       JMP 0x9ffdd0
0x77d4b1ea d477             AAM 0x77
0x77d4b1ec e89fd3ffff       CALL 0x77d48590
0x77d4b1f1 e816d4ffff       CALL 0x77d4860c
0x77d4b1f6 833d6c00da7700   CMP DWORD [0x77da006c], 0x0

Disassembly(1):
0x9ffdd0 55               PUSH EBP
0x9ffdd1 8bec             MOV EBP, ESP
0x9ffdd3 833d8427a100ff   CMP DWORD [0xa12784], -0x1
0x9ffdda 56               PUSH ESI
0x9ffddb 8b750c           MOV ESI, [EBP+0xc]
0x9ffdde 7512             JNZ 0x9ffdf2
0x9ffde0 3b357826a100     CMP ESI, [0xa12678]
0x9ffde6 750a             JNZ 0x9ffdf2

************************************************************************
Hook mode: Usermode
Hook type: Inline/Trampoline
Process: 1148 (svchost.exe)
Victim module: USER32.dll (0x77d40000 - 0x77dd0000)
Function: USER32.dll!EndPaint at 0x77d4b4c5
Hook address: 0x9ffda1
Hooking module: <unknown>

Disassembly(0):
0x77d4b4c5 e9d748cb88       JMP 0x9ffda1
0x77d4b4ca ba0003fe7f       MOV EDX, 0x7ffe0300
0x77d4b4cf ff12             CALL DWORD [EDX]
0x77d4b4d1 c20800           RET 0x8
0x77d4b4d4 90               NOP
0x77d4b4d5 90               NOP
0x77d4b4d6 90               NOP
0x77d4b4d7 90               NOP
0x77d4b4d8 90               NOP
0x77d4b4d9 8bff             MOV EDI, EDI
0x77d4b4db 55               PUSH EBP
0x77d4b4dc 8b               DB 0x8b

Disassembly(1):
0x9ffda1 833d8427a100ff   CMP DWORD [0xa12784], -0x1
0x9ffda8 751b             JNZ 0x9ffdc5
0x9ffdaa 837c240800       CMP DWORD [ESP+0x8], 0x0
0x9ffdaf 7414             JZ 0x9ffdc5
0x9ffdb1 ff1510119f00     CALL DWORD [0x9f1110]
0x9ffdb7 39               DB 0x39
0x9ffdb8 05               DB 0x5

************************************************************************
Hook mode: Usermode
Hook type: Inline/Trampoline
Process: 1148 (svchost.exe)
Victim module: USER32.dll (0x77d40000 - 0x77dd0000)
Function: USER32.dll!GetClipboardData at 0x77d6fcb2
Hook address: 0xa04fd5
Hooking module: <unknown>

Disassembly(0):
0x77d6fcb2 e91e53c988       JMP 0xa04fd5
0x77d6fcb7 83ec2c           SUB ESP, 0x2c
0x77d6fcba 56               PUSH ESI
0x77d6fcbb 57               PUSH EDI
0x77d6fcbc 8d45d4           LEA EAX, [EBP-0x2c]
0x77d6fcbf 50               PUSH EAX
0x77d6fcc0 ff7508           PUSH DWORD [EBP+0x8]
0x77d6fcc3 e8e8000000       CALL 0x77d6fdb0
0x77d6fcc8 8bf0             MOV ESI, EAX

Disassembly(1):
0xa04fd5 55               PUSH EBP
0xa04fd6 8bec             MOV EBP, ESP
0xa04fd8 53               PUSH EBX
0xa04fd9 56               PUSH ESI
0xa04fda e859ebfeff       CALL 0x9f3b38
0xa04fdf 8b7508           MOV ESI, [EBP+0x8]
0xa04fe2 56               PUSH ESI
0xa04fe3 ff1560139f00     CALL DWORD [0x9f1360]
0xa04fe9 8bd8             MOV EBX, EAX
0xa04feb 85db             TEST EBX, EBX

************************************************************************
Hook mode: Usermode
Hook type: Inline/Trampoline
Process: 1148 (svchost.exe)
Victim module: USER32.dll (0x77d40000 - 0x77dd0000)
Function: USER32.dll!TranslateMessage at 0x77d48bce
Hook address: 0xa04ea0
Hooking module: <unknown>

Disassembly(0):
0x77d48bce e9cdc2cb88       JMP 0xa04ea0
0x77d48bd3 56               PUSH ESI
0x77d48bd4 8b7508           MOV ESI, [EBP+0x8]
0x77d48bd7 66817e08e500     CMP WORD [ESI+0x8], 0xe5
0x77d48bdd 0f84a77e0200     JZ 0x77d70a8a
0x77d48be3 6a00             PUSH 0x0
0x77d48be5 56               PUSH ESI

Disassembly(1):
0xa04ea0 55               PUSH EBP
0xa04ea1 8bec             MOV EBP, ESP
0xa04ea3 83e4f8           AND ESP, -0x8
0xa04ea6 81ec1c030000     SUB ESP, 0x31c
0xa04eac 53               PUSH EBX
0xa04ead 8b5d08           MOV EBX, [EBP+0x8]
0xa04eb0 56               PUSH ESI
0xa04eb1 57               PUSH EDI
0xa04eb2 85db             TEST EBX, EBX
0xa04eb4 0f               DB 0xf
0xa04eb5 8406             TEST [ESI], AL
0xa04eb7 01               DB 0x1

************************************************************************
Hook mode: Usermode
Hook type: Inline/Trampoline
Process: 1148 (svchost.exe)
Victim module: WS2_32.dll (0x71ab0000 - 0x71ac7000)
Function: WS2_32.dll!WSASend at 0x71ab6233
Hook address: 0xa0112c
Hooking module: <unknown>

Disassembly(0):
0x71ab6233 e9f4aef48e       JMP 0xa0112c
0x71ab6238 51               PUSH ECX
0x71ab6239 51               PUSH ECX
0x71ab623a 813d2840ac714894ab71 CMP DWORD [0x71ac4028], 0x71ab9448
0x71ab6244 56               PUSH ESI
0x71ab6245 0f847f540000     JZ 0x71abb6ca

Disassembly(1):
0xa0112c 55               PUSH EBP
0xa0112d 8bec             MOV EBP, ESP
0xa0112f 837d1000         CMP DWORD [EBP+0x10], 0x0
0xa01133 56               PUSH ESI
0xa01134 8b750c           MOV ESI, [EBP+0xc]
0xa01137 7615             JBE 0xa0114e
0xa01139 57               PUSH EDI
0xa0113a 8b7d10           MOV EDI, [EBP+0x10]
0xa0113d ff36             PUSH DWORD [ESI]
0xa0113f 8b4604           MOV EAX, [ESI+0x4]
0xa01142 ff               DB 0xff
0xa01143 75               DB 0x75

************************************************************************
Hook mode: Usermode
Hook type: Inline/Trampoline
Process: 1148 (svchost.exe)
Victim module: WS2_32.dll (0x71ab0000 - 0x71ac7000)
Function: WS2_32.dll!closesocket at 0x71ab9639
Hook address: 0xa010db
Hooking module: <unknown>

Disassembly(0):
0x71ab9639 e99d7af48e       JMP 0xa010db
0x71ab963e 51               PUSH ECX
0x71ab963f 813d2840ac714894ab71 CMP DWORD [0x71ac4028], 0x71ab9448
0x71ab9649 56               PUSH ESI
0x71ab964a 0f84aef3ffff     JZ 0x71ab89fe
0x71ab9650 e8               DB 0xe8

Disassembly(1):
0xa010db 56               PUSH ESI
0xa010dc bef426a100       MOV ESI, 0xa126f4
0xa010e1 56               PUSH ESI
0xa010e2 ff1574129f00     CALL DWORD [0x9f1274]
0xa010e8 ff742408         PUSH DWORD [ESP+0x8]
0xa010ec e859fcffff       CALL 0xa00d4a
0xa010f1 85c0             TEST EAX, EAX

************************************************************************
Hook mode: Usermode
Hook type: Inline/Trampoline
Process: 1148 (svchost.exe)
Victim module: WS2_32.dll (0x71ab0000 - 0x71ac7000)
Function: WS2_32.dll!send at 0x71ab428a
Hook address: 0xa0110f
Hooking module: <unknown>

Disassembly(0):
0x71ab428a e980cef48e       JMP 0xa0110f
0x71ab428f 83ec10           SUB ESP, 0x10
0x71ab4292 56               PUSH ESI
0x71ab4293 57               PUSH EDI
0x71ab4294 33ff             XOR EDI, EDI
0x71ab4296 813d2840ac714894ab71 CMP DWORD [0x71ac4028], 0x71ab9448
0x71ab42a0 0f               DB 0xf
0x71ab42a1 84               DB 0x84

Disassembly(1):
0xa0110f 55               PUSH EBP
0xa01110 8bec             MOV EBP, ESP
0xa01112 ff7510           PUSH DWORD [EBP+0x10]
0xa01115 8b450c           MOV EAX, [EBP+0xc]
0xa01118 ff7508           PUSH DWORD [EBP+0x8]
0xa0111b e838fdffff       CALL 0xa00e58
0xa01120 e8132affff       CALL 0x9f3b38
0xa01125 5d               POP EBP
0xa01126 ff               DB 0xff

************************************************************************
Hook mode: Usermode
Hook type: Inline/Trampoline
Process: 1148 (svchost.exe)
Victim module: WININET.dll (0x771b0000 - 0x77256000)
Function: WININET.dll!HttpQueryInfoA at 0x771c8c6a
Hook address: 0xa07477
Hooking module: <unknown>

Disassembly(0):
0x771c8c6a e908e88389       JMP 0xa07477
0x771c8c6f 1c77             SBB AL, 0x77
0x771c8c71 e8fc89feff       CALL 0x771b1672
0x771c8c76 33db             XOR EBX, EBX
0x771c8c78 895ddc           MOV [EBP-0x24], EBX
0x771c8c7b 895de4           MOV [EBP-0x1c], EBX
0x771c8c7e 39               DB 0x39
0x771c8c7f 1d               DB 0x1d
0x771c8c80 50               PUSH EAX
0x771c8c81 98               CWDE

Disassembly(1):
0xa07477 55               PUSH EBP
0xa07478 8bec             MOV EBP, ESP
0xa0747a 56               PUSH ESI
0xa0747b 57               PUSH EDI
0xa0747c bf6c27a100       MOV EDI, 0xa1276c
0xa07481 57               PUSH EDI
0xa07482 ff1574129f00     CALL DWORD [0x9f1274]
0xa07488 8b7508           MOV ESI, [EBP+0x8]
0xa0748b e8               DB 0xe8
0xa0748c 67e5ff           IN EAX, 0xff

************************************************************************
Hook mode: Usermode
Hook type: Inline/Trampoline
Process: 1148 (svchost.exe)
Victim module: WININET.dll (0x771b0000 - 0x77256000)
Function: WININET.dll!HttpSendRequestA at 0x771c76b8
Hook address: 0xa07366
Hooking module: <unknown>

Disassembly(0):
0x771c76b8 e9a9fc8389       JMP 0xa07366
0x771c76bd 6a13             PUSH 0x13
0x771c76bf 6a00             PUSH 0x0
0x771c76c1 ff7518           PUSH DWORD [EBP+0x18]
0x771c76c4 ff7514           PUSH DWORD [EBP+0x14]
0x771c76c7 ff7510           PUSH DWORD [EBP+0x10]
0x771c76ca ff750c           PUSH DWORD [EBP+0xc]
0x771c76cd ff7508           PUSH DWORD [EBP+0x8]

Disassembly(1):
0xa07366 55               PUSH EBP
0xa07367 8bec             MOV EBP, ESP
0xa07369 e8cac7feff       CALL 0x9f3b38
0xa0736e ff7510           PUSH DWORD [EBP+0x10]
0xa07371 8b4518           MOV EAX, [EBP+0x18]
0xa07374 ff750c           PUSH DWORD [EBP+0xc]
0xa07377 8b4d14           MOV ECX, [EBP+0x14]
0xa0737a ff7508           PUSH DWORD [EBP+0x8]
0xa0737d 6a               DB 0x6a

************************************************************************
Hook mode: Usermode
Hook type: Inline/Trampoline
Process: 1148 (svchost.exe)
Victim module: WININET.dll (0x771b0000 - 0x77256000)
Function: WININET.dll!HttpSendRequestExA at 0x7721190d
Hook address: 0xa073ac
Hooking module: <unknown>

Disassembly(0):
0x7721190d e99a5a7f89       JMP 0xa073ac
0x77211912 53               PUSH EBX
0x77211913 56               PUSH ESI
0x77211914 57               PUSH EDI
0x77211915 33db             XOR EBX, EBX
0x77211917 33c0             XOR EAX, EAX
0x77211919 33c9             XOR ECX, ECX
0x7721191b 33d2             XOR EDX, EDX
0x7721191d 33ff             XOR EDI, EDI
0x7721191f 395d10           CMP [EBP+0x10], EBX
0x77211922 7539             JNZ 0x7721195d
0x77211924 8b               DB 0x8b

Disassembly(1):
0xa073ac 55               PUSH EBP
0xa073ad 8bec             MOV EBP, ESP
0xa073af 53               PUSH EBX
0xa073b0 e883c7feff       CALL 0x9f3b38
0xa073b5 ff7518           PUSH DWORD [EBP+0x18]
0xa073b8 8b450c           MOV EAX, [EBP+0xc]
0xa073bb ff7514           PUSH DWORD [EBP+0x14]
0xa073be 8b5d08           MOV EBX, [EBP+0x8]
0xa073c1 ff7510           PUSH DWORD [EBP+0x10]

************************************************************************
Hook mode: Usermode
Hook type: Inline/Trampoline
Process: 1148 (svchost.exe)
Victim module: WININET.dll (0x771b0000 - 0x77256000)
Function: WININET.dll!HttpSendRequestExW at 0x771d53eb
Hook address: 0xa07388
Hooking module: <unknown>

Disassembly(0):
0x771d53eb e9981f8389       JMP 0xa07388
0x771d53f0 83ec14           SUB ESP, 0x14
0x771d53f3 53               PUSH EBX
0x771d53f4 56               PUSH ESI
0x771d53f5 33c0             XOR EAX, EAX
0x771d53f7 57               PUSH EDI
0x771d53f8 33d2             XOR EDX, EDX
0x771d53fa 33db             XOR EBX, EBX
0x771d53fc 33ff             XOR EDI, EDI
0x771d53fe 33c9             XOR ECX, ECX
0x771d5400 395508           CMP [EBP+0x8], EDX

Disassembly(1):
0xa07388 55               PUSH EBP
0xa07389 8bec             MOV EBP, ESP
0xa0738b 53               PUSH EBX
0xa0738c e8a7c7feff       CALL 0x9f3b38
0xa07391 ff7518           PUSH DWORD [EBP+0x18]
0xa07394 8b450c           MOV EAX, [EBP+0xc]
0xa07397 ff7514           PUSH DWORD [EBP+0x14]
0xa0739a 8b5d08           MOV EBX, [EBP+0x8]
0xa0739d ff7510           PUSH DWORD [EBP+0x10]

************************************************************************
Hook mode: Usermode
Hook type: Inline/Trampoline
Process: 1148 (svchost.exe)
Victim module: WININET.dll (0x771b0000 - 0x77256000)
Function: WININET.dll!HttpSendRequestW at 0x77211808
Hook address: 0xa07344
Hooking module: <unknown>

Disassembly(0):
0x77211808 e9375b7f89       JMP 0xa07344
0x7721180d 83ec14           SUB ESP, 0x14
0x77211810 53               PUSH EBX
0x77211811 33db             XOR EBX, EBX
0x77211813 56               PUSH ESI
0x77211814 33f6             XOR ESI, ESI
0x77211816 33c0             XOR EAX, EAX
0x77211818 395d08           CMP [EBP+0x8], EBX
0x7721181b 57               PUSH EDI
0x7721181c 895df8           MOV [EBP-0x8], EBX
0x7721181f 89               DB 0x89

Disassembly(1):
0xa07344 55               PUSH EBP
0xa07345 8bec             MOV EBP, ESP
0xa07347 e8ecc7feff       CALL 0x9f3b38
0xa0734c ff7510           PUSH DWORD [EBP+0x10]
0xa0734f 8b4518           MOV EAX, [EBP+0x18]
0xa07352 ff750c           PUSH DWORD [EBP+0xc]
0xa07355 8b4d14           MOV ECX, [EBP+0x14]
0xa07358 ff7508           PUSH DWORD [EBP+0x8]
0xa0735b 6a               DB 0x6a

************************************************************************
Hook mode: Usermode
Hook type: Inline/Trampoline
Process: 1148 (svchost.exe)
Victim module: WININET.dll (0x771b0000 - 0x77256000)
Function: WININET.dll!InternetCloseHandle at 0x771c61dc
Hook address: 0xa07438
Hooking module: <unknown>

Disassembly(0):
0x771c61dc e957128489       JMP 0xa07438
0x771c61e1 51               PUSH ECX
0x771c61e2 51               PUSH ECX
0x771c61e3 53               PUSH EBX
0x771c61e4 56               PUSH ESI
0x771c61e5 33db             XOR EBX, EBX
0x771c61e7 33f6             XOR ESI, ESI
0x771c61e9 f60544a3237701   TEST BYTE [0x7723a344], 0x1
0x771c61f0 895dfc           MOV [EBP-0x4], EBX
0x771c61f3 0f               DB 0xf

Disassembly(1):
0xa07438 53               PUSH EBX
0xa07439 56               PUSH ESI
0xa0743a 57               PUSH EDI
0xa0743b e8f8c6feff       CALL 0x9f3b38
0xa07440 8b742410         MOV ESI, [ESP+0x10]
0xa07444 56               PUSH ESI
0xa07445 ff153c149f00     CALL DWORD [0x9f143c]
0xa0744b bf6c27a100       MOV EDI, 0xa1276c

************************************************************************
Hook mode: Usermode
Hook type: Inline/Trampoline
Process: 1148 (svchost.exe)
Victim module: WININET.dll (0x771b0000 - 0x77256000)
Function: WININET.dll!InternetQueryDataAvailable at 0x771d325f
Hook address: 0xa07415
Hooking module: <unknown>

Disassembly(0):
0x771d325f e9b1418389       JMP 0xa07415
0x771d3264 83ec10           SUB ESP, 0x10
0x771d3267 53               PUSH EBX
0x771d3268 33db             XOR EBX, EBX
0x771d326a 391d50982377     CMP [0x77239850], EBX
0x771d3270 56               PUSH ESI
0x771d3271 57               PUSH EDI
0x771d3272 895dfc           MOV [EBP-0x4], EBX
0x771d3275 c7               DB 0xc7
0x771d3276 45               INC EBP

Disassembly(1):
0xa07415 e81ec7feff       CALL 0x9f3b38
0xa0741a ff742410         PUSH DWORD [ESP+0x10]
0xa0741e ff742410         PUSH DWORD [ESP+0x10]
0xa07422 ff742410         PUSH DWORD [ESP+0x10]
0xa07426 6a00             PUSH 0x0
0xa07428 6a00             PUSH 0x0
0xa0742a ff               DB 0xff
0xa0742b 7424             JZ 0xa07451

************************************************************************
Hook mode: Usermode
Hook type: Inline/Trampoline
Process: 1148 (svchost.exe)
Victim module: WININET.dll (0x771b0000 - 0x77256000)
Function: WININET.dll!InternetReadFile at 0x771c9555
Hook address: 0xa073d0
Hooking module: <unknown>

Disassembly(0):
0x771c9555 e976de8389       JMP 0xa073d0
0x771c955a 83ec24           SUB ESP, 0x24
0x771c955d 53               PUSH EBX
0x771c955e 33db             XOR EBX, EBX
0x771c9560 391d50982377     CMP [0x77239850], EBX
0x771c9566 57               PUSH EDI
0x771c9567 895df4           MOV [EBP-0xc], EBX
0x771c956a 895df8           MOV [EBP-0x8], EBX

Disassembly(1):
0xa073d0 e863c7feff       CALL 0x9f3b38
0xa073d5 33c0             XOR EAX, EAX
0xa073d7 50               PUSH EAX
0xa073d8 50               PUSH EAX
0xa073d9 ff742418         PUSH DWORD [ESP+0x18]
0xa073dd ff742418         PUSH DWORD [ESP+0x18]
0xa073e1 ff742418         PUSH DWORD [ESP+0x18]
0xa073e5 ff               DB 0xff
0xa073e6 7424             JZ 0xa0740c

************************************************************************
Hook mode: Usermode
Hook type: Inline/Trampoline
Process: 1148 (svchost.exe)
Victim module: WININET.dll (0x771b0000 - 0x77256000)
Function: WININET.dll!InternetReadFileExA at 0x771f7e9a
Hook address: 0xa073f2
Hooking module: <unknown>

Disassembly(0):
0x771f7e9a e953f58089       JMP 0xa073f2
0x771f7e9f 83ec20           SUB ESP, 0x20
0x771f7ea2 53               PUSH EBX
0x771f7ea3 56               PUSH ESI
0x771f7ea4 33c0             XOR EAX, EAX
0x771f7ea6 57               PUSH EDI
0x771f7ea7 33ff             XOR EDI, EDI
0x771f7ea9 40               INC EAX
0x771f7eaa 393d50982377     CMP [0x77239850], EDI
0x771f7eb0 89               DB 0x89
0x771f7eb1 7d               DB 0x7d

Disassembly(1):
0xa073f2 e841c7feff       CALL 0x9f3b38
0xa073f7 ff742410         PUSH DWORD [ESP+0x10]
0xa073fb ff742410         PUSH DWORD [ESP+0x10]
0xa073ff 6a00             PUSH 0x0
0xa07401 6a00             PUSH 0x0
0xa07403 ff742418         PUSH DWORD [ESP+0x18]
0xa07407 ff               DB 0xff
0xa07408 7424             JZ 0xa0742e

************************************************************************
Hook mode: Usermode
Hook type: Inline/Trampoline
Process: 1148 (svchost.exe)
Victim module: CRYPT32.dll (0x77a80000 - 0x77b14000)
Function: CRYPT32.dll!PFXImportCertStore at 0x77aef748
Hook address: 0x9f3692
Hooking module: <unknown>

Disassembly(0):
0x77aef748 e9453ff088       JMP 0x9f3692
0x77aef74d 83ec18           SUB ESP, 0x18
0x77aef750 53               PUSH EBX
0x77aef751 57               PUSH EDI
0x77aef752 33c0             XOR EAX, EAX
0x77aef754 8d7de8           LEA EDI, [EBP-0x18]
0x77aef757 33db             XOR EBX, EBX
0x77aef759 f74510dcefffef   TEST DWORD [EBP+0x10], 0xefffefdc

Disassembly(1):
0x9f3692 55               PUSH EBP
0x9f3693 8bec             MOV EBP, ESP
0x9f3695 81ec80000000     SUB ESP, 0x80
0x9f369b 53               PUSH EBX
0x9f369c 56               PUSH ESI
0x9f369d e896040000       CALL 0x9f3b38
0x9f36a2 ff7510           PUSH DWORD [EBP+0x10]
0x9f36a5 8b7508           MOV ESI, [EBP+0x8]
0x9f36a8 ff               DB 0xff
0x9f36a9 75               DB 0x75

************************************************************************
Hook mode: Usermode
Hook type: Inline/Trampoline
Process: 1432 (spoolsv.exe)
Victim module: ntdll.dll (0x7c900000 - 0x7c9b0000)
Function: ntdll.dll!NtCreateThread at 0x7c90d7d2
Hook address: 0x923b47
Hooking module: <unknown>

Disassembly(0):
0x7c90d7d2 e970630184       JMP 0x923b47
0x7c90d7d7 ba0003fe7f       MOV EDX, 0x7ffe0300
0x7c90d7dc ff12             CALL DWORD [EDX]
0x7c90d7de c22000           RET 0x20
0x7c90d7e1 90               NOP
0x7c90d7e2 90               NOP
0x7c90d7e3 90               NOP
0x7c90d7e4 90               NOP
0x7c90d7e5 90               NOP
0x7c90d7e6 90               NOP
0x7c90d7e7 b8               DB 0xb8
0x7c90d7e8 36               DB 0x36
0x7c90d7e9 00               DB 0x0

Disassembly(1):
0x923b47 55               PUSH EBP
0x923b48 8bec             MOV EBP, ESP
0x923b4a 83ec18           SUB ESP, 0x18
0x923b4d 53               PUSH EBX
0x923b4e 56               PUSH ESI
0x923b4f 57               PUSH EDI
0x923b50 8b7d14           MOV EDI, [EBP+0x14]
0x923b53 8d4514           LEA EAX, [EBP+0x14]
0x923b56 50               PUSH EAX
0x923b57 6a18             PUSH 0x18
0x923b59 8d45e8           LEA EAX, [EBP-0x18]
0x923b5c 50               PUSH EAX
0x923b5d 33f6             XOR ESI, ESI

************************************************************************
Hook mode: Usermode
Hook type: Inline/Trampoline
Process: 1432 (spoolsv.exe)
Victim module: ntdll.dll (0x7c900000 - 0x7c9b0000)
Function: ntdll.dll!NtQueryDirectoryFile at 0x7c90df5e
Hook address: 0x923ca5
Hooking module: <unknown>

Disassembly(0):
0x7c90df5e e9425d0184       JMP 0x923ca5
0x7c90df63 ba0003fe7f       MOV EDX, 0x7ffe0300
0x7c90df68 ff12             CALL DWORD [EDX]
0x7c90df6a c22c00           RET 0x2c
0x7c90df6d 90               NOP
0x7c90df6e 90               NOP
0x7c90df6f 90               NOP
0x7c90df70 90               NOP
0x7c90df71 90               NOP
0x7c90df72 90               NOP
0x7c90df73 b8               DB 0xb8
0x7c90df74 92               XCHG EDX, EAX
0x7c90df75 00               DB 0x0

Disassembly(1):
0x923ca5 55               PUSH EBP
0x923ca6 8bec             MOV EBP, ESP
0x923ca8 e88bfeffff       CALL 0x923b38
0x923cad ff7530           PUSH DWORD [EBP+0x30]
0x923cb0 ff752c           PUSH DWORD [EBP+0x2c]
0x923cb3 ff7528           PUSH DWORD [EBP+0x28]
0x923cb6 ff7524           PUSH DWORD [EBP+0x24]
0x923cb9 ff7520           PUSH DWORD [EBP+0x20]
0x923cbc ff               DB 0xff

************************************************************************
Hook mode: Usermode
Hook type: Inline/Trampoline
Process: 1432 (spoolsv.exe)
Victim module: ntdll.dll (0x7c900000 - 0x7c9b0000)
Function: ntdll.dll!ZwCreateThread at 0x7c90d7d2
Hook address: 0x923b47
Hooking module: <unknown>

Disassembly(0):
0x7c90d7d2 e970630184       JMP 0x923b47
0x7c90d7d7 ba0003fe7f       MOV EDX, 0x7ffe0300
0x7c90d7dc ff12             CALL DWORD [EDX]
0x7c90d7de c22000           RET 0x20
0x7c90d7e1 90               NOP
0x7c90d7e2 90               NOP
0x7c90d7e3 90               NOP
0x7c90d7e4 90               NOP
0x7c90d7e5 90               NOP
0x7c90d7e6 90               NOP
0x7c90d7e7 b8               DB 0xb8
0x7c90d7e8 36               DB 0x36
0x7c90d7e9 00               DB 0x0

Disassembly(1):
0x923b47 55               PUSH EBP
0x923b48 8bec             MOV EBP, ESP
0x923b4a 83ec18           SUB ESP, 0x18
0x923b4d 53               PUSH EBX
0x923b4e 56               PUSH ESI
0x923b4f 57               PUSH EDI
0x923b50 8b7d14           MOV EDI, [EBP+0x14]
0x923b53 8d4514           LEA EAX, [EBP+0x14]
0x923b56 50               PUSH EAX
0x923b57 6a18             PUSH 0x18
0x923b59 8d45e8           LEA EAX, [EBP-0x18]
0x923b5c 50               PUSH EAX
0x923b5d 33f6             XOR ESI, ESI

************************************************************************
Hook mode: Usermode
Hook type: Inline/Trampoline
Process: 1432 (spoolsv.exe)
Victim module: ntdll.dll (0x7c900000 - 0x7c9b0000)
Function: ntdll.dll!ZwQueryDirectoryFile at 0x7c90df5e
Hook address: 0x923ca5
Hooking module: <unknown>

Disassembly(0):
0x7c90df5e e9425d0184       JMP 0x923ca5
0x7c90df63 ba0003fe7f       MOV EDX, 0x7ffe0300
0x7c90df68 ff12             CALL DWORD [EDX]
0x7c90df6a c22c00           RET 0x2c
0x7c90df6d 90               NOP
0x7c90df6e 90               NOP
0x7c90df6f 90               NOP
0x7c90df70 90               NOP
0x7c90df71 90               NOP
0x7c90df72 90               NOP
0x7c90df73 b8               DB 0xb8
0x7c90df74 92               XCHG EDX, EAX
0x7c90df75 00               DB 0x0

Disassembly(1):
0x923ca5 55               PUSH EBP
0x923ca6 8bec             MOV EBP, ESP
0x923ca8 e88bfeffff       CALL 0x923b38
0x923cad ff7530           PUSH DWORD [EBP+0x30]
0x923cb0 ff752c           PUSH DWORD [EBP+0x2c]
0x923cb3 ff7528           PUSH DWORD [EBP+0x28]
0x923cb6 ff7524           PUSH DWORD [EBP+0x24]
0x923cb9 ff7520           PUSH DWORD [EBP+0x20]
0x923cbc ff               DB 0xff

************************************************************************
Hook mode: Usermode
Hook type: Inline/Trampoline
Process: 1432 (spoolsv.exe)
Victim module: USER32.dll (0x77d40000 - 0x77dd0000)
Function: USER32.dll!BeginPaint at 0x77d4b4b1
Hook address: 0x92fd3f
Hooking module: <unknown>

Disassembly(0):
0x77d4b4b1 e98948be88       JMP 0x92fd3f
0x77d4b4b6 ba0003fe7f       MOV EDX, 0x7ffe0300
0x77d4b4bb ff12             CALL DWORD [EDX]
0x77d4b4bd c20800           RET 0x8
0x77d4b4c0 90               NOP
0x77d4b4c1 90               NOP
0x77d4b4c2 90               NOP
0x77d4b4c3 90               NOP
0x77d4b4c4 90               NOP
0x77d4b4c5 e9               DB 0xe9
0x77d4b4c6 d7               XLAT BYTE [EBX+AL]
0x77d4b4c7 48               DEC EAX
0x77d4b4c8 be               DB 0xbe

Disassembly(1):
0x92fd3f 833d84279400ff   CMP DWORD [0x942784], -0x1
0x92fd46 56               PUSH ESI
0x92fd47 8b74240c         MOV ESI, [ESP+0xc]
0x92fd4b 7540             JNZ 0x92fd8d
0x92fd4d 85f6             TEST ESI, ESI
0x92fd4f 743c             JZ 0x92fd8d
0x92fd51 ff1510119200     CALL DWORD [0x921110]

************************************************************************
Hook mode: Usermode
Hook type: Inline/Trampoline
Process: 1432 (spoolsv.exe)
Victim module: USER32.dll (0x77d40000 - 0x77dd0000)
Function: USER32.dll!DefWindowProcA at 0x77d4df6b
Hook address: 0x92fe0c
Hooking module: <unknown>

Disassembly(0):
0x77d4df6b e99c1ebe88       JMP 0x92fe0c
0x77d4df70 d477             AAM 0x77
0x77d4df72 e819a6ffff       CALL 0x77d48590
0x77d4df77 e890a6ffff       CALL 0x77d4860c
0x77d4df7c 833d6c00da7700   CMP DWORD [0x77da006c], 0x0

Disassembly(1):
0x92fe0c 55               PUSH EBP
0x92fe0d 8bec             MOV EBP, ESP
0x92fe0f 833d84279400ff   CMP DWORD [0x942784], -0x1
0x92fe16 56               PUSH ESI
0x92fe17 8b750c           MOV ESI, [EBP+0xc]
0x92fe1a 7512             JNZ 0x92fe2e
0x92fe1c 3b3578269400     CMP ESI, [0x942678]
0x92fe22 750a             JNZ 0x92fe2e

************************************************************************
Hook mode: Usermode
Hook type: Inline/Trampoline
Process: 1432 (spoolsv.exe)
Victim module: USER32.dll (0x77d40000 - 0x77dd0000)
Function: USER32.dll!DefWindowProcW at 0x77d4b1e5
Hook address: 0x92fdd0
Hooking module: <unknown>

Disassembly(0):
0x77d4b1e5 e9e64bbe88       JMP 0x92fdd0
0x77d4b1ea d477             AAM 0x77
0x77d4b1ec e89fd3ffff       CALL 0x77d48590
0x77d4b1f1 e816d4ffff       CALL 0x77d4860c
0x77d4b1f6 833d6c00da7700   CMP DWORD [0x77da006c], 0x0

Disassembly(1):
0x92fdd0 55               PUSH EBP
0x92fdd1 8bec             MOV EBP, ESP
0x92fdd3 833d84279400ff   CMP DWORD [0x942784], -0x1
0x92fdda 56               PUSH ESI
0x92fddb 8b750c           MOV ESI, [EBP+0xc]
0x92fdde 7512             JNZ 0x92fdf2
0x92fde0 3b3578269400     CMP ESI, [0x942678]
0x92fde6 750a             JNZ 0x92fdf2

************************************************************************
Hook mode: Usermode
Hook type: Inline/Trampoline
Process: 1432 (spoolsv.exe)
Victim module: USER32.dll (0x77d40000 - 0x77dd0000)
Function: USER32.dll!EndPaint at 0x77d4b4c5
Hook address: 0x92fda1
Hooking module: <unknown>

Disassembly(0):
0x77d4b4c5 e9d748be88       JMP 0x92fda1
0x77d4b4ca ba0003fe7f       MOV EDX, 0x7ffe0300
0x77d4b4cf ff12             CALL DWORD [EDX]
0x77d4b4d1 c20800           RET 0x8
0x77d4b4d4 90               NOP
0x77d4b4d5 90               NOP
0x77d4b4d6 90               NOP
0x77d4b4d7 90               NOP
0x77d4b4d8 90               NOP
0x77d4b4d9 8bff             MOV EDI, EDI
0x77d4b4db 55               PUSH EBP
0x77d4b4dc 8b               DB 0x8b

Disassembly(1):
0x92fda1 833d84279400ff   CMP DWORD [0x942784], -0x1
0x92fda8 751b             JNZ 0x92fdc5
0x92fdaa 837c240800       CMP DWORD [ESP+0x8], 0x0
0x92fdaf 7414             JZ 0x92fdc5
0x92fdb1 ff1510119200     CALL DWORD [0x921110]
0x92fdb7 39               DB 0x39
0x92fdb8 05               DB 0x5

************************************************************************
Hook mode: Usermode
Hook type: Inline/Trampoline
Process: 1432 (spoolsv.exe)
Victim module: USER32.dll (0x77d40000 - 0x77dd0000)
Function: USER32.dll!GetClipboardData at 0x77d6fcb2
Hook address: 0x934fd5
Hooking module: <unknown>

Disassembly(0):
0x77d6fcb2 e91e53bc88       JMP 0x934fd5
0x77d6fcb7 83ec2c           SUB ESP, 0x2c
0x77d6fcba 56               PUSH ESI
0x77d6fcbb 57               PUSH EDI
0x77d6fcbc 8d45d4           LEA EAX, [EBP-0x2c]
0x77d6fcbf 50               PUSH EAX
0x77d6fcc0 ff7508           PUSH DWORD [EBP+0x8]
0x77d6fcc3 e8e8000000       CALL 0x77d6fdb0
0x77d6fcc8 8bf0             MOV ESI, EAX

Disassembly(1):
0x934fd5 55               PUSH EBP
0x934fd6 8bec             MOV EBP, ESP
0x934fd8 53               PUSH EBX
0x934fd9 56               PUSH ESI
0x934fda e859ebfeff       CALL 0x923b38
0x934fdf 8b7508           MOV ESI, [EBP+0x8]
0x934fe2 56               PUSH ESI
0x934fe3 ff1560139200     CALL DWORD [0x921360]
0x934fe9 8bd8             MOV EBX, EAX
0x934feb 85db             TEST EBX, EBX

************************************************************************
Hook mode: Usermode
Hook type: Inline/Trampoline
Process: 1432 (spoolsv.exe)
Victim module: USER32.dll (0x77d40000 - 0x77dd0000)
Function: USER32.dll!TranslateMessage at 0x77d48bce
Hook address: 0x934ea0
Hooking module: <unknown>

Disassembly(0):
0x77d48bce e9cdc2be88       JMP 0x934ea0
0x77d48bd3 56               PUSH ESI
0x77d48bd4 8b7508           MOV ESI, [EBP+0x8]
0x77d48bd7 66817e08e500     CMP WORD [ESI+0x8], 0xe5
0x77d48bdd 0f84a77e0200     JZ 0x77d70a8a
0x77d48be3 6a00             PUSH 0x0
0x77d48be5 56               PUSH ESI

Disassembly(1):
0x934ea0 55               PUSH EBP
0x934ea1 8bec             MOV EBP, ESP
0x934ea3 83e4f8           AND ESP, -0x8
0x934ea6 81ec1c030000     SUB ESP, 0x31c
0x934eac 53               PUSH EBX
0x934ead 8b5d08           MOV EBX, [EBP+0x8]
0x934eb0 56               PUSH ESI
0x934eb1 57               PUSH EDI
0x934eb2 85db             TEST EBX, EBX
0x934eb4 0f               DB 0xf
0x934eb5 8406             TEST [ESI], AL
0x934eb7 01               DB 0x1

************************************************************************
Hook mode: Usermode
Hook type: Inline/Trampoline
Process: 1432 (spoolsv.exe)
Victim module: WS2_32.dll (0x71ab0000 - 0x71ac7000)
Function: WS2_32.dll!WSASend at 0x71ab6233
Hook address: 0x93112c
Hooking module: <unknown>

Disassembly(0):
0x71ab6233 e9f4aee78e       JMP 0x93112c
0x71ab6238 51               PUSH ECX
0x71ab6239 51               PUSH ECX
0x71ab623a 813d2840ac714894ab71 CMP DWORD [0x71ac4028], 0x71ab9448
0x71ab6244 56               PUSH ESI
0x71ab6245 0f847f540000     JZ 0x71abb6ca

Disassembly(1):
0x93112c 55               PUSH EBP
0x93112d 8bec             MOV EBP, ESP
0x93112f 837d1000         CMP DWORD [EBP+0x10], 0x0
0x931133 56               PUSH ESI
0x931134 8b750c           MOV ESI, [EBP+0xc]
0x931137 7615             JBE 0x93114e
0x931139 57               PUSH EDI
0x93113a 8b7d10           MOV EDI, [EBP+0x10]
0x93113d ff36             PUSH DWORD [ESI]
0x93113f 8b4604           MOV EAX, [ESI+0x4]
0x931142 ff               DB 0xff
0x931143 75               DB 0x75

************************************************************************
Hook mode: Usermode
Hook type: Inline/Trampoline
Process: 1432 (spoolsv.exe)
Victim module: WS2_32.dll (0x71ab0000 - 0x71ac7000)
Function: WS2_32.dll!closesocket at 0x71ab9639
Hook address: 0x9310db
Hooking module: <unknown>

Disassembly(0):
0x71ab9639 e99d7ae78e       JMP 0x9310db
0x71ab963e 51               PUSH ECX
0x71ab963f 813d2840ac714894ab71 CMP DWORD [0x71ac4028], 0x71ab9448
0x71ab9649 56               PUSH ESI
0x71ab964a 0f84aef3ffff     JZ 0x71ab89fe
0x71ab9650 e8               DB 0xe8

Disassembly(1):
0x9310db 56               PUSH ESI
0x9310dc bef4269400       MOV ESI, 0x9426f4
0x9310e1 56               PUSH ESI
0x9310e2 ff1574129200     CALL DWORD [0x921274]
0x9310e8 ff742408         PUSH DWORD [ESP+0x8]
0x9310ec e859fcffff       CALL 0x930d4a
0x9310f1 85c0             TEST EAX, EAX

************************************************************************
Hook mode: Usermode
Hook type: Inline/Trampoline
Process: 1432 (spoolsv.exe)
Victim module: WS2_32.dll (0x71ab0000 - 0x71ac7000)
Function: WS2_32.dll!send at 0x71ab428a
Hook address: 0x93110f
Hooking module: <unknown>

Disassembly(0):
0x71ab428a e980cee78e       JMP 0x93110f
0x71ab428f 83ec10           SUB ESP, 0x10
0x71ab4292 56               PUSH ESI
0x71ab4293 57               PUSH EDI
0x71ab4294 33ff             XOR EDI, EDI
0x71ab4296 813d2840ac714894ab71 CMP DWORD [0x71ac4028], 0x71ab9448
0x71ab42a0 0f               DB 0xf
0x71ab42a1 84               DB 0x84

Disassembly(1):
0x93110f 55               PUSH EBP
0x931110 8bec             MOV EBP, ESP
0x931112 ff7510           PUSH DWORD [EBP+0x10]
0x931115 8b450c           MOV EAX, [EBP+0xc]
0x931118 ff7508           PUSH DWORD [EBP+0x8]
0x93111b e838fdffff       CALL 0x930e58
0x931120 e8132affff       CALL 0x923b38
0x931125 5d               POP EBP
0x931126 ff               DB 0xff

************************************************************************
Hook mode: Usermode
Hook type: Inline/Trampoline
Process: 1432 (spoolsv.exe)
Victim module: CRYPT32.dll (0x77a80000 - 0x77b14000)
Function: CRYPT32.dll!PFXImportCertStore at 0x77aef748
Hook address: 0x923692
Hooking module: <unknown>

Disassembly(0):
0x77aef748 e9453fe388       JMP 0x923692
0x77aef74d 83ec18           SUB ESP, 0x18
0x77aef750 53               PUSH EBX
0x77aef751 57               PUSH EDI
0x77aef752 33c0             XOR EAX, EAX
0x77aef754 8d7de8           LEA EDI, [EBP-0x18]
0x77aef757 33db             XOR EBX, EBX
0x77aef759 f74510dcefffef   TEST DWORD [EBP+0x10], 0xefffefdc

Disassembly(1):
0x923692 55               PUSH EBP
0x923693 8bec             MOV EBP, ESP
0x923695 81ec80000000     SUB ESP, 0x80
0x92369b 53               PUSH EBX
0x92369c 56               PUSH ESI
0x92369d e896040000       CALL 0x923b38
0x9236a2 ff7510           PUSH DWORD [EBP+0x10]
0x9236a5 8b7508           MOV ESI, [EBP+0x8]
0x9236a8 ff               DB 0xff
0x9236a9 75               DB 0x75

************************************************************************
Hook mode: Usermode
Hook type: Inline/Trampoline
Process: 1432 (spoolsv.exe)
Victim module: WININET.dll (0x771b0000 - 0x77256000)
Function: WININET.dll!HttpQueryInfoA at 0x771c8c6a
Hook address: 0x937477
Hooking module: <unknown>

Disassembly(0):
0x771c8c6a e908e87689       JMP 0x937477
0x771c8c6f 1c77             SBB AL, 0x77
0x771c8c71 e8fc89feff       CALL 0x771b1672
0x771c8c76 33db             XOR EBX, EBX
0x771c8c78 895ddc           MOV [EBP-0x24], EBX
0x771c8c7b 895de4           MOV [EBP-0x1c], EBX
0x771c8c7e 39               DB 0x39
0x771c8c7f 1d               DB 0x1d
0x771c8c80 50               PUSH EAX
0x771c8c81 98               CWDE

Disassembly(1):
0x937477 55               PUSH EBP
0x937478 8bec             MOV EBP, ESP
0x93747a 56               PUSH ESI
0x93747b 57               PUSH EDI
0x93747c bf6c279400       MOV EDI, 0x94276c
0x937481 57               PUSH EDI
0x937482 ff1574129200     CALL DWORD [0x921274]
0x937488 8b7508           MOV ESI, [EBP+0x8]
0x93748b e8               DB 0xe8
0x93748c 67e5ff           IN EAX, 0xff

************************************************************************
Hook mode: Usermode
Hook type: Inline/Trampoline
Process: 1432 (spoolsv.exe)
Victim module: WININET.dll (0x771b0000 - 0x77256000)
Function: WININET.dll!HttpSendRequestA at 0x771c76b8
Hook address: 0x937366
Hooking module: <unknown>

Disassembly(0):
0x771c76b8 e9a9fc7689       JMP 0x937366
0x771c76bd 6a13             PUSH 0x13
0x771c76bf 6a00             PUSH 0x0
0x771c76c1 ff7518           PUSH DWORD [EBP+0x18]
0x771c76c4 ff7514           PUSH DWORD [EBP+0x14]
0x771c76c7 ff7510           PUSH DWORD [EBP+0x10]
0x771c76ca ff750c           PUSH DWORD [EBP+0xc]
0x771c76cd ff7508           PUSH DWORD [EBP+0x8]

Disassembly(1):
0x937366 55               PUSH EBP
0x937367 8bec             MOV EBP, ESP
0x937369 e8cac7feff       CALL 0x923b38
0x93736e ff7510           PUSH DWORD [EBP+0x10]
0x937371 8b4518           MOV EAX, [EBP+0x18]
0x937374 ff750c           PUSH DWORD [EBP+0xc]
0x937377 8b4d14           MOV ECX, [EBP+0x14]
0x93737a ff7508           PUSH DWORD [EBP+0x8]
0x93737d 6a               DB 0x6a

************************************************************************
Hook mode: Usermode
Hook type: Inline/Trampoline
Process: 1432 (spoolsv.exe)
Victim module: WININET.dll (0x771b0000 - 0x77256000)
Function: WININET.dll!HttpSendRequestExA at 0x7721190d
Hook address: 0x9373ac
Hooking module: <unknown>

Disassembly(0):
0x7721190d e99a5a7289       JMP 0x9373ac
0x77211912 53               PUSH EBX
0x77211913 56               PUSH ESI
0x77211914 57               PUSH EDI
0x77211915 33db             XOR EBX, EBX
0x77211917 33c0             XOR EAX, EAX
0x77211919 33c9             XOR ECX, ECX
0x7721191b 33d2             XOR EDX, EDX
0x7721191d 33ff             XOR EDI, EDI
0x7721191f 395d10           CMP [EBP+0x10], EBX
0x77211922 7539             JNZ 0x7721195d
0x77211924 8b               DB 0x8b

Disassembly(1):
0x9373ac 55               PUSH EBP
0x9373ad 8bec             MOV EBP, ESP
0x9373af 53               PUSH EBX
0x9373b0 e883c7feff       CALL 0x923b38
0x9373b5 ff7518           PUSH DWORD [EBP+0x18]
0x9373b8 8b450c           MOV EAX, [EBP+0xc]
0x9373bb ff7514           PUSH DWORD [EBP+0x14]
0x9373be 8b5d08           MOV EBX, [EBP+0x8]
0x9373c1 ff7510           PUSH DWORD [EBP+0x10]

************************************************************************
Hook mode: Usermode
Hook type: Inline/Trampoline
Process: 1432 (spoolsv.exe)
Victim module: WININET.dll (0x771b0000 - 0x77256000)
Function: WININET.dll!HttpSendRequestExW at 0x771d53eb
Hook address: 0x937388
Hooking module: <unknown>

Disassembly(0):
0x771d53eb e9981f7689       JMP 0x937388
0x771d53f0 83ec14           SUB ESP, 0x14
0x771d53f3 53               PUSH EBX
0x771d53f4 56               PUSH ESI
0x771d53f5 33c0             XOR EAX, EAX
0x771d53f7 57               PUSH EDI
0x771d53f8 33d2             XOR EDX, EDX
0x771d53fa 33db             XOR EBX, EBX
0x771d53fc 33ff             XOR EDI, EDI
0x771d53fe 33c9             XOR ECX, ECX
0x771d5400 395508           CMP [EBP+0x8], EDX

Disassembly(1):
0x937388 55               PUSH EBP
0x937389 8bec             MOV EBP, ESP
0x93738b 53               PUSH EBX
0x93738c e8a7c7feff       CALL 0x923b38
0x937391 ff7518           PUSH DWORD [EBP+0x18]
0x937394 8b450c           MOV EAX, [EBP+0xc]
0x937397 ff7514           PUSH DWORD [EBP+0x14]
0x93739a 8b5d08           MOV EBX, [EBP+0x8]
0x93739d ff7510           PUSH DWORD [EBP+0x10]

************************************************************************
Hook mode: Usermode
Hook type: Inline/Trampoline
Process: 1432 (spoolsv.exe)
Victim module: WININET.dll (0x771b0000 - 0x77256000)
Function: WININET.dll!HttpSendRequestW at 0x77211808
Hook address: 0x937344
Hooking module: <unknown>

Disassembly(0):
0x77211808 e9375b7289       JMP 0x937344
0x7721180d 83ec14           SUB ESP, 0x14
0x77211810 53               PUSH EBX
0x77211811 33db             XOR EBX, EBX
0x77211813 56               PUSH ESI
0x77211814 33f6             XOR ESI, ESI
0x77211816 33c0             XOR EAX, EAX
0x77211818 395d08           CMP [EBP+0x8], EBX
0x7721181b 57               PUSH EDI
0x7721181c 895df8           MOV [EBP-0x8], EBX
0x7721181f 89               DB 0x89

Disassembly(1):
0x937344 55               PUSH EBP
0x937345 8bec             MOV EBP, ESP
0x937347 e8ecc7feff       CALL 0x923b38
0x93734c ff7510           PUSH DWORD [EBP+0x10]
0x93734f 8b4518           MOV EAX, [EBP+0x18]
0x937352 ff750c           PUSH DWORD [EBP+0xc]
0x937355 8b4d14           MOV ECX, [EBP+0x14]
0x937358 ff7508           PUSH DWORD [EBP+0x8]
0x93735b 6a               DB 0x6a

************************************************************************
Hook mode: Usermode
Hook type: Inline/Trampoline
Process: 1432 (spoolsv.exe)
Victim module: WININET.dll (0x771b0000 - 0x77256000)
Function: WININET.dll!InternetCloseHandle at 0x771c61dc
Hook address: 0x937438
Hooking module: <unknown>

Disassembly(0):
0x771c61dc e957127789       JMP 0x937438
0x771c61e1 51               PUSH ECX
0x771c61e2 51               PUSH ECX
0x771c61e3 53               PUSH EBX
0x771c61e4 56               PUSH ESI
0x771c61e5 33db             XOR EBX, EBX
0x771c61e7 33f6             XOR ESI, ESI
0x771c61e9 f60544a3237701   TEST BYTE [0x7723a344], 0x1
0x771c61f0 895dfc           MOV [EBP-0x4], EBX
0x771c61f3 0f               DB 0xf

Disassembly(1):
0x937438 53               PUSH EBX
0x937439 56               PUSH ESI
0x93743a 57               PUSH EDI
0x93743b e8f8c6feff       CALL 0x923b38
0x937440 8b742410         MOV ESI, [ESP+0x10]
0x937444 56               PUSH ESI
0x937445 ff153c149200     CALL DWORD [0x92143c]
0x93744b bf6c279400       MOV EDI, 0x94276c

************************************************************************
Hook mode: Usermode
Hook type: Inline/Trampoline
Process: 1432 (spoolsv.exe)
Victim module: WININET.dll (0x771b0000 - 0x77256000)
Function: WININET.dll!InternetQueryDataAvailable at 0x771d325f
Hook address: 0x937415
Hooking module: <unknown>

Disassembly(0):
0x771d325f e9b1417689       JMP 0x937415
0x771d3264 83ec10           SUB ESP, 0x10
0x771d3267 53               PUSH EBX
0x771d3268 33db             XOR EBX, EBX
0x771d326a 391d50982377     CMP [0x77239850], EBX
0x771d3270 56               PUSH ESI
0x771d3271 57               PUSH EDI
0x771d3272 895dfc           MOV [EBP-0x4], EBX
0x771d3275 c7               DB 0xc7
0x771d3276 45               INC EBP

Disassembly(1):
0x937415 e81ec7feff       CALL 0x923b38
0x93741a ff742410         PUSH DWORD [ESP+0x10]
0x93741e ff742410         PUSH DWORD [ESP+0x10]
0x937422 ff742410         PUSH DWORD [ESP+0x10]
0x937426 6a00             PUSH 0x0
0x937428 6a00             PUSH 0x0
0x93742a ff               DB 0xff
0x93742b 7424             JZ 0x937451

************************************************************************
Hook mode: Usermode
Hook type: Inline/Trampoline
Process: 1432 (spoolsv.exe)
Victim module: WININET.dll (0x771b0000 - 0x77256000)
Function: WININET.dll!InternetReadFile at 0x771c9555
Hook address: 0x9373d0
Hooking module: <unknown>

Disassembly(0):
0x771c9555 e976de7689       JMP 0x9373d0
0x771c955a 83ec24           SUB ESP, 0x24
0x771c955d 53               PUSH EBX
0x771c955e 33db             XOR EBX, EBX
0x771c9560 391d50982377     CMP [0x77239850], EBX
0x771c9566 57               PUSH EDI
0x771c9567 895df4           MOV [EBP-0xc], EBX
0x771c956a 895df8           MOV [EBP-0x8], EBX

Disassembly(1):
0x9373d0 e863c7feff       CALL 0x923b38
0x9373d5 33c0             XOR EAX, EAX
0x9373d7 50               PUSH EAX
0x9373d8 50               PUSH EAX
0x9373d9 ff742418         PUSH DWORD [ESP+0x18]
0x9373dd ff742418         PUSH DWORD [ESP+0x18]
0x9373e1 ff742418         PUSH DWORD [ESP+0x18]
0x9373e5 ff               DB 0xff
0x9373e6 7424             JZ 0x93740c

************************************************************************
Hook mode: Usermode
Hook type: Inline/Trampoline
Process: 1432 (spoolsv.exe)
Victim module: WININET.dll (0x771b0000 - 0x77256000)
Function: WININET.dll!InternetReadFileExA at 0x771f7e9a
Hook address: 0x9373f2
Hooking module: <unknown>

Disassembly(0):
0x771f7e9a e953f57389       JMP 0x9373f2
0x771f7e9f 83ec20           SUB ESP, 0x20
0x771f7ea2 53               PUSH EBX
0x771f7ea3 56               PUSH ESI
0x771f7ea4 33c0             XOR EAX, EAX
0x771f7ea6 57               PUSH EDI
0x771f7ea7 33ff             XOR EDI, EDI
0x771f7ea9 40               INC EAX
0x771f7eaa 393d50982377     CMP [0x77239850], EDI
0x771f7eb0 89               DB 0x89
0x771f7eb1 7d               DB 0x7d

Disassembly(1):
0x9373f2 e841c7feff       CALL 0x923b38
0x9373f7 ff742410         PUSH DWORD [ESP+0x10]
0x9373fb ff742410         PUSH DWORD [ESP+0x10]
0x9373ff 6a00             PUSH 0x0
0x937401 6a00             PUSH 0x0
0x937403 ff742418         PUSH DWORD [ESP+0x18]
0x937407 ff               DB 0xff
0x937408 7424             JZ 0x93742e

************************************************************************
Hook mode: Usermode
Hook type: Inline/Trampoline
Process: 1668 (vmtoolsd.exe)
Victim module: ntdll.dll (0x7c900000 - 0x7c9b0000)
Function: ntdll.dll!NtCreateThread at 0x7c90d7d2
Hook address: 0x15e3b47
Hooking module: <unknown>

Disassembly(0):
0x7c90d7d2 e97063cd84       JMP 0x15e3b47
0x7c90d7d7 ba0003fe7f       MOV EDX, 0x7ffe0300
0x7c90d7dc ff12             CALL DWORD [EDX]
0x7c90d7de c22000           RET 0x20
0x7c90d7e1 90               NOP
0x7c90d7e2 90               NOP
0x7c90d7e3 90               NOP
0x7c90d7e4 90               NOP
0x7c90d7e5 90               NOP
0x7c90d7e6 90               NOP
0x7c90d7e7 b8               DB 0xb8
0x7c90d7e8 36               DB 0x36
0x7c90d7e9 00               DB 0x0

Disassembly(1):
0x15e3b47 55               PUSH EBP
0x15e3b48 8bec             MOV EBP, ESP
0x15e3b4a 83ec18           SUB ESP, 0x18
0x15e3b4d 53               PUSH EBX
0x15e3b4e 56               PUSH ESI
0x15e3b4f 57               PUSH EDI
0x15e3b50 8b7d14           MOV EDI, [EBP+0x14]
0x15e3b53 8d4514           LEA EAX, [EBP+0x14]
0x15e3b56 50               PUSH EAX
0x15e3b57 6a18             PUSH 0x18
0x15e3b59 8d45e8           LEA EAX, [EBP-0x18]
0x15e3b5c 50               PUSH EAX
0x15e3b5d 33f6             XOR ESI, ESI

************************************************************************
Hook mode: Usermode
Hook type: Inline/Trampoline
Process: 1668 (vmtoolsd.exe)
Victim module: ntdll.dll (0x7c900000 - 0x7c9b0000)
Function: ntdll.dll!NtQueryDirectoryFile at 0x7c90df5e
Hook address: 0x15e3ca5
Hooking module: <unknown>

Disassembly(0):
0x7c90df5e e9425dcd84       JMP 0x15e3ca5
0x7c90df63 ba0003fe7f       MOV EDX, 0x7ffe0300
0x7c90df68 ff12             CALL DWORD [EDX]
0x7c90df6a c22c00           RET 0x2c
0x7c90df6d 90               NOP
0x7c90df6e 90               NOP
0x7c90df6f 90               NOP
0x7c90df70 90               NOP
0x7c90df71 90               NOP
0x7c90df72 90               NOP
0x7c90df73 b8               DB 0xb8
0x7c90df74 92               XCHG EDX, EAX
0x7c90df75 00               DB 0x0

Disassembly(1):
0x15e3ca5 55               PUSH EBP
0x15e3ca6 8bec             MOV EBP, ESP
0x15e3ca8 e88bfeffff       CALL 0x15e3b38
0x15e3cad ff7530           PUSH DWORD [EBP+0x30]
0x15e3cb0 ff752c           PUSH DWORD [EBP+0x2c]
0x15e3cb3 ff7528           PUSH DWORD [EBP+0x28]
0x15e3cb6 ff7524           PUSH DWORD [EBP+0x24]
0x15e3cb9 ff7520           PUSH DWORD [EBP+0x20]
0x15e3cbc ff               DB 0xff

************************************************************************
Hook mode: Usermode
Hook type: Inline/Trampoline
Process: 1668 (vmtoolsd.exe)
Victim module: ntdll.dll (0x7c900000 - 0x7c9b0000)
Function: ntdll.dll!ZwCreateThread at 0x7c90d7d2
Hook address: 0x15e3b47
Hooking module: <unknown>

Disassembly(0):
0x7c90d7d2 e97063cd84       JMP 0x15e3b47
0x7c90d7d7 ba0003fe7f       MOV EDX, 0x7ffe0300
0x7c90d7dc ff12             CALL DWORD [EDX]
0x7c90d7de c22000           RET 0x20
0x7c90d7e1 90               NOP
0x7c90d7e2 90               NOP
0x7c90d7e3 90               NOP
0x7c90d7e4 90               NOP
0x7c90d7e5 90               NOP
0x7c90d7e6 90               NOP
0x7c90d7e7 b8               DB 0xb8
0x7c90d7e8 36               DB 0x36
0x7c90d7e9 00               DB 0x0

Disassembly(1):
0x15e3b47 55               PUSH EBP
0x15e3b48 8bec             MOV EBP, ESP
0x15e3b4a 83ec18           SUB ESP, 0x18
0x15e3b4d 53               PUSH EBX
0x15e3b4e 56               PUSH ESI
0x15e3b4f 57               PUSH EDI
0x15e3b50 8b7d14           MOV EDI, [EBP+0x14]
0x15e3b53 8d4514           LEA EAX, [EBP+0x14]
0x15e3b56 50               PUSH EAX
0x15e3b57 6a18             PUSH 0x18
0x15e3b59 8d45e8           LEA EAX, [EBP-0x18]
0x15e3b5c 50               PUSH EAX
0x15e3b5d 33f6             XOR ESI, ESI

************************************************************************
Hook mode: Usermode
Hook type: Inline/Trampoline
Process: 1668 (vmtoolsd.exe)
Victim module: ntdll.dll (0x7c900000 - 0x7c9b0000)
Function: ntdll.dll!ZwQueryDirectoryFile at 0x7c90df5e
Hook address: 0x15e3ca5
Hooking module: <unknown>

Disassembly(0):
0x7c90df5e e9425dcd84       JMP 0x15e3ca5
0x7c90df63 ba0003fe7f       MOV EDX, 0x7ffe0300
0x7c90df68 ff12             CALL DWORD [EDX]
0x7c90df6a c22c00           RET 0x2c
0x7c90df6d 90               NOP
0x7c90df6e 90               NOP
0x7c90df6f 90               NOP
0x7c90df70 90               NOP
0x7c90df71 90               NOP
0x7c90df72 90               NOP
0x7c90df73 b8               DB 0xb8
0x7c90df74 92               XCHG EDX, EAX
0x7c90df75 00               DB 0x0

Disassembly(1):
0x15e3ca5 55               PUSH EBP
0x15e3ca6 8bec             MOV EBP, ESP
0x15e3ca8 e88bfeffff       CALL 0x15e3b38
0x15e3cad ff7530           PUSH DWORD [EBP+0x30]
0x15e3cb0 ff752c           PUSH DWORD [EBP+0x2c]
0x15e3cb3 ff7528           PUSH DWORD [EBP+0x28]
0x15e3cb6 ff7524           PUSH DWORD [EBP+0x24]
0x15e3cb9 ff7520           PUSH DWORD [EBP+0x20]
0x15e3cbc ff               DB 0xff

************************************************************************
Hook mode: Usermode
Hook type: Inline/Trampoline
Process: 1668 (vmtoolsd.exe)
Victim module: USER32.dll (0x77d40000 - 0x77dd0000)
Function: USER32.dll!BeginPaint at 0x77d4b4b1
Hook address: 0x15efd3f
Hooking module: <unknown>

Disassembly(0):
0x77d4b4b1 e989488a89       JMP 0x15efd3f
0x77d4b4b6 ba0003fe7f       MOV EDX, 0x7ffe0300
0x77d4b4bb ff12             CALL DWORD [EDX]
0x77d4b4bd c20800           RET 0x8
0x77d4b4c0 90               NOP
0x77d4b4c1 90               NOP
0x77d4b4c2 90               NOP
0x77d4b4c3 90               NOP
0x77d4b4c4 90               NOP
0x77d4b4c5 e9               DB 0xe9
0x77d4b4c6 d7               XLAT BYTE [EBX+AL]
0x77d4b4c7 48               DEC EAX
0x77d4b4c8 8a               DB 0x8a

Disassembly(1):
0x15efd3f 833d84276001ff   CMP DWORD [0x1602784], -0x1
0x15efd46 56               PUSH ESI
0x15efd47 8b74240c         MOV ESI, [ESP+0xc]
0x15efd4b 7540             JNZ 0x15efd8d
0x15efd4d 85f6             TEST ESI, ESI
0x15efd4f 743c             JZ 0x15efd8d
0x15efd51 ff1510115e01     CALL DWORD [0x15e1110]

************************************************************************
Hook mode: Usermode
Hook type: Inline/Trampoline
Process: 1668 (vmtoolsd.exe)
Victim module: USER32.dll (0x77d40000 - 0x77dd0000)
Function: USER32.dll!DefWindowProcA at 0x77d4df6b
Hook address: 0x15efe0c
Hooking module: <unknown>

Disassembly(0):
0x77d4df6b e99c1e8a89       JMP 0x15efe0c
0x77d4df70 d477             AAM 0x77
0x77d4df72 e819a6ffff       CALL 0x77d48590
0x77d4df77 e890a6ffff       CALL 0x77d4860c
0x77d4df7c 833d6c00da7700   CMP DWORD [0x77da006c], 0x0

Disassembly(1):
0x15efe0c 55               PUSH EBP
0x15efe0d 8bec             MOV EBP, ESP
0x15efe0f 833d84276001ff   CMP DWORD [0x1602784], -0x1
0x15efe16 56               PUSH ESI
0x15efe17 8b750c           MOV ESI, [EBP+0xc]
0x15efe1a 7512             JNZ 0x15efe2e
0x15efe1c 3b3578266001     CMP ESI, [0x1602678]
0x15efe22 750a             JNZ 0x15efe2e

************************************************************************
Hook mode: Usermode
Hook type: Inline/Trampoline
Process: 1668 (vmtoolsd.exe)
Victim module: USER32.dll (0x77d40000 - 0x77dd0000)
Function: USER32.dll!DefWindowProcW at 0x77d4b1e5
Hook address: 0x15efdd0
Hooking module: <unknown>

Disassembly(0):
0x77d4b1e5 e9e64b8a89       JMP 0x15efdd0
0x77d4b1ea d477             AAM 0x77
0x77d4b1ec e89fd3ffff       CALL 0x77d48590
0x77d4b1f1 e816d4ffff       CALL 0x77d4860c
0x77d4b1f6 833d6c00da7700   CMP DWORD [0x77da006c], 0x0

Disassembly(1):
0x15efdd0 55               PUSH EBP
0x15efdd1 8bec             MOV EBP, ESP
0x15efdd3 833d84276001ff   CMP DWORD [0x1602784], -0x1
0x15efdda 56               PUSH ESI
0x15efddb 8b750c           MOV ESI, [EBP+0xc]
0x15efdde 7512             JNZ 0x15efdf2
0x15efde0 3b3578266001     CMP ESI, [0x1602678]
0x15efde6 750a             JNZ 0x15efdf2

************************************************************************
Hook mode: Usermode
Hook type: Inline/Trampoline
Process: 1668 (vmtoolsd.exe)
Victim module: USER32.dll (0x77d40000 - 0x77dd0000)
Function: USER32.dll!EndPaint at 0x77d4b4c5
Hook address: 0x15efda1
Hooking module: <unknown>

Disassembly(0):
0x77d4b4c5 e9d7488a89       JMP 0x15efda1
0x77d4b4ca ba0003fe7f       MOV EDX, 0x7ffe0300
0x77d4b4cf ff12             CALL DWORD [EDX]
0x77d4b4d1 c20800           RET 0x8
0x77d4b4d4 90               NOP
0x77d4b4d5 90               NOP
0x77d4b4d6 90               NOP
0x77d4b4d7 90               NOP
0x77d4b4d8 90               NOP
0x77d4b4d9 8bff             MOV EDI, EDI
0x77d4b4db 55               PUSH EBP
0x77d4b4dc 8b               DB 0x8b

Disassembly(1):
0x15efda1 833d84276001ff   CMP DWORD [0x1602784], -0x1
0x15efda8 751b             JNZ 0x15efdc5
0x15efdaa 837c240800       CMP DWORD [ESP+0x8], 0x0
0x15efdaf 7414             JZ 0x15efdc5
0x15efdb1 ff1510115e01     CALL DWORD [0x15e1110]
0x15efdb7 39               DB 0x39
0x15efdb8 05               DB 0x5

************************************************************************
Hook mode: Usermode
Hook type: Inline/Trampoline
Process: 1668 (vmtoolsd.exe)
Victim module: USER32.dll (0x77d40000 - 0x77dd0000)
Function: USER32.dll!GetClipboardData at 0x77d6fcb2
Hook address: 0x15f4fd5
Hooking module: <unknown>

Disassembly(0):
0x77d6fcb2 e91e538889       JMP 0x15f4fd5
0x77d6fcb7 83ec2c           SUB ESP, 0x2c
0x77d6fcba 56               PUSH ESI
0x77d6fcbb 57               PUSH EDI
0x77d6fcbc 8d45d4           LEA EAX, [EBP-0x2c]
0x77d6fcbf 50               PUSH EAX
0x77d6fcc0 ff7508           PUSH DWORD [EBP+0x8]
0x77d6fcc3 e8e8000000       CALL 0x77d6fdb0
0x77d6fcc8 8bf0             MOV ESI, EAX

Disassembly(1):
0x15f4fd5 55               PUSH EBP
0x15f4fd6 8bec             MOV EBP, ESP
0x15f4fd8 53               PUSH EBX
0x15f4fd9 56               PUSH ESI
0x15f4fda e859ebfeff       CALL 0x15e3b38
0x15f4fdf 8b7508           MOV ESI, [EBP+0x8]
0x15f4fe2 56               PUSH ESI
0x15f4fe3 ff1560135e01     CALL DWORD [0x15e1360]
0x15f4fe9 8bd8             MOV EBX, EAX
0x15f4feb 85db             TEST EBX, EBX

************************************************************************
Hook mode: Usermode
Hook type: Inline/Trampoline
Process: 1668 (vmtoolsd.exe)
Victim module: USER32.dll (0x77d40000 - 0x77dd0000)
Function: USER32.dll!TranslateMessage at 0x77d48bce
Hook address: 0x15f4ea0
Hooking module: <unknown>

Disassembly(0):
0x77d48bce e9cdc28a89       JMP 0x15f4ea0
0x77d48bd3 56               PUSH ESI
0x77d48bd4 8b7508           MOV ESI, [EBP+0x8]
0x77d48bd7 66817e08e500     CMP WORD [ESI+0x8], 0xe5
0x77d48bdd 0f84a77e0200     JZ 0x77d70a8a
0x77d48be3 6a00             PUSH 0x0
0x77d48be5 56               PUSH ESI

Disassembly(1):
0x15f4ea0 55               PUSH EBP
0x15f4ea1 8bec             MOV EBP, ESP
0x15f4ea3 83e4f8           AND ESP, -0x8
0x15f4ea6 81ec1c030000     SUB ESP, 0x31c
0x15f4eac 53               PUSH EBX
0x15f4ead 8b5d08           MOV EBX, [EBP+0x8]
0x15f4eb0 56               PUSH ESI
0x15f4eb1 57               PUSH EDI
0x15f4eb2 85db             TEST EBX, EBX
0x15f4eb4 0f               DB 0xf
0x15f4eb5 8406             TEST [ESI], AL
0x15f4eb7 01               DB 0x1

************************************************************************
Hook mode: Usermode
Hook type: Inline/Trampoline
Process: 1668 (vmtoolsd.exe)
Victim module: WS2_32.dll (0x71ab0000 - 0x71ac7000)
Function: WS2_32.dll!WSASend at 0x71ab6233
Hook address: 0x15f112c
Hooking module: <unknown>

Disassembly(0):
0x71ab6233 e9f4aeb38f       JMP 0x15f112c
0x71ab6238 51               PUSH ECX
0x71ab6239 51               PUSH ECX
0x71ab623a 813d2840ac714894ab71 CMP DWORD [0x71ac4028], 0x71ab9448
0x71ab6244 56               PUSH ESI
0x71ab6245 0f847f540000     JZ 0x71abb6ca

Disassembly(1):
0x15f112c 55               PUSH EBP
0x15f112d 8bec             MOV EBP, ESP
0x15f112f 837d1000         CMP DWORD [EBP+0x10], 0x0
0x15f1133 56               PUSH ESI
0x15f1134 8b750c           MOV ESI, [EBP+0xc]
0x15f1137 7615             JBE 0x15f114e
0x15f1139 57               PUSH EDI
0x15f113a 8b7d10           MOV EDI, [EBP+0x10]
0x15f113d ff36             PUSH DWORD [ESI]
0x15f113f 8b4604           MOV EAX, [ESI+0x4]
0x15f1142 ff               DB 0xff
0x15f1143 75               DB 0x75

************************************************************************
Hook mode: Usermode
Hook type: Inline/Trampoline
Process: 1668 (vmtoolsd.exe)
Victim module: WS2_32.dll (0x71ab0000 - 0x71ac7000)
Function: WS2_32.dll!closesocket at 0x71ab9639
Hook address: 0x15f10db
Hooking module: <unknown>

Disassembly(0):
0x71ab9639 e99d7ab38f       JMP 0x15f10db
0x71ab963e 51               PUSH ECX
0x71ab963f 813d2840ac714894ab71 CMP DWORD [0x71ac4028], 0x71ab9448
0x71ab9649 56               PUSH ESI
0x71ab964a 0f84aef3ffff     JZ 0x71ab89fe
0x71ab9650 e8               DB 0xe8

Disassembly(1):
0x15f10db 56               PUSH ESI
0x15f10dc bef4266001       MOV ESI, 0x16026f4
0x15f10e1 56               PUSH ESI
0x15f10e2 ff1574125e01     CALL DWORD [0x15e1274]
0x15f10e8 ff742408         PUSH DWORD [ESP+0x8]
0x15f10ec e859fcffff       CALL 0x15f0d4a
0x15f10f1 85c0             TEST EAX, EAX

************************************************************************
Hook mode: Usermode
Hook type: Inline/Trampoline
Process: 1668 (vmtoolsd.exe)
Victim module: WS2_32.dll (0x71ab0000 - 0x71ac7000)
Function: WS2_32.dll!send at 0x71ab428a
Hook address: 0x15f110f
Hooking module: <unknown>

Disassembly(0):
0x71ab428a e980ceb38f       JMP 0x15f110f
0x71ab428f 83ec10           SUB ESP, 0x10
0x71ab4292 56               PUSH ESI
0x71ab4293 57               PUSH EDI
0x71ab4294 33ff             XOR EDI, EDI
0x71ab4296 813d2840ac714894ab71 CMP DWORD [0x71ac4028], 0x71ab9448
0x71ab42a0 0f               DB 0xf
0x71ab42a1 84               DB 0x84

Disassembly(1):
0x15f110f 55               PUSH EBP
0x15f1110 8bec             MOV EBP, ESP
0x15f1112 ff7510           PUSH DWORD [EBP+0x10]
0x15f1115 8b450c           MOV EAX, [EBP+0xc]
0x15f1118 ff7508           PUSH DWORD [EBP+0x8]
0x15f111b e838fdffff       CALL 0x15f0e58
0x15f1120 e8132affff       CALL 0x15e3b38
0x15f1125 5d               POP EBP
0x15f1126 ff               DB 0xff

************************************************************************
Hook mode: Usermode
Hook type: Inline/Trampoline
Process: 1668 (vmtoolsd.exe)
Victim module: CRYPT32.dll (0x77a80000 - 0x77b14000)
Function: CRYPT32.dll!PFXImportCertStore at 0x77aef748
Hook address: 0x15e3692
Hooking module: <unknown>

Disassembly(0):
0x77aef748 e9453faf89       JMP 0x15e3692
0x77aef74d 83ec18           SUB ESP, 0x18
0x77aef750 53               PUSH EBX
0x77aef751 57               PUSH EDI
0x77aef752 33c0             XOR EAX, EAX
0x77aef754 8d7de8           LEA EDI, [EBP-0x18]
0x77aef757 33db             XOR EBX, EBX
0x77aef759 f74510dcefffef   TEST DWORD [EBP+0x10], 0xefffefdc

Disassembly(1):
0x15e3692 55               PUSH EBP
0x15e3693 8bec             MOV EBP, ESP
0x15e3695 81ec80000000     SUB ESP, 0x80
0x15e369b 53               PUSH EBX
0x15e369c 56               PUSH ESI
0x15e369d e896040000       CALL 0x15e3b38
0x15e36a2 ff7510           PUSH DWORD [EBP+0x10]
0x15e36a5 8b7508           MOV ESI, [EBP+0x8]
0x15e36a8 ff               DB 0xff
0x15e36a9 75               DB 0x75

************************************************************************
Hook mode: Usermode
Hook type: Inline/Trampoline
Process: 1668 (vmtoolsd.exe)
Victim module: WININET.dll (0x771b0000 - 0x77256000)
Function: WININET.dll!HttpQueryInfoA at 0x771c8c6a
Hook address: 0x15f7477
Hooking module: <unknown>

Disassembly(0):
0x771c8c6a e908e8428a       JMP 0x15f7477
0x771c8c6f 1c77             SBB AL, 0x77
0x771c8c71 e8fc89feff       CALL 0x771b1672
0x771c8c76 33db             XOR EBX, EBX
0x771c8c78 895ddc           MOV [EBP-0x24], EBX
0x771c8c7b 895de4           MOV [EBP-0x1c], EBX
0x771c8c7e 39               DB 0x39
0x771c8c7f 1d               DB 0x1d
0x771c8c80 50               PUSH EAX
0x771c8c81 98               CWDE

Disassembly(1):
0x15f7477 55               PUSH EBP
0x15f7478 8bec             MOV EBP, ESP
0x15f747a 56               PUSH ESI
0x15f747b 57               PUSH EDI
0x15f747c bf6c276001       MOV EDI, 0x160276c
0x15f7481 57               PUSH EDI
0x15f7482 ff1574125e01     CALL DWORD [0x15e1274]
0x15f7488 8b7508           MOV ESI, [EBP+0x8]
0x15f748b e8               DB 0xe8
0x15f748c 67e5ff           IN EAX, 0xff

************************************************************************
Hook mode: Usermode
Hook type: Inline/Trampoline
Process: 1668 (vmtoolsd.exe)
Victim module: WININET.dll (0x771b0000 - 0x77256000)
Function: WININET.dll!HttpSendRequestA at 0x771c76b8
Hook address: 0x15f7366
Hooking module: <unknown>

Disassembly(0):
0x771c76b8 e9a9fc428a       JMP 0x15f7366
0x771c76bd 6a13             PUSH 0x13
0x771c76bf 6a00             PUSH 0x0
0x771c76c1 ff7518           PUSH DWORD [EBP+0x18]
0x771c76c4 ff7514           PUSH DWORD [EBP+0x14]
0x771c76c7 ff7510           PUSH DWORD [EBP+0x10]
0x771c76ca ff750c           PUSH DWORD [EBP+0xc]
0x771c76cd ff7508           PUSH DWORD [EBP+0x8]

Disassembly(1):
0x15f7366 55               PUSH EBP
0x15f7367 8bec             MOV EBP, ESP
0x15f7369 e8cac7feff       CALL 0x15e3b38
0x15f736e ff7510           PUSH DWORD [EBP+0x10]
0x15f7371 8b4518           MOV EAX, [EBP+0x18]
0x15f7374 ff750c           PUSH DWORD [EBP+0xc]
0x15f7377 8b4d14           MOV ECX, [EBP+0x14]
0x15f737a ff7508           PUSH DWORD [EBP+0x8]
0x15f737d 6a               DB 0x6a

************************************************************************
Hook mode: Usermode
Hook type: Inline/Trampoline
Process: 1668 (vmtoolsd.exe)
Victim module: WININET.dll (0x771b0000 - 0x77256000)
Function: WININET.dll!HttpSendRequestExA at 0x7721190d
Hook address: 0x15f73ac
Hooking module: <unknown>

Disassembly(0):
0x7721190d e99a5a3e8a       JMP 0x15f73ac
0x77211912 53               PUSH EBX
0x77211913 56               PUSH ESI
0x77211914 57               PUSH EDI
0x77211915 33db             XOR EBX, EBX
0x77211917 33c0             XOR EAX, EAX
0x77211919 33c9             XOR ECX, ECX
0x7721191b 33d2             XOR EDX, EDX
0x7721191d 33ff             XOR EDI, EDI
0x7721191f 395d10           CMP [EBP+0x10], EBX
0x77211922 7539             JNZ 0x7721195d
0x77211924 8b               DB 0x8b

Disassembly(1):
0x15f73ac 55               PUSH EBP
0x15f73ad 8bec             MOV EBP, ESP
0x15f73af 53               PUSH EBX
0x15f73b0 e883c7feff       CALL 0x15e3b38
0x15f73b5 ff7518           PUSH DWORD [EBP+0x18]
0x15f73b8 8b450c           MOV EAX, [EBP+0xc]
0x15f73bb ff7514           PUSH DWORD [EBP+0x14]
0x15f73be 8b5d08           MOV EBX, [EBP+0x8]
0x15f73c1 ff7510           PUSH DWORD [EBP+0x10]

************************************************************************
Hook mode: Usermode
Hook type: Inline/Trampoline
Process: 1668 (vmtoolsd.exe)
Victim module: WININET.dll (0x771b0000 - 0x77256000)
Function: WININET.dll!HttpSendRequestExW at 0x771d53eb
Hook address: 0x15f7388
Hooking module: <unknown>

Disassembly(0):
0x771d53eb e9981f428a       JMP 0x15f7388
0x771d53f0 83ec14           SUB ESP, 0x14
0x771d53f3 53               PUSH EBX
0x771d53f4 56               PUSH ESI
0x771d53f5 33c0             XOR EAX, EAX
0x771d53f7 57               PUSH EDI
0x771d53f8 33d2             XOR EDX, EDX
0x771d53fa 33db             XOR EBX, EBX
0x771d53fc 33ff             XOR EDI, EDI
0x771d53fe 33c9             XOR ECX, ECX
0x771d5400 395508           CMP [EBP+0x8], EDX

Disassembly(1):
0x15f7388 55               PUSH EBP
0x15f7389 8bec             MOV EBP, ESP
0x15f738b 53               PUSH EBX
0x15f738c e8a7c7feff       CALL 0x15e3b38
0x15f7391 ff7518           PUSH DWORD [EBP+0x18]
0x15f7394 8b450c           MOV EAX, [EBP+0xc]
0x15f7397 ff7514           PUSH DWORD [EBP+0x14]
0x15f739a 8b5d08           MOV EBX, [EBP+0x8]
0x15f739d ff7510           PUSH DWORD [EBP+0x10]

************************************************************************
Hook mode: Usermode
Hook type: Inline/Trampoline
Process: 1668 (vmtoolsd.exe)
Victim module: WININET.dll (0x771b0000 - 0x77256000)
Function: WININET.dll!HttpSendRequestW at 0x77211808
Hook address: 0x15f7344
Hooking module: <unknown>

Disassembly(0):
0x77211808 e9375b3e8a       JMP 0x15f7344
0x7721180d 83ec14           SUB ESP, 0x14
0x77211810 53               PUSH EBX
0x77211811 33db             XOR EBX, EBX
0x77211813 56               PUSH ESI
0x77211814 33f6             XOR ESI, ESI
0x77211816 33c0             XOR EAX, EAX
0x77211818 395d08           CMP [EBP+0x8], EBX
0x7721181b 57               PUSH EDI
0x7721181c 895df8           MOV [EBP-0x8], EBX
0x7721181f 89               DB 0x89

Disassembly(1):
0x15f7344 55               PUSH EBP
0x15f7345 8bec             MOV EBP, ESP
0x15f7347 e8ecc7feff       CALL 0x15e3b38
0x15f734c ff7510           PUSH DWORD [EBP+0x10]
0x15f734f 8b4518           MOV EAX, [EBP+0x18]
0x15f7352 ff750c           PUSH DWORD [EBP+0xc]
0x15f7355 8b4d14           MOV ECX, [EBP+0x14]
0x15f7358 ff7508           PUSH DWORD [EBP+0x8]
0x15f735b 6a               DB 0x6a

************************************************************************
Hook mode: Usermode
Hook type: Inline/Trampoline
Process: 1668 (vmtoolsd.exe)
Victim module: WININET.dll (0x771b0000 - 0x77256000)
Function: WININET.dll!InternetCloseHandle at 0x771c61dc
Hook address: 0x15f7438
Hooking module: <unknown>

Disassembly(0):
0x771c61dc e95712438a       JMP 0x15f7438
0x771c61e1 51               PUSH ECX
0x771c61e2 51               PUSH ECX
0x771c61e3 53               PUSH EBX
0x771c61e4 56               PUSH ESI
0x771c61e5 33db             XOR EBX, EBX
0x771c61e7 33f6             XOR ESI, ESI
0x771c61e9 f60544a3237701   TEST BYTE [0x7723a344], 0x1
0x771c61f0 895dfc           MOV [EBP-0x4], EBX
0x771c61f3 0f               DB 0xf

Disassembly(1):
0x15f7438 53               PUSH EBX
0x15f7439 56               PUSH ESI
0x15f743a 57               PUSH EDI
0x15f743b e8f8c6feff       CALL 0x15e3b38
0x15f7440 8b742410         MOV ESI, [ESP+0x10]
0x15f7444 56               PUSH ESI
0x15f7445 ff153c145e01     CALL DWORD [0x15e143c]
0x15f744b bf6c276001       MOV EDI, 0x160276c

************************************************************************
Hook mode: Usermode
Hook type: Inline/Trampoline
Process: 1668 (vmtoolsd.exe)
Victim module: WININET.dll (0x771b0000 - 0x77256000)
Function: WININET.dll!InternetQueryDataAvailable at 0x771d325f
Hook address: 0x15f7415
Hooking module: <unknown>

Disassembly(0):
0x771d325f e9b141428a       JMP 0x15f7415
0x771d3264 83ec10           SUB ESP, 0x10
0x771d3267 53               PUSH EBX
0x771d3268 33db             XOR EBX, EBX
0x771d326a 391d50982377     CMP [0x77239850], EBX
0x771d3270 56               PUSH ESI
0x771d3271 57               PUSH EDI
0x771d3272 895dfc           MOV [EBP-0x4], EBX
0x771d3275 c7               DB 0xc7
0x771d3276 45               INC EBP

Disassembly(1):
0x15f7415 e81ec7feff       CALL 0x15e3b38
0x15f741a ff742410         PUSH DWORD [ESP+0x10]
0x15f741e ff742410         PUSH DWORD [ESP+0x10]
0x15f7422 ff742410         PUSH DWORD [ESP+0x10]
0x15f7426 6a00             PUSH 0x0
0x15f7428 6a00             PUSH 0x0
0x15f742a ff               DB 0xff
0x15f742b 7424             JZ 0x15f7451

************************************************************************
Hook mode: Usermode
Hook type: Inline/Trampoline
Process: 1668 (vmtoolsd.exe)
Victim module: WININET.dll (0x771b0000 - 0x77256000)
Function: WININET.dll!InternetReadFile at 0x771c9555
Hook address: 0x15f73d0
Hooking module: <unknown>

Disassembly(0):
0x771c9555 e976de428a       JMP 0x15f73d0
0x771c955a 83ec24           SUB ESP, 0x24
0x771c955d 53               PUSH EBX
0x771c955e 33db             XOR EBX, EBX
0x771c9560 391d50982377     CMP [0x77239850], EBX
0x771c9566 57               PUSH EDI
0x771c9567 895df4           MOV [EBP-0xc], EBX
0x771c956a 895df8           MOV [EBP-0x8], EBX

Disassembly(1):
0x15f73d0 e863c7feff       CALL 0x15e3b38
0x15f73d5 33c0             XOR EAX, EAX
0x15f73d7 50               PUSH EAX
0x15f73d8 50               PUSH EAX
0x15f73d9 ff742418         PUSH DWORD [ESP+0x18]
0x15f73dd ff742418         PUSH DWORD [ESP+0x18]
0x15f73e1 ff742418         PUSH DWORD [ESP+0x18]
0x15f73e5 ff               DB 0xff
0x15f73e6 7424             JZ 0x15f740c

************************************************************************
Hook mode: Usermode
Hook type: Inline/Trampoline
Process: 1668 (vmtoolsd.exe)
Victim module: WININET.dll (0x771b0000 - 0x77256000)
Function: WININET.dll!InternetReadFileExA at 0x771f7e9a
Hook address: 0x15f73f2
Hooking module: <unknown>

Disassembly(0):
0x771f7e9a e953f53f8a       JMP 0x15f73f2
0x771f7e9f 83ec20           SUB ESP, 0x20
0x771f7ea2 53               PUSH EBX
0x771f7ea3 56               PUSH ESI
0x771f7ea4 33c0             XOR EAX, EAX
0x771f7ea6 57               PUSH EDI
0x771f7ea7 33ff             XOR EDI, EDI
0x771f7ea9 40               INC EAX
0x771f7eaa 393d50982377     CMP [0x77239850], EDI
0x771f7eb0 89               DB 0x89
0x771f7eb1 7d               DB 0x7d

Disassembly(1):
0x15f73f2 e841c7feff       CALL 0x15e3b38
0x15f73f7 ff742410         PUSH DWORD [ESP+0x10]
0x15f73fb ff742410         PUSH DWORD [ESP+0x10]
0x15f73ff 6a00             PUSH 0x0
0x15f7401 6a00             PUSH 0x0
0x15f7403 ff742418         PUSH DWORD [ESP+0x18]
0x15f7407 ff               DB 0xff
0x15f7408 7424             JZ 0x15f742e

************************************************************************
Hook mode: Usermode
Hook type: Inline/Trampoline
Process: 1788 (VMUpgradeHelper)
Victim module: ntdll.dll (0x7c900000 - 0x7c9b0000)
Function: ntdll.dll!NtCreateThread at 0x7c90d7d2
Hook address: 0x933b47
Hooking module: <unknown>

Disassembly(0):
0x7c90d7d2 e970630284       JMP 0x933b47
0x7c90d7d7 ba0003fe7f       MOV EDX, 0x7ffe0300
0x7c90d7dc ff12             CALL DWORD [EDX]
0x7c90d7de c22000           RET 0x20
0x7c90d7e1 90               NOP
0x7c90d7e2 90               NOP
0x7c90d7e3 90               NOP
0x7c90d7e4 90               NOP
0x7c90d7e5 90               NOP
0x7c90d7e6 90               NOP
0x7c90d7e7 b8               DB 0xb8
0x7c90d7e8 36               DB 0x36
0x7c90d7e9 00               DB 0x0

Disassembly(1):
0x933b47 55               PUSH EBP
0x933b48 8bec             MOV EBP, ESP
0x933b4a 83ec18           SUB ESP, 0x18
0x933b4d 53               PUSH EBX
0x933b4e 56               PUSH ESI
0x933b4f 57               PUSH EDI
0x933b50 8b7d14           MOV EDI, [EBP+0x14]
0x933b53 8d4514           LEA EAX, [EBP+0x14]
0x933b56 50               PUSH EAX
0x933b57 6a18             PUSH 0x18
0x933b59 8d45e8           LEA EAX, [EBP-0x18]
0x933b5c 50               PUSH EAX
0x933b5d 33f6             XOR ESI, ESI

************************************************************************
Hook mode: Usermode
Hook type: Inline/Trampoline
Process: 1788 (VMUpgradeHelper)
Victim module: ntdll.dll (0x7c900000 - 0x7c9b0000)
Function: ntdll.dll!NtQueryDirectoryFile at 0x7c90df5e
Hook address: 0x933ca5
Hooking module: <unknown>

Disassembly(0):
0x7c90df5e e9425d0284       JMP 0x933ca5
0x7c90df63 ba0003fe7f       MOV EDX, 0x7ffe0300
0x7c90df68 ff12             CALL DWORD [EDX]
0x7c90df6a c22c00           RET 0x2c
0x7c90df6d 90               NOP
0x7c90df6e 90               NOP
0x7c90df6f 90               NOP
0x7c90df70 90               NOP
0x7c90df71 90               NOP
0x7c90df72 90               NOP
0x7c90df73 b8               DB 0xb8
0x7c90df74 92               XCHG EDX, EAX
0x7c90df75 00               DB 0x0

Disassembly(1):
0x933ca5 55               PUSH EBP
0x933ca6 8bec             MOV EBP, ESP
0x933ca8 e88bfeffff       CALL 0x933b38
0x933cad ff7530           PUSH DWORD [EBP+0x30]
0x933cb0 ff752c           PUSH DWORD [EBP+0x2c]
0x933cb3 ff7528           PUSH DWORD [EBP+0x28]
0x933cb6 ff7524           PUSH DWORD [EBP+0x24]
0x933cb9 ff7520           PUSH DWORD [EBP+0x20]
0x933cbc ff               DB 0xff

************************************************************************
Hook mode: Usermode
Hook type: Inline/Trampoline
Process: 1788 (VMUpgradeHelper)
Victim module: ntdll.dll (0x7c900000 - 0x7c9b0000)
Function: ntdll.dll!ZwCreateThread at 0x7c90d7d2
Hook address: 0x933b47
Hooking module: <unknown>

Disassembly(0):
0x7c90d7d2 e970630284       JMP 0x933b47
0x7c90d7d7 ba0003fe7f       MOV EDX, 0x7ffe0300
0x7c90d7dc ff12             CALL DWORD [EDX]
0x7c90d7de c22000           RET 0x20
0x7c90d7e1 90               NOP
0x7c90d7e2 90               NOP
0x7c90d7e3 90               NOP
0x7c90d7e4 90               NOP
0x7c90d7e5 90               NOP
0x7c90d7e6 90               NOP
0x7c90d7e7 b8               DB 0xb8
0x7c90d7e8 36               DB 0x36
0x7c90d7e9 00               DB 0x0

Disassembly(1):
0x933b47 55               PUSH EBP
0x933b48 8bec             MOV EBP, ESP
0x933b4a 83ec18           SUB ESP, 0x18
0x933b4d 53               PUSH EBX
0x933b4e 56               PUSH ESI
0x933b4f 57               PUSH EDI
0x933b50 8b7d14           MOV EDI, [EBP+0x14]
0x933b53 8d4514           LEA EAX, [EBP+0x14]
0x933b56 50               PUSH EAX
0x933b57 6a18             PUSH 0x18
0x933b59 8d45e8           LEA EAX, [EBP-0x18]
0x933b5c 50               PUSH EAX
0x933b5d 33f6             XOR ESI, ESI

************************************************************************
Hook mode: Usermode
Hook type: Inline/Trampoline
Process: 1788 (VMUpgradeHelper)
Victim module: ntdll.dll (0x7c900000 - 0x7c9b0000)
Function: ntdll.dll!ZwQueryDirectoryFile at 0x7c90df5e
Hook address: 0x933ca5
Hooking module: <unknown>

Disassembly(0):
0x7c90df5e e9425d0284       JMP 0x933ca5
0x7c90df63 ba0003fe7f       MOV EDX, 0x7ffe0300
0x7c90df68 ff12             CALL DWORD [EDX]
0x7c90df6a c22c00           RET 0x2c
0x7c90df6d 90               NOP
0x7c90df6e 90               NOP
0x7c90df6f 90               NOP
0x7c90df70 90               NOP
0x7c90df71 90               NOP
0x7c90df72 90               NOP
0x7c90df73 b8               DB 0xb8
0x7c90df74 92               XCHG EDX, EAX
0x7c90df75 00               DB 0x0

Disassembly(1):
0x933ca5 55               PUSH EBP
0x933ca6 8bec             MOV EBP, ESP
0x933ca8 e88bfeffff       CALL 0x933b38
0x933cad ff7530           PUSH DWORD [EBP+0x30]
0x933cb0 ff752c           PUSH DWORD [EBP+0x2c]
0x933cb3 ff7528           PUSH DWORD [EBP+0x28]
0x933cb6 ff7524           PUSH DWORD [EBP+0x24]
0x933cb9 ff7520           PUSH DWORD [EBP+0x20]
0x933cbc ff               DB 0xff

************************************************************************
Hook mode: Usermode
Hook type: Inline/Trampoline
Process: 1788 (VMUpgradeHelper)
Victim module: USER32.dll (0x77d40000 - 0x77dd0000)
Function: USER32.dll!BeginPaint at 0x77d4b4b1
Hook address: 0x93fd3f
Hooking module: <unknown>

Disassembly(0):
0x77d4b4b1 e98948bf88       JMP 0x93fd3f
0x77d4b4b6 ba0003fe7f       MOV EDX, 0x7ffe0300
0x77d4b4bb ff12             CALL DWORD [EDX]
0x77d4b4bd c20800           RET 0x8
0x77d4b4c0 90               NOP
0x77d4b4c1 90               NOP
0x77d4b4c2 90               NOP
0x77d4b4c3 90               NOP
0x77d4b4c4 90               NOP
0x77d4b4c5 e9               DB 0xe9
0x77d4b4c6 d7               XLAT BYTE [EBX+AL]
0x77d4b4c7 48               DEC EAX
0x77d4b4c8 bf               DB 0xbf

Disassembly(1):
0x93fd3f 833d84279500ff   CMP DWORD [0x952784], -0x1
0x93fd46 56               PUSH ESI
0x93fd47 8b74240c         MOV ESI, [ESP+0xc]
0x93fd4b 7540             JNZ 0x93fd8d
0x93fd4d 85f6             TEST ESI, ESI
0x93fd4f 743c             JZ 0x93fd8d
0x93fd51 ff1510119300     CALL DWORD [0x931110]

************************************************************************
Hook mode: Usermode
Hook type: Inline/Trampoline
Process: 1788 (VMUpgradeHelper)
Victim module: USER32.dll (0x77d40000 - 0x77dd0000)
Function: USER32.dll!DefWindowProcA at 0x77d4df6b
Hook address: 0x93fe0c
Hooking module: <unknown>

Disassembly(0):
0x77d4df6b e99c1ebf88       JMP 0x93fe0c
0x77d4df70 d477             AAM 0x77
0x77d4df72 e819a6ffff       CALL 0x77d48590
0x77d4df77 e890a6ffff       CALL 0x77d4860c
0x77d4df7c 833d6c00da7700   CMP DWORD [0x77da006c], 0x0

Disassembly(1):
0x93fe0c 55               PUSH EBP
0x93fe0d 8bec             MOV EBP, ESP
0x93fe0f 833d84279500ff   CMP DWORD [0x952784], -0x1
0x93fe16 56               PUSH ESI
0x93fe17 8b750c           MOV ESI, [EBP+0xc]
0x93fe1a 7512             JNZ 0x93fe2e
0x93fe1c 3b3578269500     CMP ESI, [0x952678]
0x93fe22 750a             JNZ 0x93fe2e

************************************************************************
Hook mode: Usermode
Hook type: Inline/Trampoline
Process: 1788 (VMUpgradeHelper)
Victim module: USER32.dll (0x77d40000 - 0x77dd0000)
Function: USER32.dll!DefWindowProcW at 0x77d4b1e5
Hook address: 0x93fdd0
Hooking module: <unknown>

Disassembly(0):
0x77d4b1e5 e9e64bbf88       JMP 0x93fdd0
0x77d4b1ea d477             AAM 0x77
0x77d4b1ec e89fd3ffff       CALL 0x77d48590
0x77d4b1f1 e816d4ffff       CALL 0x77d4860c
0x77d4b1f6 833d6c00da7700   CMP DWORD [0x77da006c], 0x0

Disassembly(1):
0x93fdd0 55               PUSH EBP
0x93fdd1 8bec             MOV EBP, ESP
0x93fdd3 833d84279500ff   CMP DWORD [0x952784], -0x1
0x93fdda 56               PUSH ESI
0x93fddb 8b750c           MOV ESI, [EBP+0xc]
0x93fdde 7512             JNZ 0x93fdf2
0x93fde0 3b3578269500     CMP ESI, [0x952678]
0x93fde6 750a             JNZ 0x93fdf2

************************************************************************
Hook mode: Usermode
Hook type: Inline/Trampoline
Process: 1788 (VMUpgradeHelper)
Victim module: USER32.dll (0x77d40000 - 0x77dd0000)
Function: USER32.dll!EndPaint at 0x77d4b4c5
Hook address: 0x93fda1
Hooking module: <unknown>

Disassembly(0):
0x77d4b4c5 e9d748bf88       JMP 0x93fda1
0x77d4b4ca ba0003fe7f       MOV EDX, 0x7ffe0300
0x77d4b4cf ff12             CALL DWORD [EDX]
0x77d4b4d1 c20800           RET 0x8
0x77d4b4d4 90               NOP
0x77d4b4d5 90               NOP
0x77d4b4d6 90               NOP
0x77d4b4d7 90               NOP
0x77d4b4d8 90               NOP
0x77d4b4d9 8bff             MOV EDI, EDI
0x77d4b4db 55               PUSH EBP
0x77d4b4dc 8b               DB 0x8b

Disassembly(1):
0x93fda1 833d84279500ff   CMP DWORD [0x952784], -0x1
0x93fda8 751b             JNZ 0x93fdc5
0x93fdaa 837c240800       CMP DWORD [ESP+0x8], 0x0
0x93fdaf 7414             JZ 0x93fdc5
0x93fdb1 ff1510119300     CALL DWORD [0x931110]
0x93fdb7 39               DB 0x39
0x93fdb8 05               DB 0x5

************************************************************************
Hook mode: Usermode
Hook type: Inline/Trampoline
Process: 1788 (VMUpgradeHelper)
Victim module: USER32.dll (0x77d40000 - 0x77dd0000)
Function: USER32.dll!GetClipboardData at 0x77d6fcb2
Hook address: 0x944fd5
Hooking module: <unknown>

Disassembly(0):
0x77d6fcb2 e91e53bd88       JMP 0x944fd5
0x77d6fcb7 83ec2c           SUB ESP, 0x2c
0x77d6fcba 56               PUSH ESI
0x77d6fcbb 57               PUSH EDI
0x77d6fcbc 8d45d4           LEA EAX, [EBP-0x2c]
0x77d6fcbf 50               PUSH EAX
0x77d6fcc0 ff7508           PUSH DWORD [EBP+0x8]
0x77d6fcc3 e8e8000000       CALL 0x77d6fdb0
0x77d6fcc8 8bf0             MOV ESI, EAX

Disassembly(1):
0x944fd5 55               PUSH EBP
0x944fd6 8bec             MOV EBP, ESP
0x944fd8 53               PUSH EBX
0x944fd9 56               PUSH ESI
0x944fda e859ebfeff       CALL 0x933b38
0x944fdf 8b7508           MOV ESI, [EBP+0x8]
0x944fe2 56               PUSH ESI
0x944fe3 ff1560139300     CALL DWORD [0x931360]
0x944fe9 8bd8             MOV EBX, EAX
0x944feb 85db             TEST EBX, EBX

************************************************************************
Hook mode: Usermode
Hook type: Inline/Trampoline
Process: 1788 (VMUpgradeHelper)
Victim module: USER32.dll (0x77d40000 - 0x77dd0000)
Function: USER32.dll!TranslateMessage at 0x77d48bce
Hook address: 0x944ea0
Hooking module: <unknown>

Disassembly(0):
0x77d48bce e9cdc2bf88       JMP 0x944ea0
0x77d48bd3 56               PUSH ESI
0x77d48bd4 8b7508           MOV ESI, [EBP+0x8]
0x77d48bd7 66817e08e500     CMP WORD [ESI+0x8], 0xe5
0x77d48bdd 0f84a77e0200     JZ 0x77d70a8a
0x77d48be3 6a00             PUSH 0x0
0x77d48be5 56               PUSH ESI

Disassembly(1):
0x944ea0 55               PUSH EBP
0x944ea1 8bec             MOV EBP, ESP
0x944ea3 83e4f8           AND ESP, -0x8
0x944ea6 81ec1c030000     SUB ESP, 0x31c
0x944eac 53               PUSH EBX
0x944ead 8b5d08           MOV EBX, [EBP+0x8]
0x944eb0 56               PUSH ESI
0x944eb1 57               PUSH EDI
0x944eb2 85db             TEST EBX, EBX
0x944eb4 0f               DB 0xf
0x944eb5 8406             TEST [ESI], AL
0x944eb7 01               DB 0x1

************************************************************************
Hook mode: Usermode
Hook type: Inline/Trampoline
Process: 1788 (VMUpgradeHelper)
Victim module: WS2_32.dll (0x71ab0000 - 0x71ac7000)
Function: WS2_32.dll!WSASend at 0x71ab6233
Hook address: 0x94112c
Hooking module: <unknown>

Disassembly(0):
0x71ab6233 e9f4aee88e       JMP 0x94112c
0x71ab6238 51               PUSH ECX
0x71ab6239 51               PUSH ECX
0x71ab623a 813d2840ac714894ab71 CMP DWORD [0x71ac4028], 0x71ab9448
0x71ab6244 56               PUSH ESI
0x71ab6245 0f847f540000     JZ 0x71abb6ca

Disassembly(1):
0x94112c 55               PUSH EBP
0x94112d 8bec             MOV EBP, ESP
0x94112f 837d1000         CMP DWORD [EBP+0x10], 0x0
0x941133 56               PUSH ESI
0x941134 8b750c           MOV ESI, [EBP+0xc]
0x941137 7615             JBE 0x94114e
0x941139 57               PUSH EDI
0x94113a 8b7d10           MOV EDI, [EBP+0x10]
0x94113d ff36             PUSH DWORD [ESI]
0x94113f 8b4604           MOV EAX, [ESI+0x4]
0x941142 ff               DB 0xff
0x941143 75               DB 0x75

************************************************************************
Hook mode: Usermode
Hook type: Inline/Trampoline
Process: 1788 (VMUpgradeHelper)
Victim module: WS2_32.dll (0x71ab0000 - 0x71ac7000)
Function: WS2_32.dll!closesocket at 0x71ab9639
Hook address: 0x9410db
Hooking module: <unknown>

Disassembly(0):
0x71ab9639 e99d7ae88e       JMP 0x9410db
0x71ab963e 51               PUSH ECX
0x71ab963f 813d2840ac714894ab71 CMP DWORD [0x71ac4028], 0x71ab9448
0x71ab9649 56               PUSH ESI
0x71ab964a 0f84aef3ffff     JZ 0x71ab89fe
0x71ab9650 e8               DB 0xe8

Disassembly(1):
0x9410db 56               PUSH ESI
0x9410dc bef4269500       MOV ESI, 0x9526f4
0x9410e1 56               PUSH ESI
0x9410e2 ff1574129300     CALL DWORD [0x931274]
0x9410e8 ff742408         PUSH DWORD [ESP+0x8]
0x9410ec e859fcffff       CALL 0x940d4a
0x9410f1 85c0             TEST EAX, EAX

************************************************************************
Hook mode: Usermode
Hook type: Inline/Trampoline
Process: 1788 (VMUpgradeHelper)
Victim module: WS2_32.dll (0x71ab0000 - 0x71ac7000)
Function: WS2_32.dll!send at 0x71ab428a
Hook address: 0x94110f
Hooking module: <unknown>

Disassembly(0):
0x71ab428a e980cee88e       JMP 0x94110f
0x71ab428f 83ec10           SUB ESP, 0x10
0x71ab4292 56               PUSH ESI
0x71ab4293 57               PUSH EDI
0x71ab4294 33ff             XOR EDI, EDI
0x71ab4296 813d2840ac714894ab71 CMP DWORD [0x71ac4028], 0x71ab9448
0x71ab42a0 0f               DB 0xf
0x71ab42a1 84               DB 0x84

Disassembly(1):
0x94110f 55               PUSH EBP
0x941110 8bec             MOV EBP, ESP
0x941112 ff7510           PUSH DWORD [EBP+0x10]
0x941115 8b450c           MOV EAX, [EBP+0xc]
0x941118 ff7508           PUSH DWORD [EBP+0x8]
0x94111b e838fdffff       CALL 0x940e58
0x941120 e8132affff       CALL 0x933b38
0x941125 5d               POP EBP
0x941126 ff               DB 0xff

************************************************************************
Hook mode: Usermode
Hook type: Inline/Trampoline
Process: 1788 (VMUpgradeHelper)
Victim module: CRYPT32.dll (0x77a80000 - 0x77b14000)
Function: CRYPT32.dll!PFXImportCertStore at 0x77aef748
Hook address: 0x933692
Hooking module: <unknown>

Disassembly(0):
0x77aef748 e9453fe488       JMP 0x933692
0x77aef74d 83ec18           SUB ESP, 0x18
0x77aef750 53               PUSH EBX
0x77aef751 57               PUSH EDI
0x77aef752 33c0             XOR EAX, EAX
0x77aef754 8d7de8           LEA EDI, [EBP-0x18]
0x77aef757 33db             XOR EBX, EBX
0x77aef759 f74510dcefffef   TEST DWORD [EBP+0x10], 0xefffefdc

Disassembly(1):
0x933692 55               PUSH EBP
0x933693 8bec             MOV EBP, ESP
0x933695 81ec80000000     SUB ESP, 0x80
0x93369b 53               PUSH EBX
0x93369c 56               PUSH ESI
0x93369d e896040000       CALL 0x933b38
0x9336a2 ff7510           PUSH DWORD [EBP+0x10]
0x9336a5 8b7508           MOV ESI, [EBP+0x8]
0x9336a8 ff               DB 0xff
0x9336a9 75               DB 0x75

************************************************************************
Hook mode: Usermode
Hook type: Inline/Trampoline
Process: 1788 (VMUpgradeHelper)
Victim module: WININET.dll (0x771b0000 - 0x77256000)
Function: WININET.dll!HttpQueryInfoA at 0x771c8c6a
Hook address: 0x947477
Hooking module: <unknown>

Disassembly(0):
0x771c8c6a e908e87789       JMP 0x947477
0x771c8c6f 1c77             SBB AL, 0x77
0x771c8c71 e8fc89feff       CALL 0x771b1672
0x771c8c76 33db             XOR EBX, EBX
0x771c8c78 895ddc           MOV [EBP-0x24], EBX
0x771c8c7b 895de4           MOV [EBP-0x1c], EBX
0x771c8c7e 39               DB 0x39
0x771c8c7f 1d               DB 0x1d
0x771c8c80 50               PUSH EAX
0x771c8c81 98               CWDE

Disassembly(1):
0x947477 55               PUSH EBP
0x947478 8bec             MOV EBP, ESP
0x94747a 56               PUSH ESI
0x94747b 57               PUSH EDI
0x94747c bf6c279500       MOV EDI, 0x95276c
0x947481 57               PUSH EDI
0x947482 ff1574129300     CALL DWORD [0x931274]
0x947488 8b7508           MOV ESI, [EBP+0x8]
0x94748b e8               DB 0xe8
0x94748c 67e5ff           IN EAX, 0xff

************************************************************************
Hook mode: Usermode
Hook type: Inline/Trampoline
Process: 1788 (VMUpgradeHelper)
Victim module: WININET.dll (0x771b0000 - 0x77256000)
Function: WININET.dll!HttpSendRequestA at 0x771c76b8
Hook address: 0x947366
Hooking module: <unknown>

Disassembly(0):
0x771c76b8 e9a9fc7789       JMP 0x947366
0x771c76bd 6a13             PUSH 0x13
0x771c76bf 6a00             PUSH 0x0
0x771c76c1 ff7518           PUSH DWORD [EBP+0x18]
0x771c76c4 ff7514           PUSH DWORD [EBP+0x14]
0x771c76c7 ff7510           PUSH DWORD [EBP+0x10]
0x771c76ca ff750c           PUSH DWORD [EBP+0xc]
0x771c76cd ff7508           PUSH DWORD [EBP+0x8]

Disassembly(1):
0x947366 55               PUSH EBP
0x947367 8bec             MOV EBP, ESP
0x947369 e8cac7feff       CALL 0x933b38
0x94736e ff7510           PUSH DWORD [EBP+0x10]
0x947371 8b4518           MOV EAX, [EBP+0x18]
0x947374 ff750c           PUSH DWORD [EBP+0xc]
0x947377 8b4d14           MOV ECX, [EBP+0x14]
0x94737a ff7508           PUSH DWORD [EBP+0x8]
0x94737d 6a               DB 0x6a

************************************************************************
Hook mode: Usermode
Hook type: Inline/Trampoline
Process: 1788 (VMUpgradeHelper)
Victim module: WININET.dll (0x771b0000 - 0x77256000)
Function: WININET.dll!HttpSendRequestExA at 0x7721190d
Hook address: 0x9473ac
Hooking module: <unknown>

Disassembly(0):
0x7721190d e99a5a7389       JMP 0x9473ac
0x77211912 53               PUSH EBX
0x77211913 56               PUSH ESI
0x77211914 57               PUSH EDI
0x77211915 33db             XOR EBX, EBX
0x77211917 33c0             XOR EAX, EAX
0x77211919 33c9             XOR ECX, ECX
0x7721191b 33d2             XOR EDX, EDX
0x7721191d 33ff             XOR EDI, EDI
0x7721191f 395d10           CMP [EBP+0x10], EBX
0x77211922 7539             JNZ 0x7721195d
0x77211924 8b               DB 0x8b

Disassembly(1):
0x9473ac 55               PUSH EBP
0x9473ad 8bec             MOV EBP, ESP
0x9473af 53               PUSH EBX
0x9473b0 e883c7feff       CALL 0x933b38
0x9473b5 ff7518           PUSH DWORD [EBP+0x18]
0x9473b8 8b450c           MOV EAX, [EBP+0xc]
0x9473bb ff7514           PUSH DWORD [EBP+0x14]
0x9473be 8b5d08           MOV EBX, [EBP+0x8]
0x9473c1 ff7510           PUSH DWORD [EBP+0x10]

************************************************************************
Hook mode: Usermode
Hook type: Inline/Trampoline
Process: 1788 (VMUpgradeHelper)
Victim module: WININET.dll (0x771b0000 - 0x77256000)
Function: WININET.dll!HttpSendRequestExW at 0x771d53eb
Hook address: 0x947388
Hooking module: <unknown>

Disassembly(0):
0x771d53eb e9981f7789       JMP 0x947388
0x771d53f0 83ec14           SUB ESP, 0x14
0x771d53f3 53               PUSH EBX
0x771d53f4 56               PUSH ESI
0x771d53f5 33c0             XOR EAX, EAX
0x771d53f7 57               PUSH EDI
0x771d53f8 33d2             XOR EDX, EDX
0x771d53fa 33db             XOR EBX, EBX
0x771d53fc 33ff             XOR EDI, EDI
0x771d53fe 33c9             XOR ECX, ECX
0x771d5400 395508           CMP [EBP+0x8], EDX

Disassembly(1):
0x947388 55               PUSH EBP
0x947389 8bec             MOV EBP, ESP
0x94738b 53               PUSH EBX
0x94738c e8a7c7feff       CALL 0x933b38
0x947391 ff7518           PUSH DWORD [EBP+0x18]
0x947394 8b450c           MOV EAX, [EBP+0xc]
0x947397 ff7514           PUSH DWORD [EBP+0x14]
0x94739a 8b5d08           MOV EBX, [EBP+0x8]
0x94739d ff7510           PUSH DWORD [EBP+0x10]

************************************************************************
Hook mode: Usermode
Hook type: Inline/Trampoline
Process: 1788 (VMUpgradeHelper)
Victim module: WININET.dll (0x771b0000 - 0x77256000)
Function: WININET.dll!HttpSendRequestW at 0x77211808
Hook address: 0x947344
Hooking module: <unknown>

Disassembly(0):
0x77211808 e9375b7389       JMP 0x947344
0x7721180d 83ec14           SUB ESP, 0x14
0x77211810 53               PUSH EBX
0x77211811 33db             XOR EBX, EBX
0x77211813 56               PUSH ESI
0x77211814 33f6             XOR ESI, ESI
0x77211816 33c0             XOR EAX, EAX
0x77211818 395d08           CMP [EBP+0x8], EBX
0x7721181b 57               PUSH EDI
0x7721181c 895df8           MOV [EBP-0x8], EBX
0x7721181f 89               DB 0x89

Disassembly(1):
0x947344 55               PUSH EBP
0x947345 8bec             MOV EBP, ESP
0x947347 e8ecc7feff       CALL 0x933b38
0x94734c ff7510           PUSH DWORD [EBP+0x10]
0x94734f 8b4518           MOV EAX, [EBP+0x18]
0x947352 ff750c           PUSH DWORD [EBP+0xc]
0x947355 8b4d14           MOV ECX, [EBP+0x14]
0x947358 ff7508           PUSH DWORD [EBP+0x8]
0x94735b 6a               DB 0x6a

************************************************************************
Hook mode: Usermode
Hook type: Inline/Trampoline
Process: 1788 (VMUpgradeHelper)
Victim module: WININET.dll (0x771b0000 - 0x77256000)
Function: WININET.dll!InternetCloseHandle at 0x771c61dc
Hook address: 0x947438
Hooking module: <unknown>

Disassembly(0):
0x771c61dc e957127889       JMP 0x947438
0x771c61e1 51               PUSH ECX
0x771c61e2 51               PUSH ECX
0x771c61e3 53               PUSH EBX
0x771c61e4 56               PUSH ESI
0x771c61e5 33db             XOR EBX, EBX
0x771c61e7 33f6             XOR ESI, ESI
0x771c61e9 f60544a3237701   TEST BYTE [0x7723a344], 0x1
0x771c61f0 895dfc           MOV [EBP-0x4], EBX
0x771c61f3 0f               DB 0xf

Disassembly(1):
0x947438 53               PUSH EBX
0x947439 56               PUSH ESI
0x94743a 57               PUSH EDI
0x94743b e8f8c6feff       CALL 0x933b38
0x947440 8b742410         MOV ESI, [ESP+0x10]
0x947444 56               PUSH ESI
0x947445 ff153c149300     CALL DWORD [0x93143c]
0x94744b bf6c279500       MOV EDI, 0x95276c

************************************************************************
Hook mode: Usermode
Hook type: Inline/Trampoline
Process: 1788 (VMUpgradeHelper)
Victim module: WININET.dll (0x771b0000 - 0x77256000)
Function: WININET.dll!InternetQueryDataAvailable at 0x771d325f
Hook address: 0x947415
Hooking module: <unknown>

Disassembly(0):
0x771d325f e9b1417789       JMP 0x947415
0x771d3264 83ec10           SUB ESP, 0x10
0x771d3267 53               PUSH EBX
0x771d3268 33db             XOR EBX, EBX
0x771d326a 391d50982377     CMP [0x77239850], EBX
0x771d3270 56               PUSH ESI
0x771d3271 57               PUSH EDI
0x771d3272 895dfc           MOV [EBP-0x4], EBX
0x771d3275 c7               DB 0xc7
0x771d3276 45               INC EBP

Disassembly(1):
0x947415 e81ec7feff       CALL 0x933b38
0x94741a ff742410         PUSH DWORD [ESP+0x10]
0x94741e ff742410         PUSH DWORD [ESP+0x10]
0x947422 ff742410         PUSH DWORD [ESP+0x10]
0x947426 6a00             PUSH 0x0
0x947428 6a00             PUSH 0x0
0x94742a ff               DB 0xff
0x94742b 7424             JZ 0x947451

************************************************************************
Hook mode: Usermode
Hook type: Inline/Trampoline
Process: 1788 (VMUpgradeHelper)
Victim module: WININET.dll (0x771b0000 - 0x77256000)
Function: WININET.dll!InternetReadFile at 0x771c9555
Hook address: 0x9473d0
Hooking module: <unknown>

Disassembly(0):
0x771c9555 e976de7789       JMP 0x9473d0
0x771c955a 83ec24           SUB ESP, 0x24
0x771c955d 53               PUSH EBX
0x771c955e 33db             XOR EBX, EBX
0x771c9560 391d50982377     CMP [0x77239850], EBX
0x771c9566 57               PUSH EDI
0x771c9567 895df4           MOV [EBP-0xc], EBX
0x771c956a 895df8           MOV [EBP-0x8], EBX

Disassembly(1):
0x9473d0 e863c7feff       CALL 0x933b38
0x9473d5 33c0             XOR EAX, EAX
0x9473d7 50               PUSH EAX
0x9473d8 50               PUSH EAX
0x9473d9 ff742418         PUSH DWORD [ESP+0x18]
0x9473dd ff742418         PUSH DWORD [ESP+0x18]
0x9473e1 ff742418         PUSH DWORD [ESP+0x18]
0x9473e5 ff               DB 0xff
0x9473e6 7424             JZ 0x94740c

************************************************************************
Hook mode: Usermode
Hook type: Inline/Trampoline
Process: 1788 (VMUpgradeHelper)
Victim module: WININET.dll (0x771b0000 - 0x77256000)
Function: WININET.dll!InternetReadFileExA at 0x771f7e9a
Hook address: 0x9473f2
Hooking module: <unknown>

Disassembly(0):
0x771f7e9a e953f57489       JMP 0x9473f2
0x771f7e9f 83ec20           SUB ESP, 0x20
0x771f7ea2 53               PUSH EBX
0x771f7ea3 56               PUSH ESI
0x771f7ea4 33c0             XOR EAX, EAX
0x771f7ea6 57               PUSH EDI
0x771f7ea7 33ff             XOR EDI, EDI
0x771f7ea9 40               INC EAX
0x771f7eaa 393d50982377     CMP [0x77239850], EDI
0x771f7eb0 89               DB 0x89
0x771f7eb1 7d               DB 0x7d

Disassembly(1):
0x9473f2 e841c7feff       CALL 0x933b38
0x9473f7 ff742410         PUSH DWORD [ESP+0x10]
0x9473fb ff742410         PUSH DWORD [ESP+0x10]
0x9473ff 6a00             PUSH 0x0
0x947401 6a00             PUSH 0x0
0x947403 ff742418         PUSH DWORD [ESP+0x18]
0x947407 ff               DB 0xff
0x947408 7424             JZ 0x94742e

************************************************************************
Hook mode: Usermode
Hook type: Inline/Trampoline
Process: 1968 (TPAutoConnSvc.e)
Victim module: ntdll.dll (0x7c900000 - 0x7c9b0000)
Function: ntdll.dll!NtCreateThread at 0x7c90d7d2
Hook address: 0xdf3b47
Hooking module: <unknown>

Disassembly(0):
0x7c90d7d2 e970634e84       JMP 0xdf3b47
0x7c90d7d7 ba0003fe7f       MOV EDX, 0x7ffe0300
0x7c90d7dc ff12             CALL DWORD [EDX]
0x7c90d7de c22000           RET 0x20
0x7c90d7e1 90               NOP
0x7c90d7e2 90               NOP
0x7c90d7e3 90               NOP
0x7c90d7e4 90               NOP
0x7c90d7e5 90               NOP
0x7c90d7e6 90               NOP
0x7c90d7e7 b8               DB 0xb8
0x7c90d7e8 36               DB 0x36
0x7c90d7e9 00               DB 0x0

Disassembly(1):
0xdf3b47 55               PUSH EBP
0xdf3b48 8bec             MOV EBP, ESP
0xdf3b4a 83ec18           SUB ESP, 0x18
0xdf3b4d 53               PUSH EBX
0xdf3b4e 56               PUSH ESI
0xdf3b4f 57               PUSH EDI
0xdf3b50 8b7d14           MOV EDI, [EBP+0x14]
0xdf3b53 8d4514           LEA EAX, [EBP+0x14]
0xdf3b56 50               PUSH EAX
0xdf3b57 6a18             PUSH 0x18
0xdf3b59 8d45e8           LEA EAX, [EBP-0x18]
0xdf3b5c 50               PUSH EAX
0xdf3b5d 33f6             XOR ESI, ESI

************************************************************************
Hook mode: Usermode
Hook type: Inline/Trampoline
Process: 1968 (TPAutoConnSvc.e)
Victim module: ntdll.dll (0x7c900000 - 0x7c9b0000)
Function: ntdll.dll!NtQueryDirectoryFile at 0x7c90df5e
Hook address: 0xdf3ca5
Hooking module: <unknown>

Disassembly(0):
0x7c90df5e e9425d4e84       JMP 0xdf3ca5
0x7c90df63 ba0003fe7f       MOV EDX, 0x7ffe0300
0x7c90df68 ff12             CALL DWORD [EDX]
0x7c90df6a c22c00           RET 0x2c
0x7c90df6d 90               NOP
0x7c90df6e 90               NOP
0x7c90df6f 90               NOP
0x7c90df70 90               NOP
0x7c90df71 90               NOP
0x7c90df72 90               NOP
0x7c90df73 b8               DB 0xb8
0x7c90df74 92               XCHG EDX, EAX
0x7c90df75 00               DB 0x0

Disassembly(1):
0xdf3ca5 55               PUSH EBP
0xdf3ca6 8bec             MOV EBP, ESP
0xdf3ca8 e88bfeffff       CALL 0xdf3b38
0xdf3cad ff7530           PUSH DWORD [EBP+0x30]
0xdf3cb0 ff752c           PUSH DWORD [EBP+0x2c]
0xdf3cb3 ff7528           PUSH DWORD [EBP+0x28]
0xdf3cb6 ff7524           PUSH DWORD [EBP+0x24]
0xdf3cb9 ff7520           PUSH DWORD [EBP+0x20]
0xdf3cbc ff               DB 0xff

************************************************************************
Hook mode: Usermode
Hook type: Inline/Trampoline
Process: 1968 (TPAutoConnSvc.e)
Victim module: ntdll.dll (0x7c900000 - 0x7c9b0000)
Function: ntdll.dll!ZwCreateThread at 0x7c90d7d2
Hook address: 0xdf3b47
Hooking module: <unknown>

Disassembly(0):
0x7c90d7d2 e970634e84       JMP 0xdf3b47
0x7c90d7d7 ba0003fe7f       MOV EDX, 0x7ffe0300
0x7c90d7dc ff12             CALL DWORD [EDX]
0x7c90d7de c22000           RET 0x20
0x7c90d7e1 90               NOP
0x7c90d7e2 90               NOP
0x7c90d7e3 90               NOP
0x7c90d7e4 90               NOP
0x7c90d7e5 90               NOP
0x7c90d7e6 90               NOP
0x7c90d7e7 b8               DB 0xb8
0x7c90d7e8 36               DB 0x36
0x7c90d7e9 00               DB 0x0

Disassembly(1):
0xdf3b47 55               PUSH EBP
0xdf3b48 8bec             MOV EBP, ESP
0xdf3b4a 83ec18           SUB ESP, 0x18
0xdf3b4d 53               PUSH EBX
0xdf3b4e 56               PUSH ESI
0xdf3b4f 57               PUSH EDI
0xdf3b50 8b7d14           MOV EDI, [EBP+0x14]
0xdf3b53 8d4514           LEA EAX, [EBP+0x14]
0xdf3b56 50               PUSH EAX
0xdf3b57 6a18             PUSH 0x18
0xdf3b59 8d45e8           LEA EAX, [EBP-0x18]
0xdf3b5c 50               PUSH EAX
0xdf3b5d 33f6             XOR ESI, ESI

************************************************************************
Hook mode: Usermode
Hook type: Inline/Trampoline
Process: 1968 (TPAutoConnSvc.e)
Victim module: ntdll.dll (0x7c900000 - 0x7c9b0000)
Function: ntdll.dll!ZwQueryDirectoryFile at 0x7c90df5e
Hook address: 0xdf3ca5
Hooking module: <unknown>

Disassembly(0):
0x7c90df5e e9425d4e84       JMP 0xdf3ca5
0x7c90df63 ba0003fe7f       MOV EDX, 0x7ffe0300
0x7c90df68 ff12             CALL DWORD [EDX]
0x7c90df6a c22c00           RET 0x2c
0x7c90df6d 90               NOP
0x7c90df6e 90               NOP
0x7c90df6f 90               NOP
0x7c90df70 90               NOP
0x7c90df71 90               NOP
0x7c90df72 90               NOP
0x7c90df73 b8               DB 0xb8
0x7c90df74 92               XCHG EDX, EAX
0x7c90df75 00               DB 0x0

Disassembly(1):
0xdf3ca5 55               PUSH EBP
0xdf3ca6 8bec             MOV EBP, ESP
0xdf3ca8 e88bfeffff       CALL 0xdf3b38
0xdf3cad ff7530           PUSH DWORD [EBP+0x30]
0xdf3cb0 ff752c           PUSH DWORD [EBP+0x2c]
0xdf3cb3 ff7528           PUSH DWORD [EBP+0x28]
0xdf3cb6 ff7524           PUSH DWORD [EBP+0x24]
0xdf3cb9 ff7520           PUSH DWORD [EBP+0x20]
0xdf3cbc ff               DB 0xff

************************************************************************
Hook mode: Usermode
Hook type: Inline/Trampoline
Process: 1968 (TPAutoConnSvc.e)
Victim module: USER32.dll (0x77d40000 - 0x77dd0000)
Function: USER32.dll!BeginPaint at 0x77d4b4b1
Hook address: 0xdffd3f
Hooking module: <unknown>

Disassembly(0):
0x77d4b4b1 e989480b89       JMP 0xdffd3f
0x77d4b4b6 ba0003fe7f       MOV EDX, 0x7ffe0300
0x77d4b4bb ff12             CALL DWORD [EDX]
0x77d4b4bd c20800           RET 0x8
0x77d4b4c0 90               NOP
0x77d4b4c1 90               NOP
0x77d4b4c2 90               NOP
0x77d4b4c3 90               NOP
0x77d4b4c4 90               NOP
0x77d4b4c5 e9               DB 0xe9
0x77d4b4c6 d7               XLAT BYTE [EBX+AL]
0x77d4b4c7 48               DEC EAX
0x77d4b4c8 0b               DB 0xb

Disassembly(1):
0xdffd3f 833d8427e100ff   CMP DWORD [0xe12784], -0x1
0xdffd46 56               PUSH ESI
0xdffd47 8b74240c         MOV ESI, [ESP+0xc]
0xdffd4b 7540             JNZ 0xdffd8d
0xdffd4d 85f6             TEST ESI, ESI
0xdffd4f 743c             JZ 0xdffd8d
0xdffd51 ff151011df00     CALL DWORD [0xdf1110]

************************************************************************
Hook mode: Usermode
Hook type: Inline/Trampoline
Process: 1968 (TPAutoConnSvc.e)
Victim module: USER32.dll (0x77d40000 - 0x77dd0000)
Function: USER32.dll!DefWindowProcA at 0x77d4df6b
Hook address: 0xdffe0c
Hooking module: <unknown>

Disassembly(0):
0x77d4df6b e99c1e0b89       JMP 0xdffe0c
0x77d4df70 d477             AAM 0x77
0x77d4df72 e819a6ffff       CALL 0x77d48590
0x77d4df77 e890a6ffff       CALL 0x77d4860c
0x77d4df7c 833d6c00da7700   CMP DWORD [0x77da006c], 0x0

Disassembly(1):
0xdffe0c 55               PUSH EBP
0xdffe0d 8bec             MOV EBP, ESP
0xdffe0f 833d8427e100ff   CMP DWORD [0xe12784], -0x1
0xdffe16 56               PUSH ESI
0xdffe17 8b750c           MOV ESI, [EBP+0xc]
0xdffe1a 7512             JNZ 0xdffe2e
0xdffe1c 3b357826e100     CMP ESI, [0xe12678]
0xdffe22 750a             JNZ 0xdffe2e

************************************************************************
Hook mode: Usermode
Hook type: Inline/Trampoline
Process: 1968 (TPAutoConnSvc.e)
Victim module: USER32.dll (0x77d40000 - 0x77dd0000)
Function: USER32.dll!DefWindowProcW at 0x77d4b1e5
Hook address: 0xdffdd0
Hooking module: <unknown>

Disassembly(0):
0x77d4b1e5 e9e64b0b89       JMP 0xdffdd0
0x77d4b1ea d477             AAM 0x77
0x77d4b1ec e89fd3ffff       CALL 0x77d48590
0x77d4b1f1 e816d4ffff       CALL 0x77d4860c
0x77d4b1f6 833d6c00da7700   CMP DWORD [0x77da006c], 0x0

Disassembly(1):
0xdffdd0 55               PUSH EBP
0xdffdd1 8bec             MOV EBP, ESP
0xdffdd3 833d8427e100ff   CMP DWORD [0xe12784], -0x1
0xdffdda 56               PUSH ESI
0xdffddb 8b750c           MOV ESI, [EBP+0xc]
0xdffdde 7512             JNZ 0xdffdf2
0xdffde0 3b357826e100     CMP ESI, [0xe12678]
0xdffde6 750a             JNZ 0xdffdf2

************************************************************************
Hook mode: Usermode
Hook type: Inline/Trampoline
Process: 1968 (TPAutoConnSvc.e)
Victim module: USER32.dll (0x77d40000 - 0x77dd0000)
Function: USER32.dll!EndPaint at 0x77d4b4c5
Hook address: 0xdffda1
Hooking module: <unknown>

Disassembly(0):
0x77d4b4c5 e9d7480b89       JMP 0xdffda1
0x77d4b4ca ba0003fe7f       MOV EDX, 0x7ffe0300
0x77d4b4cf ff12             CALL DWORD [EDX]
0x77d4b4d1 c20800           RET 0x8
0x77d4b4d4 90               NOP
0x77d4b4d5 90               NOP
0x77d4b4d6 90               NOP
0x77d4b4d7 90               NOP
0x77d4b4d8 90               NOP
0x77d4b4d9 8bff             MOV EDI, EDI
0x77d4b4db 55               PUSH EBP
0x77d4b4dc 8b               DB 0x8b

Disassembly(1):
0xdffda1 833d8427e100ff   CMP DWORD [0xe12784], -0x1
0xdffda8 751b             JNZ 0xdffdc5
0xdffdaa 837c240800       CMP DWORD [ESP+0x8], 0x0
0xdffdaf 7414             JZ 0xdffdc5
0xdffdb1 ff151011df00     CALL DWORD [0xdf1110]
0xdffdb7 39               DB 0x39
0xdffdb8 05               DB 0x5

************************************************************************
Hook mode: Usermode
Hook type: Inline/Trampoline
Process: 1968 (TPAutoConnSvc.e)
Victim module: USER32.dll (0x77d40000 - 0x77dd0000)
Function: USER32.dll!GetClipboardData at 0x77d6fcb2
Hook address: 0xe04fd5
Hooking module: <unknown>

Disassembly(0):
0x77d6fcb2 e91e530989       JMP 0xe04fd5
0x77d6fcb7 83ec2c           SUB ESP, 0x2c
0x77d6fcba 56               PUSH ESI
0x77d6fcbb 57               PUSH EDI
0x77d6fcbc 8d45d4           LEA EAX, [EBP-0x2c]
0x77d6fcbf 50               PUSH EAX
0x77d6fcc0 ff7508           PUSH DWORD [EBP+0x8]
0x77d6fcc3 e8e8000000       CALL 0x77d6fdb0
0x77d6fcc8 8bf0             MOV ESI, EAX

Disassembly(1):
0xe04fd5 55               PUSH EBP
0xe04fd6 8bec             MOV EBP, ESP
0xe04fd8 53               PUSH EBX
0xe04fd9 56               PUSH ESI
0xe04fda e859ebfeff       CALL 0xdf3b38
0xe04fdf 8b7508           MOV ESI, [EBP+0x8]
0xe04fe2 56               PUSH ESI
0xe04fe3 ff156013df00     CALL DWORD [0xdf1360]
0xe04fe9 8bd8             MOV EBX, EAX
0xe04feb 85db             TEST EBX, EBX

************************************************************************
Hook mode: Usermode
Hook type: Inline/Trampoline
Process: 1968 (TPAutoConnSvc.e)
Victim module: USER32.dll (0x77d40000 - 0x77dd0000)
Function: USER32.dll!TranslateMessage at 0x77d48bce
Hook address: 0xe04ea0
Hooking module: <unknown>

Disassembly(0):
0x77d48bce e9cdc20b89       JMP 0xe04ea0
0x77d48bd3 56               PUSH ESI
0x77d48bd4 8b7508           MOV ESI, [EBP+0x8]
0x77d48bd7 66817e08e500     CMP WORD [ESI+0x8], 0xe5
0x77d48bdd 0f84a77e0200     JZ 0x77d70a8a
0x77d48be3 6a00             PUSH 0x0
0x77d48be5 56               PUSH ESI

Disassembly(1):
0xe04ea0 55               PUSH EBP
0xe04ea1 8bec             MOV EBP, ESP
0xe04ea3 83e4f8           AND ESP, -0x8
0xe04ea6 81ec1c030000     SUB ESP, 0x31c
0xe04eac 53               PUSH EBX
0xe04ead 8b5d08           MOV EBX, [EBP+0x8]
0xe04eb0 56               PUSH ESI
0xe04eb1 57               PUSH EDI
0xe04eb2 85db             TEST EBX, EBX
0xe04eb4 0f               DB 0xf
0xe04eb5 8406             TEST [ESI], AL
0xe04eb7 01               DB 0x1

************************************************************************
Hook mode: Usermode
Hook type: Inline/Trampoline
Process: 1968 (TPAutoConnSvc.e)
Victim module: WS2_32.dll (0x71ab0000 - 0x71ac7000)
Function: WS2_32.dll!WSASend at 0x71ab6233
Hook address: 0xe0112c
Hooking module: <unknown>

Disassembly(0):
0x71ab6233 e9f4ae348f       JMP 0xe0112c
0x71ab6238 51               PUSH ECX
0x71ab6239 51               PUSH ECX
0x71ab623a 813d2840ac714894ab71 CMP DWORD [0x71ac4028], 0x71ab9448
0x71ab6244 56               PUSH ESI
0x71ab6245 0f847f540000     JZ 0x71abb6ca

Disassembly(1):
0xe0112c 55               PUSH EBP
0xe0112d 8bec             MOV EBP, ESP
0xe0112f 837d1000         CMP DWORD [EBP+0x10], 0x0
0xe01133 56               PUSH ESI
0xe01134 8b750c           MOV ESI, [EBP+0xc]
0xe01137 7615             JBE 0xe0114e
0xe01139 57               PUSH EDI
0xe0113a 8b7d10           MOV EDI, [EBP+0x10]
0xe0113d ff36             PUSH DWORD [ESI]
0xe0113f 8b4604           MOV EAX, [ESI+0x4]
0xe01142 ff               DB 0xff
0xe01143 75               DB 0x75

************************************************************************
Hook mode: Usermode
Hook type: Inline/Trampoline
Process: 1968 (TPAutoConnSvc.e)
Victim module: WS2_32.dll (0x71ab0000 - 0x71ac7000)
Function: WS2_32.dll!closesocket at 0x71ab9639
Hook address: 0xe010db
Hooking module: <unknown>

Disassembly(0):
0x71ab9639 e99d7a348f       JMP 0xe010db
0x71ab963e 51               PUSH ECX
0x71ab963f 813d2840ac714894ab71 CMP DWORD [0x71ac4028], 0x71ab9448
0x71ab9649 56               PUSH ESI
0x71ab964a 0f84aef3ffff     JZ 0x71ab89fe
0x71ab9650 e8               DB 0xe8

Disassembly(1):
0xe010db 56               PUSH ESI
0xe010dc bef426e100       MOV ESI, 0xe126f4
0xe010e1 56               PUSH ESI
0xe010e2 ff157412df00     CALL DWORD [0xdf1274]
0xe010e8 ff742408         PUSH DWORD [ESP+0x8]
0xe010ec e859fcffff       CALL 0xe00d4a
0xe010f1 85c0             TEST EAX, EAX

************************************************************************
Hook mode: Usermode
Hook type: Inline/Trampoline
Process: 1968 (TPAutoConnSvc.e)
Victim module: WS2_32.dll (0x71ab0000 - 0x71ac7000)
Function: WS2_32.dll!send at 0x71ab428a
Hook address: 0xe0110f
Hooking module: <unknown>

Disassembly(0):
0x71ab428a e980ce348f       JMP 0xe0110f
0x71ab428f 83ec10           SUB ESP, 0x10
0x71ab4292 56               PUSH ESI
0x71ab4293 57               PUSH EDI
0x71ab4294 33ff             XOR EDI, EDI
0x71ab4296 813d2840ac714894ab71 CMP DWORD [0x71ac4028], 0x71ab9448
0x71ab42a0 0f               DB 0xf
0x71ab42a1 84               DB 0x84

Disassembly(1):
0xe0110f 55               PUSH EBP
0xe01110 8bec             MOV EBP, ESP
0xe01112 ff7510           PUSH DWORD [EBP+0x10]
0xe01115 8b450c           MOV EAX, [EBP+0xc]
0xe01118 ff7508           PUSH DWORD [EBP+0x8]
0xe0111b e838fdffff       CALL 0xe00e58
0xe01120 e8132affff       CALL 0xdf3b38
0xe01125 5d               POP EBP
0xe01126 ff               DB 0xff

************************************************************************
Hook mode: Usermode
Hook type: Inline/Trampoline
Process: 1968 (TPAutoConnSvc.e)
Victim module: CRYPT32.dll (0x77a80000 - 0x77b14000)
Function: CRYPT32.dll!PFXImportCertStore at 0x77aef748
Hook address: 0xdf3692
Hooking module: <unknown>

Disassembly(0):
0x77aef748 e9453f3089       JMP 0xdf3692
0x77aef74d 83ec18           SUB ESP, 0x18
0x77aef750 53               PUSH EBX
0x77aef751 57               PUSH EDI
0x77aef752 33c0             XOR EAX, EAX
0x77aef754 8d7de8           LEA EDI, [EBP-0x18]
0x77aef757 33db             XOR EBX, EBX
0x77aef759 f74510dcefffef   TEST DWORD [EBP+0x10], 0xefffefdc

Disassembly(1):
0xdf3692 55               PUSH EBP
0xdf3693 8bec             MOV EBP, ESP
0xdf3695 81ec80000000     SUB ESP, 0x80
0xdf369b 53               PUSH EBX
0xdf369c 56               PUSH ESI
0xdf369d e896040000       CALL 0xdf3b38
0xdf36a2 ff7510           PUSH DWORD [EBP+0x10]
0xdf36a5 8b7508           MOV ESI, [EBP+0x8]
0xdf36a8 ff               DB 0xff
0xdf36a9 75               DB 0x75

************************************************************************
Hook mode: Usermode
Hook type: Inline/Trampoline
Process: 1968 (TPAutoConnSvc.e)
Victim module: WININET.dll (0x771b0000 - 0x77256000)
Function: WININET.dll!HttpQueryInfoA at 0x771c8c6a
Hook address: 0xe07477
Hooking module: <unknown>

Disassembly(0):
0x771c8c6a e908e8c389       JMP 0xe07477
0x771c8c6f 1c77             SBB AL, 0x77
0x771c8c71 e8fc89feff       CALL 0x771b1672
0x771c8c76 33db             XOR EBX, EBX
0x771c8c78 895ddc           MOV [EBP-0x24], EBX
0x771c8c7b 895de4           MOV [EBP-0x1c], EBX
0x771c8c7e 39               DB 0x39
0x771c8c7f 1d               DB 0x1d
0x771c8c80 50               PUSH EAX
0x771c8c81 98               CWDE

Disassembly(1):
0xe07477 55               PUSH EBP
0xe07478 8bec             MOV EBP, ESP
0xe0747a 56               PUSH ESI
0xe0747b 57               PUSH EDI
0xe0747c bf6c27e100       MOV EDI, 0xe1276c
0xe07481 57               PUSH EDI
0xe07482 ff157412df00     CALL DWORD [0xdf1274]
0xe07488 8b7508           MOV ESI, [EBP+0x8]
0xe0748b e8               DB 0xe8
0xe0748c 67e5ff           IN EAX, 0xff

************************************************************************
Hook mode: Usermode
Hook type: Inline/Trampoline
Process: 1968 (TPAutoConnSvc.e)
Victim module: WININET.dll (0x771b0000 - 0x77256000)
Function: WININET.dll!HttpSendRequestA at 0x771c76b8
Hook address: 0xe07366
Hooking module: <unknown>

Disassembly(0):
0x771c76b8 e9a9fcc389       JMP 0xe07366
0x771c76bd 6a13             PUSH 0x13
0x771c76bf 6a00             PUSH 0x0
0x771c76c1 ff7518           PUSH DWORD [EBP+0x18]
0x771c76c4 ff7514           PUSH DWORD [EBP+0x14]
0x771c76c7 ff7510           PUSH DWORD [EBP+0x10]
0x771c76ca ff750c           PUSH DWORD [EBP+0xc]
0x771c76cd ff7508           PUSH DWORD [EBP+0x8]

Disassembly(1):
0xe07366 55               PUSH EBP
0xe07367 8bec             MOV EBP, ESP
0xe07369 e8cac7feff       CALL 0xdf3b38
0xe0736e ff7510           PUSH DWORD [EBP+0x10]
0xe07371 8b4518           MOV EAX, [EBP+0x18]
0xe07374 ff750c           PUSH DWORD [EBP+0xc]
0xe07377 8b4d14           MOV ECX, [EBP+0x14]
0xe0737a ff7508           PUSH DWORD [EBP+0x8]
0xe0737d 6a               DB 0x6a

************************************************************************
Hook mode: Usermode
Hook type: Inline/Trampoline
Process: 1968 (TPAutoConnSvc.e)
Victim module: WININET.dll (0x771b0000 - 0x77256000)
Function: WININET.dll!HttpSendRequestExA at 0x7721190d
Hook address: 0xe073ac
Hooking module: <unknown>

Disassembly(0):
0x7721190d e99a5abf89       JMP 0xe073ac
0x77211912 53               PUSH EBX
0x77211913 56               PUSH ESI
0x77211914 57               PUSH EDI
0x77211915 33db             XOR EBX, EBX
0x77211917 33c0             XOR EAX, EAX
0x77211919 33c9             XOR ECX, ECX
0x7721191b 33d2             XOR EDX, EDX
0x7721191d 33ff             XOR EDI, EDI
0x7721191f 395d10           CMP [EBP+0x10], EBX
0x77211922 7539             JNZ 0x7721195d
0x77211924 8b               DB 0x8b

Disassembly(1):
0xe073ac 55               PUSH EBP
0xe073ad 8bec             MOV EBP, ESP
0xe073af 53               PUSH EBX
0xe073b0 e883c7feff       CALL 0xdf3b38
0xe073b5 ff7518           PUSH DWORD [EBP+0x18]
0xe073b8 8b450c           MOV EAX, [EBP+0xc]
0xe073bb ff7514           PUSH DWORD [EBP+0x14]
0xe073be 8b5d08           MOV EBX, [EBP+0x8]
0xe073c1 ff7510           PUSH DWORD [EBP+0x10]

************************************************************************
Hook mode: Usermode
Hook type: Inline/Trampoline
Process: 1968 (TPAutoConnSvc.e)
Victim module: WININET.dll (0x771b0000 - 0x77256000)
Function: WININET.dll!HttpSendRequestExW at 0x771d53eb
Hook address: 0xe07388
Hooking module: <unknown>

Disassembly(0):
0x771d53eb e9981fc389       JMP 0xe07388
0x771d53f0 83ec14           SUB ESP, 0x14
0x771d53f3 53               PUSH EBX
0x771d53f4 56               PUSH ESI
0x771d53f5 33c0             XOR EAX, EAX
0x771d53f7 57               PUSH EDI
0x771d53f8 33d2             XOR EDX, EDX
0x771d53fa 33db             XOR EBX, EBX
0x771d53fc 33ff             XOR EDI, EDI
0x771d53fe 33c9             XOR ECX, ECX
0x771d5400 395508           CMP [EBP+0x8], EDX

Disassembly(1):
0xe07388 55               PUSH EBP
0xe07389 8bec             MOV EBP, ESP
0xe0738b 53               PUSH EBX
0xe0738c e8a7c7feff       CALL 0xdf3b38
0xe07391 ff7518           PUSH DWORD [EBP+0x18]
0xe07394 8b450c           MOV EAX, [EBP+0xc]
0xe07397 ff7514           PUSH DWORD [EBP+0x14]
0xe0739a 8b5d08           MOV EBX, [EBP+0x8]
0xe0739d ff7510           PUSH DWORD [EBP+0x10]

************************************************************************
Hook mode: Usermode
Hook type: Inline/Trampoline
Process: 1968 (TPAutoConnSvc.e)
Victim module: WININET.dll (0x771b0000 - 0x77256000)
Function: WININET.dll!HttpSendRequestW at 0x77211808
Hook address: 0xe07344
Hooking module: <unknown>

Disassembly(0):
0x77211808 e9375bbf89       JMP 0xe07344
0x7721180d 83ec14           SUB ESP, 0x14
0x77211810 53               PUSH EBX
0x77211811 33db             XOR EBX, EBX
0x77211813 56               PUSH ESI
0x77211814 33f6             XOR ESI, ESI
0x77211816 33c0             XOR EAX, EAX
0x77211818 395d08           CMP [EBP+0x8], EBX
0x7721181b 57               PUSH EDI
0x7721181c 895df8           MOV [EBP-0x8], EBX
0x7721181f 89               DB 0x89

Disassembly(1):
0xe07344 55               PUSH EBP
0xe07345 8bec             MOV EBP, ESP
0xe07347 e8ecc7feff       CALL 0xdf3b38
0xe0734c ff7510           PUSH DWORD [EBP+0x10]
0xe0734f 8b4518           MOV EAX, [EBP+0x18]
0xe07352 ff750c           PUSH DWORD [EBP+0xc]
0xe07355 8b4d14           MOV ECX, [EBP+0x14]
0xe07358 ff7508           PUSH DWORD [EBP+0x8]
0xe0735b 6a               DB 0x6a

************************************************************************
Hook mode: Usermode
Hook type: Inline/Trampoline
Process: 1968 (TPAutoConnSvc.e)
Victim module: WININET.dll (0x771b0000 - 0x77256000)
Function: WININET.dll!InternetCloseHandle at 0x771c61dc
Hook address: 0xe07438
Hooking module: <unknown>

Disassembly(0):
0x771c61dc e95712c489       JMP 0xe07438
0x771c61e1 51               PUSH ECX
0x771c61e2 51               PUSH ECX
0x771c61e3 53               PUSH EBX
0x771c61e4 56               PUSH ESI
0x771c61e5 33db             XOR EBX, EBX
0x771c61e7 33f6             XOR ESI, ESI
0x771c61e9 f60544a3237701   TEST BYTE [0x7723a344], 0x1
0x771c61f0 895dfc           MOV [EBP-0x4], EBX
0x771c61f3 0f               DB 0xf

Disassembly(1):
0xe07438 53               PUSH EBX
0xe07439 56               PUSH ESI
0xe0743a 57               PUSH EDI
0xe0743b e8f8c6feff       CALL 0xdf3b38
0xe07440 8b742410         MOV ESI, [ESP+0x10]
0xe07444 56               PUSH ESI
0xe07445 ff153c14df00     CALL DWORD [0xdf143c]
0xe0744b bf6c27e100       MOV EDI, 0xe1276c

************************************************************************
Hook mode: Usermode
Hook type: Inline/Trampoline
Process: 1968 (TPAutoConnSvc.e)
Victim module: WININET.dll (0x771b0000 - 0x77256000)
Function: WININET.dll!InternetQueryDataAvailable at 0x771d325f
Hook address: 0xe07415
Hooking module: <unknown>

Disassembly(0):
0x771d325f e9b141c389       JMP 0xe07415
0x771d3264 83ec10           SUB ESP, 0x10
0x771d3267 53               PUSH EBX
0x771d3268 33db             XOR EBX, EBX
0x771d326a 391d50982377     CMP [0x77239850], EBX
0x771d3270 56               PUSH ESI
0x771d3271 57               PUSH EDI
0x771d3272 895dfc           MOV [EBP-0x4], EBX
0x771d3275 c7               DB 0xc7
0x771d3276 45               INC EBP

Disassembly(1):
0xe07415 e81ec7feff       CALL 0xdf3b38
0xe0741a ff742410         PUSH DWORD [ESP+0x10]
0xe0741e ff742410         PUSH DWORD [ESP+0x10]
0xe07422 ff742410         PUSH DWORD [ESP+0x10]
0xe07426 6a00             PUSH 0x0
0xe07428 6a00             PUSH 0x0
0xe0742a ff               DB 0xff
0xe0742b 7424             JZ 0xe07451

************************************************************************
Hook mode: Usermode
Hook type: Inline/Trampoline
Process: 1968 (TPAutoConnSvc.e)
Victim module: WININET.dll (0x771b0000 - 0x77256000)
Function: WININET.dll!InternetReadFile at 0x771c9555
Hook address: 0xe073d0
Hooking module: <unknown>

Disassembly(0):
0x771c9555 e976dec389       JMP 0xe073d0
0x771c955a 83ec24           SUB ESP, 0x24
0x771c955d 53               PUSH EBX
0x771c955e 33db             XOR EBX, EBX
0x771c9560 391d50982377     CMP [0x77239850], EBX
0x771c9566 57               PUSH EDI
0x771c9567 895df4           MOV [EBP-0xc], EBX
0x771c956a 895df8           MOV [EBP-0x8], EBX

Disassembly(1):
0xe073d0 e863c7feff       CALL 0xdf3b38
0xe073d5 33c0             XOR EAX, EAX
0xe073d7 50               PUSH EAX
0xe073d8 50               PUSH EAX
0xe073d9 ff742418         PUSH DWORD [ESP+0x18]
0xe073dd ff742418         PUSH DWORD [ESP+0x18]
0xe073e1 ff742418         PUSH DWORD [ESP+0x18]
0xe073e5 ff               DB 0xff
0xe073e6 7424             JZ 0xe0740c

************************************************************************
Hook mode: Usermode
Hook type: Inline/Trampoline
Process: 1968 (TPAutoConnSvc.e)
Victim module: WININET.dll (0x771b0000 - 0x77256000)
Function: WININET.dll!InternetReadFileExA at 0x771f7e9a
Hook address: 0xe073f2
Hooking module: <unknown>

Disassembly(0):
0x771f7e9a e953f5c089       JMP 0xe073f2
0x771f7e9f 83ec20           SUB ESP, 0x20
0x771f7ea2 53               PUSH EBX
0x771f7ea3 56               PUSH ESI
0x771f7ea4 33c0             XOR EAX, EAX
0x771f7ea6 57               PUSH EDI
0x771f7ea7 33ff             XOR EDI, EDI
0x771f7ea9 40               INC EAX
0x771f7eaa 393d50982377     CMP [0x77239850], EDI
0x771f7eb0 89               DB 0x89
0x771f7eb1 7d               DB 0x7d

Disassembly(1):
0xe073f2 e841c7feff       CALL 0xdf3b38
0xe073f7 ff742410         PUSH DWORD [ESP+0x10]
0xe073fb ff742410         PUSH DWORD [ESP+0x10]
0xe073ff 6a00             PUSH 0x0
0xe07401 6a00             PUSH 0x0
0xe07403 ff742418         PUSH DWORD [ESP+0x18]
0xe07407 ff               DB 0xff
0xe07408 7424             JZ 0xe0742e

************************************************************************
Hook mode: Usermode
Hook type: Inline/Trampoline
Process: 216 (alg.exe)
Victim module: ntdll.dll (0x7c900000 - 0x7c9b0000)
Function: ntdll.dll!NtCreateThread at 0x7c90d7d2
Hook address: 0x7b3b47
Hooking module: <unknown>

Disassembly(0):
0x7c90d7d2 e97063ea83       JMP 0x7b3b47
0x7c90d7d7 ba0003fe7f       MOV EDX, 0x7ffe0300
0x7c90d7dc ff12             CALL DWORD [EDX]
0x7c90d7de c22000           RET 0x20
0x7c90d7e1 90               NOP
0x7c90d7e2 90               NOP
0x7c90d7e3 90               NOP
0x7c90d7e4 90               NOP
0x7c90d7e5 90               NOP
0x7c90d7e6 90               NOP
0x7c90d7e7 b8               DB 0xb8
0x7c90d7e8 36               DB 0x36
0x7c90d7e9 00               DB 0x0

Disassembly(1):
0x7b3b47 55               PUSH EBP
0x7b3b48 8bec             MOV EBP, ESP
0x7b3b4a 83ec18           SUB ESP, 0x18
0x7b3b4d 53               PUSH EBX
0x7b3b4e 56               PUSH ESI
0x7b3b4f 57               PUSH EDI
0x7b3b50 8b7d14           MOV EDI, [EBP+0x14]
0x7b3b53 8d4514           LEA EAX, [EBP+0x14]
0x7b3b56 50               PUSH EAX
0x7b3b57 6a18             PUSH 0x18
0x7b3b59 8d45e8           LEA EAX, [EBP-0x18]
0x7b3b5c 50               PUSH EAX
0x7b3b5d 33f6             XOR ESI, ESI

************************************************************************
Hook mode: Usermode
Hook type: Inline/Trampoline
Process: 216 (alg.exe)
Victim module: ntdll.dll (0x7c900000 - 0x7c9b0000)
Function: ntdll.dll!NtQueryDirectoryFile at 0x7c90df5e
Hook address: 0x7b3ca5
Hooking module: <unknown>

Disassembly(0):
0x7c90df5e e9425dea83       JMP 0x7b3ca5
0x7c90df63 ba0003fe7f       MOV EDX, 0x7ffe0300
0x7c90df68 ff12             CALL DWORD [EDX]
0x7c90df6a c22c00           RET 0x2c
0x7c90df6d 90               NOP
0x7c90df6e 90               NOP
0x7c90df6f 90               NOP
0x7c90df70 90               NOP
0x7c90df71 90               NOP
0x7c90df72 90               NOP
0x7c90df73 b8               DB 0xb8
0x7c90df74 92               XCHG EDX, EAX
0x7c90df75 00               DB 0x0

Disassembly(1):
0x7b3ca5 55               PUSH EBP
0x7b3ca6 8bec             MOV EBP, ESP
0x7b3ca8 e88bfeffff       CALL 0x7b3b38
0x7b3cad ff7530           PUSH DWORD [EBP+0x30]
0x7b3cb0 ff752c           PUSH DWORD [EBP+0x2c]
0x7b3cb3 ff7528           PUSH DWORD [EBP+0x28]
0x7b3cb6 ff7524           PUSH DWORD [EBP+0x24]
0x7b3cb9 ff7520           PUSH DWORD [EBP+0x20]
0x7b3cbc ff               DB 0xff

************************************************************************
Hook mode: Usermode
Hook type: Inline/Trampoline
Process: 216 (alg.exe)
Victim module: ntdll.dll (0x7c900000 - 0x7c9b0000)
Function: ntdll.dll!ZwCreateThread at 0x7c90d7d2
Hook address: 0x7b3b47
Hooking module: <unknown>

Disassembly(0):
0x7c90d7d2 e97063ea83       JMP 0x7b3b47
0x7c90d7d7 ba0003fe7f       MOV EDX, 0x7ffe0300
0x7c90d7dc ff12             CALL DWORD [EDX]
0x7c90d7de c22000           RET 0x20
0x7c90d7e1 90               NOP
0x7c90d7e2 90               NOP
0x7c90d7e3 90               NOP
0x7c90d7e4 90               NOP
0x7c90d7e5 90               NOP
0x7c90d7e6 90               NOP
0x7c90d7e7 b8               DB 0xb8
0x7c90d7e8 36               DB 0x36
0x7c90d7e9 00               DB 0x0

Disassembly(1):
0x7b3b47 55               PUSH EBP
0x7b3b48 8bec             MOV EBP, ESP
0x7b3b4a 83ec18           SUB ESP, 0x18
0x7b3b4d 53               PUSH EBX
0x7b3b4e 56               PUSH ESI
0x7b3b4f 57               PUSH EDI
0x7b3b50 8b7d14           MOV EDI, [EBP+0x14]
0x7b3b53 8d4514           LEA EAX, [EBP+0x14]
0x7b3b56 50               PUSH EAX
0x7b3b57 6a18             PUSH 0x18
0x7b3b59 8d45e8           LEA EAX, [EBP-0x18]
0x7b3b5c 50               PUSH EAX
0x7b3b5d 33f6             XOR ESI, ESI

************************************************************************
Hook mode: Usermode
Hook type: Inline/Trampoline
Process: 216 (alg.exe)
Victim module: ntdll.dll (0x7c900000 - 0x7c9b0000)
Function: ntdll.dll!ZwQueryDirectoryFile at 0x7c90df5e
Hook address: 0x7b3ca5
Hooking module: <unknown>

Disassembly(0):
0x7c90df5e e9425dea83       JMP 0x7b3ca5
0x7c90df63 ba0003fe7f       MOV EDX, 0x7ffe0300
0x7c90df68 ff12             CALL DWORD [EDX]
0x7c90df6a c22c00           RET 0x2c
0x7c90df6d 90               NOP
0x7c90df6e 90               NOP
0x7c90df6f 90               NOP
0x7c90df70 90               NOP
0x7c90df71 90               NOP
0x7c90df72 90               NOP
0x7c90df73 b8               DB 0xb8
0x7c90df74 92               XCHG EDX, EAX
0x7c90df75 00               DB 0x0

Disassembly(1):
0x7b3ca5 55               PUSH EBP
0x7b3ca6 8bec             MOV EBP, ESP
0x7b3ca8 e88bfeffff       CALL 0x7b3b38
0x7b3cad ff7530           PUSH DWORD [EBP+0x30]
0x7b3cb0 ff752c           PUSH DWORD [EBP+0x2c]
0x7b3cb3 ff7528           PUSH DWORD [EBP+0x28]
0x7b3cb6 ff7524           PUSH DWORD [EBP+0x24]
0x7b3cb9 ff7520           PUSH DWORD [EBP+0x20]
0x7b3cbc ff               DB 0xff

************************************************************************
Hook mode: Usermode
Hook type: Inline/Trampoline
Process: 216 (alg.exe)
Victim module: USER32.dll (0x77d40000 - 0x77dd0000)
Function: USER32.dll!BeginPaint at 0x77d4b4b1
Hook address: 0x7bfd3f
Hooking module: <unknown>

Disassembly(0):
0x77d4b4b1 e98948a788       JMP 0x7bfd3f
0x77d4b4b6 ba0003fe7f       MOV EDX, 0x7ffe0300
0x77d4b4bb ff12             CALL DWORD [EDX]
0x77d4b4bd c20800           RET 0x8
0x77d4b4c0 90               NOP
0x77d4b4c1 90               NOP
0x77d4b4c2 90               NOP
0x77d4b4c3 90               NOP
0x77d4b4c4 90               NOP
0x77d4b4c5 e9               DB 0xe9
0x77d4b4c6 d7               XLAT BYTE [EBX+AL]
0x77d4b4c7 48               DEC EAX
0x77d4b4c8 a7               CMPSD

Disassembly(1):
0x7bfd3f 833d84277d00ff   CMP DWORD [0x7d2784], -0x1
0x7bfd46 56               PUSH ESI
0x7bfd47 8b74240c         MOV ESI, [ESP+0xc]
0x7bfd4b 7540             JNZ 0x7bfd8d
0x7bfd4d 85f6             TEST ESI, ESI
0x7bfd4f 743c             JZ 0x7bfd8d
0x7bfd51 ff1510117b00     CALL DWORD [0x7b1110]

************************************************************************
Hook mode: Usermode
Hook type: Inline/Trampoline
Process: 216 (alg.exe)
Victim module: USER32.dll (0x77d40000 - 0x77dd0000)
Function: USER32.dll!DefWindowProcA at 0x77d4df6b
Hook address: 0x7bfe0c
Hooking module: <unknown>

Disassembly(0):
0x77d4df6b e99c1ea788       JMP 0x7bfe0c
0x77d4df70 d477             AAM 0x77
0x77d4df72 e819a6ffff       CALL 0x77d48590
0x77d4df77 e890a6ffff       CALL 0x77d4860c
0x77d4df7c 833d6c00da7700   CMP DWORD [0x77da006c], 0x0

Disassembly(1):
0x7bfe0c 55               PUSH EBP
0x7bfe0d 8bec             MOV EBP, ESP
0x7bfe0f 833d84277d00ff   CMP DWORD [0x7d2784], -0x1
0x7bfe16 56               PUSH ESI
0x7bfe17 8b750c           MOV ESI, [EBP+0xc]
0x7bfe1a 7512             JNZ 0x7bfe2e
0x7bfe1c 3b3578267d00     CMP ESI, [0x7d2678]
0x7bfe22 750a             JNZ 0x7bfe2e

************************************************************************
Hook mode: Usermode
Hook type: Inline/Trampoline
Process: 216 (alg.exe)
Victim module: USER32.dll (0x77d40000 - 0x77dd0000)
Function: USER32.dll!DefWindowProcW at 0x77d4b1e5
Hook address: 0x7bfdd0
Hooking module: <unknown>

Disassembly(0):
0x77d4b1e5 e9e64ba788       JMP 0x7bfdd0
0x77d4b1ea d477             AAM 0x77
0x77d4b1ec e89fd3ffff       CALL 0x77d48590
0x77d4b1f1 e816d4ffff       CALL 0x77d4860c
0x77d4b1f6 833d6c00da7700   CMP DWORD [0x77da006c], 0x0

Disassembly(1):
0x7bfdd0 55               PUSH EBP
0x7bfdd1 8bec             MOV EBP, ESP
0x7bfdd3 833d84277d00ff   CMP DWORD [0x7d2784], -0x1
0x7bfdda 56               PUSH ESI
0x7bfddb 8b750c           MOV ESI, [EBP+0xc]
0x7bfdde 7512             JNZ 0x7bfdf2
0x7bfde0 3b3578267d00     CMP ESI, [0x7d2678]
0x7bfde6 750a             JNZ 0x7bfdf2

************************************************************************
Hook mode: Usermode
Hook type: Inline/Trampoline
Process: 216 (alg.exe)
Victim module: USER32.dll (0x77d40000 - 0x77dd0000)
Function: USER32.dll!EndPaint at 0x77d4b4c5
Hook address: 0x7bfda1
Hooking module: <unknown>

Disassembly(0):
0x77d4b4c5 e9d748a788       JMP 0x7bfda1
0x77d4b4ca ba0003fe7f       MOV EDX, 0x7ffe0300
0x77d4b4cf ff12             CALL DWORD [EDX]
0x77d4b4d1 c20800           RET 0x8
0x77d4b4d4 90               NOP
0x77d4b4d5 90               NOP
0x77d4b4d6 90               NOP
0x77d4b4d7 90               NOP
0x77d4b4d8 90               NOP
0x77d4b4d9 8bff             MOV EDI, EDI
0x77d4b4db 55               PUSH EBP
0x77d4b4dc 8b               DB 0x8b

Disassembly(1):
0x7bfda1 833d84277d00ff   CMP DWORD [0x7d2784], -0x1
0x7bfda8 751b             JNZ 0x7bfdc5
0x7bfdaa 837c240800       CMP DWORD [ESP+0x8], 0x0
0x7bfdaf 7414             JZ 0x7bfdc5
0x7bfdb1 ff1510117b00     CALL DWORD [0x7b1110]
0x7bfdb7 39               DB 0x39
0x7bfdb8 05               DB 0x5

************************************************************************
Hook mode: Usermode
Hook type: Inline/Trampoline
Process: 216 (alg.exe)
Victim module: USER32.dll (0x77d40000 - 0x77dd0000)
Function: USER32.dll!GetClipboardData at 0x77d6fcb2
Hook address: 0x7c4fd5
Hooking module: <unknown>

Disassembly(0):
0x77d6fcb2 e91e53a588       JMP 0x7c4fd5
0x77d6fcb7 83ec2c           SUB ESP, 0x2c
0x77d6fcba 56               PUSH ESI
0x77d6fcbb 57               PUSH EDI
0x77d6fcbc 8d45d4           LEA EAX, [EBP-0x2c]
0x77d6fcbf 50               PUSH EAX
0x77d6fcc0 ff7508           PUSH DWORD [EBP+0x8]
0x77d6fcc3 e8e8000000       CALL 0x77d6fdb0
0x77d6fcc8 8bf0             MOV ESI, EAX

Disassembly(1):
0x7c4fd5 55               PUSH EBP
0x7c4fd6 8bec             MOV EBP, ESP
0x7c4fd8 53               PUSH EBX
0x7c4fd9 56               PUSH ESI
0x7c4fda e859ebfeff       CALL 0x7b3b38
0x7c4fdf 8b7508           MOV ESI, [EBP+0x8]
0x7c4fe2 56               PUSH ESI
0x7c4fe3 ff1560137b00     CALL DWORD [0x7b1360]
0x7c4fe9 8bd8             MOV EBX, EAX
0x7c4feb 85db             TEST EBX, EBX

************************************************************************
Hook mode: Usermode
Hook type: Inline/Trampoline
Process: 216 (alg.exe)
Victim module: USER32.dll (0x77d40000 - 0x77dd0000)
Function: USER32.dll!TranslateMessage at 0x77d48bce
Hook address: 0x7c4ea0
Hooking module: <unknown>

Disassembly(0):
0x77d48bce e9cdc2a788       JMP 0x7c4ea0
0x77d48bd3 56               PUSH ESI
0x77d48bd4 8b7508           MOV ESI, [EBP+0x8]
0x77d48bd7 66817e08e500     CMP WORD [ESI+0x8], 0xe5
0x77d48bdd 0f84a77e0200     JZ 0x77d70a8a
0x77d48be3 6a00             PUSH 0x0
0x77d48be5 56               PUSH ESI

Disassembly(1):
0x7c4ea0 55               PUSH EBP
0x7c4ea1 8bec             MOV EBP, ESP
0x7c4ea3 83e4f8           AND ESP, -0x8
0x7c4ea6 81ec1c030000     SUB ESP, 0x31c
0x7c4eac 53               PUSH EBX
0x7c4ead 8b5d08           MOV EBX, [EBP+0x8]
0x7c4eb0 56               PUSH ESI
0x7c4eb1 57               PUSH EDI
0x7c4eb2 85db             TEST EBX, EBX
0x7c4eb4 0f               DB 0xf
0x7c4eb5 8406             TEST [ESI], AL
0x7c4eb7 01               DB 0x1

************************************************************************
Hook mode: Usermode
Hook type: Inline/Trampoline
Process: 216 (alg.exe)
Victim module: WS2_32.dll (0x71ab0000 - 0x71ac7000)
Function: WS2_32.dll!WSASend at 0x71ab6233
Hook address: 0x7c112c
Hooking module: <unknown>

Disassembly(0):
0x71ab6233 e9f4aed08e       JMP 0x7c112c
0x71ab6238 51               PUSH ECX
0x71ab6239 51               PUSH ECX
0x71ab623a 813d2840ac714894ab71 CMP DWORD [0x71ac4028], 0x71ab9448
0x71ab6244 56               PUSH ESI
0x71ab6245 0f847f540000     JZ 0x71abb6ca

Disassembly(1):
0x7c112c 55               PUSH EBP
0x7c112d 8bec             MOV EBP, ESP
0x7c112f 837d1000         CMP DWORD [EBP+0x10], 0x0
0x7c1133 56               PUSH ESI
0x7c1134 8b750c           MOV ESI, [EBP+0xc]
0x7c1137 7615             JBE 0x7c114e
0x7c1139 57               PUSH EDI
0x7c113a 8b7d10           MOV EDI, [EBP+0x10]
0x7c113d ff36             PUSH DWORD [ESI]
0x7c113f 8b4604           MOV EAX, [ESI+0x4]
0x7c1142 ff               DB 0xff
0x7c1143 75               DB 0x75

************************************************************************
Hook mode: Usermode
Hook type: Inline/Trampoline
Process: 216 (alg.exe)
Victim module: WS2_32.dll (0x71ab0000 - 0x71ac7000)
Function: WS2_32.dll!closesocket at 0x71ab9639
Hook address: 0x7c10db
Hooking module: <unknown>

Disassembly(0):
0x71ab9639 e99d7ad08e       JMP 0x7c10db
0x71ab963e 51               PUSH ECX
0x71ab963f 813d2840ac714894ab71 CMP DWORD [0x71ac4028], 0x71ab9448
0x71ab9649 56               PUSH ESI
0x71ab964a 0f84aef3ffff     JZ 0x71ab89fe
0x71ab9650 e8               DB 0xe8

Disassembly(1):
0x7c10db 56               PUSH ESI
0x7c10dc bef4267d00       MOV ESI, 0x7d26f4
0x7c10e1 56               PUSH ESI
0x7c10e2 ff1574127b00     CALL DWORD [0x7b1274]
0x7c10e8 ff742408         PUSH DWORD [ESP+0x8]
0x7c10ec e859fcffff       CALL 0x7c0d4a
0x7c10f1 85c0             TEST EAX, EAX

************************************************************************
Hook mode: Usermode
Hook type: Inline/Trampoline
Process: 216 (alg.exe)
Victim module: WS2_32.dll (0x71ab0000 - 0x71ac7000)
Function: WS2_32.dll!send at 0x71ab428a
Hook address: 0x7c110f
Hooking module: <unknown>

Disassembly(0):
0x71ab428a e980ced08e       JMP 0x7c110f
0x71ab428f 83ec10           SUB ESP, 0x10
0x71ab4292 56               PUSH ESI
0x71ab4293 57               PUSH EDI
0x71ab4294 33ff             XOR EDI, EDI
0x71ab4296 813d2840ac714894ab71 CMP DWORD [0x71ac4028], 0x71ab9448
0x71ab42a0 0f               DB 0xf
0x71ab42a1 84               DB 0x84

Disassembly(1):
0x7c110f 55               PUSH EBP
0x7c1110 8bec             MOV EBP, ESP
0x7c1112 ff7510           PUSH DWORD [EBP+0x10]
0x7c1115 8b450c           MOV EAX, [EBP+0xc]
0x7c1118 ff7508           PUSH DWORD [EBP+0x8]
0x7c111b e838fdffff       CALL 0x7c0e58
0x7c1120 e8132affff       CALL 0x7b3b38
0x7c1125 5d               POP EBP
0x7c1126 ff               DB 0xff

************************************************************************
Hook mode: Usermode
Hook type: Inline/Trampoline
Process: 216 (alg.exe)
Victim module: CRYPT32.dll (0x77a80000 - 0x77b14000)
Function: CRYPT32.dll!PFXImportCertStore at 0x77aef748
Hook address: 0x7b3692
Hooking module: <unknown>

Disassembly(0):
0x77aef748 e9453fcc88       JMP 0x7b3692
0x77aef74d 83ec18           SUB ESP, 0x18
0x77aef750 53               PUSH EBX
0x77aef751 57               PUSH EDI
0x77aef752 33c0             XOR EAX, EAX
0x77aef754 8d7de8           LEA EDI, [EBP-0x18]
0x77aef757 33db             XOR EBX, EBX
0x77aef759 f74510dcefffef   TEST DWORD [EBP+0x10], 0xefffefdc

Disassembly(1):
0x7b3692 55               PUSH EBP
0x7b3693 8bec             MOV EBP, ESP
0x7b3695 81ec80000000     SUB ESP, 0x80
0x7b369b 53               PUSH EBX
0x7b369c 56               PUSH ESI
0x7b369d e896040000       CALL 0x7b3b38
0x7b36a2 ff7510           PUSH DWORD [EBP+0x10]
0x7b36a5 8b7508           MOV ESI, [EBP+0x8]
0x7b36a8 ff               DB 0xff
0x7b36a9 75               DB 0x75

************************************************************************
Hook mode: Usermode
Hook type: Inline/Trampoline
Process: 216 (alg.exe)
Victim module: WININET.dll (0x771b0000 - 0x77256000)
Function: WININET.dll!HttpQueryInfoA at 0x771c8c6a
Hook address: 0x7c7477
Hooking module: <unknown>

Disassembly(0):
0x771c8c6a e908e85f89       JMP 0x7c7477
0x771c8c6f 1c77             SBB AL, 0x77
0x771c8c71 e8fc89feff       CALL 0x771b1672
0x771c8c76 33db             XOR EBX, EBX
0x771c8c78 895ddc           MOV [EBP-0x24], EBX
0x771c8c7b 895de4           MOV [EBP-0x1c], EBX
0x771c8c7e 39               DB 0x39
0x771c8c7f 1d               DB 0x1d
0x771c8c80 50               PUSH EAX
0x771c8c81 98               CWDE

Disassembly(1):
0x7c7477 55               PUSH EBP
0x7c7478 8bec             MOV EBP, ESP
0x7c747a 56               PUSH ESI
0x7c747b 57               PUSH EDI
0x7c747c bf6c277d00       MOV EDI, 0x7d276c
0x7c7481 57               PUSH EDI
0x7c7482 ff1574127b00     CALL DWORD [0x7b1274]
0x7c7488 8b7508           MOV ESI, [EBP+0x8]
0x7c748b e8               DB 0xe8
0x7c748c 67e5ff           IN EAX, 0xff

************************************************************************
Hook mode: Usermode
Hook type: Inline/Trampoline
Process: 216 (alg.exe)
Victim module: WININET.dll (0x771b0000 - 0x77256000)
Function: WININET.dll!HttpSendRequestA at 0x771c76b8
Hook address: 0x7c7366
Hooking module: <unknown>

Disassembly(0):
0x771c76b8 e9a9fc5f89       JMP 0x7c7366
0x771c76bd 6a13             PUSH 0x13
0x771c76bf 6a00             PUSH 0x0
0x771c76c1 ff7518           PUSH DWORD [EBP+0x18]
0x771c76c4 ff7514           PUSH DWORD [EBP+0x14]
0x771c76c7 ff7510           PUSH DWORD [EBP+0x10]
0x771c76ca ff750c           PUSH DWORD [EBP+0xc]
0x771c76cd ff7508           PUSH DWORD [EBP+0x8]

Disassembly(1):
0x7c7366 55               PUSH EBP
0x7c7367 8bec             MOV EBP, ESP
0x7c7369 e8cac7feff       CALL 0x7b3b38
0x7c736e ff7510           PUSH DWORD [EBP+0x10]
0x7c7371 8b4518           MOV EAX, [EBP+0x18]
0x7c7374 ff750c           PUSH DWORD [EBP+0xc]
0x7c7377 8b4d14           MOV ECX, [EBP+0x14]
0x7c737a ff7508           PUSH DWORD [EBP+0x8]
0x7c737d 6a               DB 0x6a

************************************************************************
Hook mode: Usermode
Hook type: Inline/Trampoline
Process: 216 (alg.exe)
Victim module: WININET.dll (0x771b0000 - 0x77256000)
Function: WININET.dll!HttpSendRequestExA at 0x7721190d
Hook address: 0x7c73ac
Hooking module: <unknown>

Disassembly(0):
0x7721190d e99a5a5b89       JMP 0x7c73ac
0x77211912 53               PUSH EBX
0x77211913 56               PUSH ESI
0x77211914 57               PUSH EDI
0x77211915 33db             XOR EBX, EBX
0x77211917 33c0             XOR EAX, EAX
0x77211919 33c9             XOR ECX, ECX
0x7721191b 33d2             XOR EDX, EDX
0x7721191d 33ff             XOR EDI, EDI
0x7721191f 395d10           CMP [EBP+0x10], EBX
0x77211922 7539             JNZ 0x7721195d
0x77211924 8b               DB 0x8b

Disassembly(1):
0x7c73ac 55               PUSH EBP
0x7c73ad 8bec             MOV EBP, ESP
0x7c73af 53               PUSH EBX
0x7c73b0 e883c7feff       CALL 0x7b3b38
0x7c73b5 ff7518           PUSH DWORD [EBP+0x18]
0x7c73b8 8b450c           MOV EAX, [EBP+0xc]
0x7c73bb ff7514           PUSH DWORD [EBP+0x14]
0x7c73be 8b5d08           MOV EBX, [EBP+0x8]
0x7c73c1 ff7510           PUSH DWORD [EBP+0x10]

************************************************************************
Hook mode: Usermode
Hook type: Inline/Trampoline
Process: 216 (alg.exe)
Victim module: WININET.dll (0x771b0000 - 0x77256000)
Function: WININET.dll!HttpSendRequestExW at 0x771d53eb
Hook address: 0x7c7388
Hooking module: <unknown>

Disassembly(0):
0x771d53eb e9981f5f89       JMP 0x7c7388
0x771d53f0 83ec14           SUB ESP, 0x14
0x771d53f3 53               PUSH EBX
0x771d53f4 56               PUSH ESI
0x771d53f5 33c0             XOR EAX, EAX
0x771d53f7 57               PUSH EDI
0x771d53f8 33d2             XOR EDX, EDX
0x771d53fa 33db             XOR EBX, EBX
0x771d53fc 33ff             XOR EDI, EDI
0x771d53fe 33c9             XOR ECX, ECX
0x771d5400 395508           CMP [EBP+0x8], EDX

Disassembly(1):
0x7c7388 55               PUSH EBP
0x7c7389 8bec             MOV EBP, ESP
0x7c738b 53               PUSH EBX
0x7c738c e8a7c7feff       CALL 0x7b3b38
0x7c7391 ff7518           PUSH DWORD [EBP+0x18]
0x7c7394 8b450c           MOV EAX, [EBP+0xc]
0x7c7397 ff7514           PUSH DWORD [EBP+0x14]
0x7c739a 8b5d08           MOV EBX, [EBP+0x8]
0x7c739d ff7510           PUSH DWORD [EBP+0x10]

************************************************************************
Hook mode: Usermode
Hook type: Inline/Trampoline
Process: 216 (alg.exe)
Victim module: WININET.dll (0x771b0000 - 0x77256000)
Function: WININET.dll!HttpSendRequestW at 0x77211808
Hook address: 0x7c7344
Hooking module: <unknown>

Disassembly(0):
0x77211808 e9375b5b89       JMP 0x7c7344
0x7721180d 83ec14           SUB ESP, 0x14
0x77211810 53               PUSH EBX
0x77211811 33db             XOR EBX, EBX
0x77211813 56               PUSH ESI
0x77211814 33f6             XOR ESI, ESI
0x77211816 33c0             XOR EAX, EAX
0x77211818 395d08           CMP [EBP+0x8], EBX
0x7721181b 57               PUSH EDI
0x7721181c 895df8           MOV [EBP-0x8], EBX
0x7721181f 89               DB 0x89

Disassembly(1):
0x7c7344 55               PUSH EBP
0x7c7345 8bec             MOV EBP, ESP
0x7c7347 e8ecc7feff       CALL 0x7b3b38
0x7c734c ff7510           PUSH DWORD [EBP+0x10]
0x7c734f 8b4518           MOV EAX, [EBP+0x18]
0x7c7352 ff750c           PUSH DWORD [EBP+0xc]
0x7c7355 8b4d14           MOV ECX, [EBP+0x14]
0x7c7358 ff7508           PUSH DWORD [EBP+0x8]
0x7c735b 6a               DB 0x6a

************************************************************************
Hook mode: Usermode
Hook type: Inline/Trampoline
Process: 216 (alg.exe)
Victim module: WININET.dll (0x771b0000 - 0x77256000)
Function: WININET.dll!InternetCloseHandle at 0x771c61dc
Hook address: 0x7c7438
Hooking module: <unknown>

Disassembly(0):
0x771c61dc e957126089       JMP 0x7c7438
0x771c61e1 51               PUSH ECX
0x771c61e2 51               PUSH ECX
0x771c61e3 53               PUSH EBX
0x771c61e4 56               PUSH ESI
0x771c61e5 33db             XOR EBX, EBX
0x771c61e7 33f6             XOR ESI, ESI
0x771c61e9 f60544a3237701   TEST BYTE [0x7723a344], 0x1
0x771c61f0 895dfc           MOV [EBP-0x4], EBX
0x771c61f3 0f               DB 0xf

Disassembly(1):
0x7c7438 53               PUSH EBX
0x7c7439 56               PUSH ESI
0x7c743a 57               PUSH EDI
0x7c743b e8f8c6feff       CALL 0x7b3b38
0x7c7440 8b742410         MOV ESI, [ESP+0x10]
0x7c7444 56               PUSH ESI
0x7c7445 ff153c147b00     CALL DWORD [0x7b143c]
0x7c744b bf6c277d00       MOV EDI, 0x7d276c

************************************************************************
Hook mode: Usermode
Hook type: Inline/Trampoline
Process: 216 (alg.exe)
Victim module: WININET.dll (0x771b0000 - 0x77256000)
Function: WININET.dll!InternetQueryDataAvailable at 0x771d325f
Hook address: 0x7c7415
Hooking module: <unknown>

Disassembly(0):
0x771d325f e9b1415f89       JMP 0x7c7415
0x771d3264 83ec10           SUB ESP, 0x10
0x771d3267 53               PUSH EBX
0x771d3268 33db             XOR EBX, EBX
0x771d326a 391d50982377     CMP [0x77239850], EBX
0x771d3270 56               PUSH ESI
0x771d3271 57               PUSH EDI
0x771d3272 895dfc           MOV [EBP-0x4], EBX
0x771d3275 c7               DB 0xc7
0x771d3276 45               INC EBP

Disassembly(1):
0x7c7415 e81ec7feff       CALL 0x7b3b38
0x7c741a ff742410         PUSH DWORD [ESP+0x10]
0x7c741e ff742410         PUSH DWORD [ESP+0x10]
0x7c7422 ff742410         PUSH DWORD [ESP+0x10]
0x7c7426 6a00             PUSH 0x0
0x7c7428 6a00             PUSH 0x0
0x7c742a ff               DB 0xff
0x7c742b 7424             JZ 0x7c7451

************************************************************************
Hook mode: Usermode
Hook type: Inline/Trampoline
Process: 216 (alg.exe)
Victim module: WININET.dll (0x771b0000 - 0x77256000)
Function: WININET.dll!InternetReadFile at 0x771c9555
Hook address: 0x7c73d0
Hooking module: <unknown>

Disassembly(0):
0x771c9555 e976de5f89       JMP 0x7c73d0
0x771c955a 83ec24           SUB ESP, 0x24
0x771c955d 53               PUSH EBX
0x771c955e 33db             XOR EBX, EBX
0x771c9560 391d50982377     CMP [0x77239850], EBX
0x771c9566 57               PUSH EDI
0x771c9567 895df4           MOV [EBP-0xc], EBX
0x771c956a 895df8           MOV [EBP-0x8], EBX

Disassembly(1):
0x7c73d0 e863c7feff       CALL 0x7b3b38
0x7c73d5 33c0             XOR EAX, EAX
0x7c73d7 50               PUSH EAX
0x7c73d8 50               PUSH EAX
0x7c73d9 ff742418         PUSH DWORD [ESP+0x18]
0x7c73dd ff742418         PUSH DWORD [ESP+0x18]
0x7c73e1 ff742418         PUSH DWORD [ESP+0x18]
0x7c73e5 ff               DB 0xff
0x7c73e6 7424             JZ 0x7c740c

************************************************************************
Hook mode: Usermode
Hook type: Inline/Trampoline
Process: 216 (alg.exe)
Victim module: WININET.dll (0x771b0000 - 0x77256000)
Function: WININET.dll!InternetReadFileExA at 0x771f7e9a
Hook address: 0x7c73f2
Hooking module: <unknown>

Disassembly(0):
0x771f7e9a e953f55c89       JMP 0x7c73f2
0x771f7e9f 83ec20           SUB ESP, 0x20
0x771f7ea2 53               PUSH EBX
0x771f7ea3 56               PUSH ESI
0x771f7ea4 33c0             XOR EAX, EAX
0x771f7ea6 57               PUSH EDI
0x771f7ea7 33ff             XOR EDI, EDI
0x771f7ea9 40               INC EAX
0x771f7eaa 393d50982377     CMP [0x77239850], EDI
0x771f7eb0 89               DB 0x89
0x771f7eb1 7d               DB 0x7d

Disassembly(1):
0x7c73f2 e841c7feff       CALL 0x7b3b38
0x7c73f7 ff742410         PUSH DWORD [ESP+0x10]
0x7c73fb ff742410         PUSH DWORD [ESP+0x10]
0x7c73ff 6a00             PUSH 0x0
0x7c7401 6a00             PUSH 0x0
0x7c7403 ff742418         PUSH DWORD [ESP+0x18]
0x7c7407 ff               DB 0xff
0x7c7408 7424             JZ 0x7c742e

************************************************************************
Hook mode: Usermode
Hook type: Inline/Trampoline
Process: 888 (wscntfy.exe)
Victim module: ntdll.dll (0x7c900000 - 0x7c9b0000)
Function: ntdll.dll!NtCreateThread at 0x7c90d7d2
Hook address: 0x803b47
Hooking module: <unknown>

Disassembly(0):
0x7c90d7d2 e97063ef83       JMP 0x803b47
0x7c90d7d7 ba0003fe7f       MOV EDX, 0x7ffe0300
0x7c90d7dc ff12             CALL DWORD [EDX]
0x7c90d7de c22000           RET 0x20
0x7c90d7e1 90               NOP
0x7c90d7e2 90               NOP
0x7c90d7e3 90               NOP
0x7c90d7e4 90               NOP
0x7c90d7e5 90               NOP
0x7c90d7e6 90               NOP
0x7c90d7e7 b8               DB 0xb8
0x7c90d7e8 36               DB 0x36
0x7c90d7e9 00               DB 0x0

Disassembly(1):
0x803b47 55               PUSH EBP
0x803b48 8bec             MOV EBP, ESP
0x803b4a 83ec18           SUB ESP, 0x18
0x803b4d 53               PUSH EBX
0x803b4e 56               PUSH ESI
0x803b4f 57               PUSH EDI
0x803b50 8b7d14           MOV EDI, [EBP+0x14]
0x803b53 8d4514           LEA EAX, [EBP+0x14]
0x803b56 50               PUSH EAX
0x803b57 6a18             PUSH 0x18
0x803b59 8d45e8           LEA EAX, [EBP-0x18]
0x803b5c 50               PUSH EAX
0x803b5d 33f6             XOR ESI, ESI

************************************************************************
Hook mode: Usermode
Hook type: Inline/Trampoline
Process: 888 (wscntfy.exe)
Victim module: ntdll.dll (0x7c900000 - 0x7c9b0000)
Function: ntdll.dll!NtQueryDirectoryFile at 0x7c90df5e
Hook address: 0x803ca5
Hooking module: <unknown>

Disassembly(0):
0x7c90df5e e9425def83       JMP 0x803ca5
0x7c90df63 ba0003fe7f       MOV EDX, 0x7ffe0300
0x7c90df68 ff12             CALL DWORD [EDX]
0x7c90df6a c22c00           RET 0x2c
0x7c90df6d 90               NOP
0x7c90df6e 90               NOP
0x7c90df6f 90               NOP
0x7c90df70 90               NOP
0x7c90df71 90               NOP
0x7c90df72 90               NOP
0x7c90df73 b8               DB 0xb8
0x7c90df74 92               XCHG EDX, EAX
0x7c90df75 00               DB 0x0

Disassembly(1):
0x803ca5 55               PUSH EBP
0x803ca6 8bec             MOV EBP, ESP
0x803ca8 e88bfeffff       CALL 0x803b38
0x803cad ff7530           PUSH DWORD [EBP+0x30]
0x803cb0 ff752c           PUSH DWORD [EBP+0x2c]
0x803cb3 ff7528           PUSH DWORD [EBP+0x28]
0x803cb6 ff7524           PUSH DWORD [EBP+0x24]
0x803cb9 ff7520           PUSH DWORD [EBP+0x20]
0x803cbc ff               DB 0xff

************************************************************************
Hook mode: Usermode
Hook type: Inline/Trampoline
Process: 888 (wscntfy.exe)
Victim module: ntdll.dll (0x7c900000 - 0x7c9b0000)
Function: ntdll.dll!ZwCreateThread at 0x7c90d7d2
Hook address: 0x803b47
Hooking module: <unknown>

Disassembly(0):
0x7c90d7d2 e97063ef83       JMP 0x803b47
0x7c90d7d7 ba0003fe7f       MOV EDX, 0x7ffe0300
0x7c90d7dc ff12             CALL DWORD [EDX]
0x7c90d7de c22000           RET 0x20
0x7c90d7e1 90               NOP
0x7c90d7e2 90               NOP
0x7c90d7e3 90               NOP
0x7c90d7e4 90               NOP
0x7c90d7e5 90               NOP
0x7c90d7e6 90               NOP
0x7c90d7e7 b8               DB 0xb8
0x7c90d7e8 36               DB 0x36
0x7c90d7e9 00               DB 0x0

Disassembly(1):
0x803b47 55               PUSH EBP
0x803b48 8bec             MOV EBP, ESP
0x803b4a 83ec18           SUB ESP, 0x18
0x803b4d 53               PUSH EBX
0x803b4e 56               PUSH ESI
0x803b4f 57               PUSH EDI
0x803b50 8b7d14           MOV EDI, [EBP+0x14]
0x803b53 8d4514           LEA EAX, [EBP+0x14]
0x803b56 50               PUSH EAX
0x803b57 6a18             PUSH 0x18
0x803b59 8d45e8           LEA EAX, [EBP-0x18]
0x803b5c 50               PUSH EAX
0x803b5d 33f6             XOR ESI, ESI

************************************************************************
Hook mode: Usermode
Hook type: Inline/Trampoline
Process: 888 (wscntfy.exe)
Victim module: ntdll.dll (0x7c900000 - 0x7c9b0000)
Function: ntdll.dll!ZwQueryDirectoryFile at 0x7c90df5e
Hook address: 0x803ca5
Hooking module: <unknown>

Disassembly(0):
0x7c90df5e e9425def83       JMP 0x803ca5
0x7c90df63 ba0003fe7f       MOV EDX, 0x7ffe0300
0x7c90df68 ff12             CALL DWORD [EDX]
0x7c90df6a c22c00           RET 0x2c
0x7c90df6d 90               NOP
0x7c90df6e 90               NOP
0x7c90df6f 90               NOP
0x7c90df70 90               NOP
0x7c90df71 90               NOP
0x7c90df72 90               NOP
0x7c90df73 b8               DB 0xb8
0x7c90df74 92               XCHG EDX, EAX
0x7c90df75 00               DB 0x0

Disassembly(1):
0x803ca5 55               PUSH EBP
0x803ca6 8bec             MOV EBP, ESP
0x803ca8 e88bfeffff       CALL 0x803b38
0x803cad ff7530           PUSH DWORD [EBP+0x30]
0x803cb0 ff752c           PUSH DWORD [EBP+0x2c]
0x803cb3 ff7528           PUSH DWORD [EBP+0x28]
0x803cb6 ff7524           PUSH DWORD [EBP+0x24]
0x803cb9 ff7520           PUSH DWORD [EBP+0x20]
0x803cbc ff               DB 0xff

************************************************************************
Hook mode: Usermode
Hook type: Inline/Trampoline
Process: 888 (wscntfy.exe)
Victim module: USER32.dll (0x77d40000 - 0x77dd0000)
Function: USER32.dll!BeginPaint at 0x77d4b4b1
Hook address: 0x80fd3f
Hooking module: <unknown>

Disassembly(0):
0x77d4b4b1 e98948ac88       JMP 0x80fd3f
0x77d4b4b6 ba0003fe7f       MOV EDX, 0x7ffe0300
0x77d4b4bb ff12             CALL DWORD [EDX]
0x77d4b4bd c20800           RET 0x8
0x77d4b4c0 90               NOP
0x77d4b4c1 90               NOP
0x77d4b4c2 90               NOP
0x77d4b4c3 90               NOP
0x77d4b4c4 90               NOP
0x77d4b4c5 e9               DB 0xe9
0x77d4b4c6 d7               XLAT BYTE [EBX+AL]
0x77d4b4c7 48               DEC EAX
0x77d4b4c8 ac               LODSB

Disassembly(1):
0x80fd3f 833d84278200ff   CMP DWORD [0x822784], -0x1
0x80fd46 56               PUSH ESI
0x80fd47 8b74240c         MOV ESI, [ESP+0xc]
0x80fd4b 7540             JNZ 0x80fd8d
0x80fd4d 85f6             TEST ESI, ESI
0x80fd4f 743c             JZ 0x80fd8d
0x80fd51 ff1510118000     CALL DWORD [0x801110]

************************************************************************
Hook mode: Usermode
Hook type: Inline/Trampoline
Process: 888 (wscntfy.exe)
Victim module: USER32.dll (0x77d40000 - 0x77dd0000)
Function: USER32.dll!DefWindowProcA at 0x77d4df6b
Hook address: 0x80fe0c
Hooking module: <unknown>

Disassembly(0):
0x77d4df6b e99c1eac88       JMP 0x80fe0c
0x77d4df70 d477             AAM 0x77
0x77d4df72 e819a6ffff       CALL 0x77d48590
0x77d4df77 e890a6ffff       CALL 0x77d4860c
0x77d4df7c 833d6c00da7700   CMP DWORD [0x77da006c], 0x0

Disassembly(1):
0x80fe0c 55               PUSH EBP
0x80fe0d 8bec             MOV EBP, ESP
0x80fe0f 833d84278200ff   CMP DWORD [0x822784], -0x1
0x80fe16 56               PUSH ESI
0x80fe17 8b750c           MOV ESI, [EBP+0xc]
0x80fe1a 7512             JNZ 0x80fe2e
0x80fe1c 3b3578268200     CMP ESI, [0x822678]
0x80fe22 750a             JNZ 0x80fe2e

************************************************************************
Hook mode: Usermode
Hook type: Inline/Trampoline
Process: 888 (wscntfy.exe)
Victim module: USER32.dll (0x77d40000 - 0x77dd0000)
Function: USER32.dll!DefWindowProcW at 0x77d4b1e5
Hook address: 0x80fdd0
Hooking module: <unknown>

Disassembly(0):
0x77d4b1e5 e9e64bac88       JMP 0x80fdd0
0x77d4b1ea d477             AAM 0x77
0x77d4b1ec e89fd3ffff       CALL 0x77d48590
0x77d4b1f1 e816d4ffff       CALL 0x77d4860c
0x77d4b1f6 833d6c00da7700   CMP DWORD [0x77da006c], 0x0

Disassembly(1):
0x80fdd0 55               PUSH EBP
0x80fdd1 8bec             MOV EBP, ESP
0x80fdd3 833d84278200ff   CMP DWORD [0x822784], -0x1
0x80fdda 56               PUSH ESI
0x80fddb 8b750c           MOV ESI, [EBP+0xc]
0x80fdde 7512             JNZ 0x80fdf2
0x80fde0 3b3578268200     CMP ESI, [0x822678]
0x80fde6 750a             JNZ 0x80fdf2

************************************************************************
Hook mode: Usermode
Hook type: Inline/Trampoline
Process: 888 (wscntfy.exe)
Victim module: USER32.dll (0x77d40000 - 0x77dd0000)
Function: USER32.dll!EndPaint at 0x77d4b4c5
Hook address: 0x80fda1
Hooking module: <unknown>

Disassembly(0):
0x77d4b4c5 e9d748ac88       JMP 0x80fda1
0x77d4b4ca ba0003fe7f       MOV EDX, 0x7ffe0300
0x77d4b4cf ff12             CALL DWORD [EDX]
0x77d4b4d1 c20800           RET 0x8
0x77d4b4d4 90               NOP
0x77d4b4d5 90               NOP
0x77d4b4d6 90               NOP
0x77d4b4d7 90               NOP
0x77d4b4d8 90               NOP
0x77d4b4d9 8bff             MOV EDI, EDI
0x77d4b4db 55               PUSH EBP
0x77d4b4dc 8b               DB 0x8b

Disassembly(1):
0x80fda1 833d84278200ff   CMP DWORD [0x822784], -0x1
0x80fda8 751b             JNZ 0x80fdc5
0x80fdaa 837c240800       CMP DWORD [ESP+0x8], 0x0
0x80fdaf 7414             JZ 0x80fdc5
0x80fdb1 ff1510118000     CALL DWORD [0x801110]
0x80fdb7 39               DB 0x39
0x80fdb8 05               DB 0x5

************************************************************************
Hook mode: Usermode
Hook type: Inline/Trampoline
Process: 888 (wscntfy.exe)
Victim module: USER32.dll (0x77d40000 - 0x77dd0000)
Function: USER32.dll!GetClipboardData at 0x77d6fcb2
Hook address: 0x814fd5
Hooking module: <unknown>

Disassembly(0):
0x77d6fcb2 e91e53aa88       JMP 0x814fd5
0x77d6fcb7 83ec2c           SUB ESP, 0x2c
0x77d6fcba 56               PUSH ESI
0x77d6fcbb 57               PUSH EDI
0x77d6fcbc 8d45d4           LEA EAX, [EBP-0x2c]
0x77d6fcbf 50               PUSH EAX
0x77d6fcc0 ff7508           PUSH DWORD [EBP+0x8]
0x77d6fcc3 e8e8000000       CALL 0x77d6fdb0
0x77d6fcc8 8bf0             MOV ESI, EAX

Disassembly(1):
0x814fd5 55               PUSH EBP
0x814fd6 8bec             MOV EBP, ESP
0x814fd8 53               PUSH EBX
0x814fd9 56               PUSH ESI
0x814fda e859ebfeff       CALL 0x803b38
0x814fdf 8b7508           MOV ESI, [EBP+0x8]
0x814fe2 56               PUSH ESI
0x814fe3 ff1560138000     CALL DWORD [0x801360]
0x814fe9 8bd8             MOV EBX, EAX
0x814feb 85db             TEST EBX, EBX

************************************************************************
Hook mode: Usermode
Hook type: Inline/Trampoline
Process: 888 (wscntfy.exe)
Victim module: USER32.dll (0x77d40000 - 0x77dd0000)
Function: USER32.dll!TranslateMessage at 0x77d48bce
Hook address: 0x814ea0
Hooking module: <unknown>

Disassembly(0):
0x77d48bce e9cdc2ac88       JMP 0x814ea0
0x77d48bd3 56               PUSH ESI
0x77d48bd4 8b7508           MOV ESI, [EBP+0x8]
0x77d48bd7 66817e08e500     CMP WORD [ESI+0x8], 0xe5
0x77d48bdd 0f84a77e0200     JZ 0x77d70a8a
0x77d48be3 6a00             PUSH 0x0
0x77d48be5 56               PUSH ESI

Disassembly(1):
0x814ea0 55               PUSH EBP
0x814ea1 8bec             MOV EBP, ESP
0x814ea3 83e4f8           AND ESP, -0x8
0x814ea6 81ec1c030000     SUB ESP, 0x31c
0x814eac 53               PUSH EBX
0x814ead 8b5d08           MOV EBX, [EBP+0x8]
0x814eb0 56               PUSH ESI
0x814eb1 57               PUSH EDI
0x814eb2 85db             TEST EBX, EBX
0x814eb4 0f               DB 0xf
0x814eb5 8406             TEST [ESI], AL
0x814eb7 01               DB 0x1

************************************************************************
Hook mode: Usermode
Hook type: Inline/Trampoline
Process: 888 (wscntfy.exe)
Victim module: WS2_32.dll (0x71ab0000 - 0x71ac7000)
Function: WS2_32.dll!WSASend at 0x71ab6233
Hook address: 0x81112c
Hooking module: <unknown>

Disassembly(0):
0x71ab6233 e9f4aed58e       JMP 0x81112c
0x71ab6238 51               PUSH ECX
0x71ab6239 51               PUSH ECX
0x71ab623a 813d2840ac714894ab71 CMP DWORD [0x71ac4028], 0x71ab9448
0x71ab6244 56               PUSH ESI
0x71ab6245 0f847f540000     JZ 0x71abb6ca

Disassembly(1):
0x81112c 55               PUSH EBP
0x81112d 8bec             MOV EBP, ESP
0x81112f 837d1000         CMP DWORD [EBP+0x10], 0x0
0x811133 56               PUSH ESI
0x811134 8b750c           MOV ESI, [EBP+0xc]
0x811137 7615             JBE 0x81114e
0x811139 57               PUSH EDI
0x81113a 8b7d10           MOV EDI, [EBP+0x10]
0x81113d ff36             PUSH DWORD [ESI]
0x81113f 8b4604           MOV EAX, [ESI+0x4]
0x811142 ff               DB 0xff
0x811143 75               DB 0x75

************************************************************************
Hook mode: Usermode
Hook type: Inline/Trampoline
Process: 888 (wscntfy.exe)
Victim module: WS2_32.dll (0x71ab0000 - 0x71ac7000)
Function: WS2_32.dll!closesocket at 0x71ab9639
Hook address: 0x8110db
Hooking module: <unknown>

Disassembly(0):
0x71ab9639 e99d7ad58e       JMP 0x8110db
0x71ab963e 51               PUSH ECX
0x71ab963f 813d2840ac714894ab71 CMP DWORD [0x71ac4028], 0x71ab9448
0x71ab9649 56               PUSH ESI
0x71ab964a 0f84aef3ffff     JZ 0x71ab89fe
0x71ab9650 e8               DB 0xe8

Disassembly(1):
0x8110db 56               PUSH ESI
0x8110dc bef4268200       MOV ESI, 0x8226f4
0x8110e1 56               PUSH ESI
0x8110e2 ff1574128000     CALL DWORD [0x801274]
0x8110e8 ff742408         PUSH DWORD [ESP+0x8]
0x8110ec e859fcffff       CALL 0x810d4a
0x8110f1 85c0             TEST EAX, EAX

************************************************************************
Hook mode: Usermode
Hook type: Inline/Trampoline
Process: 888 (wscntfy.exe)
Victim module: WS2_32.dll (0x71ab0000 - 0x71ac7000)
Function: WS2_32.dll!send at 0x71ab428a
Hook address: 0x81110f
Hooking module: <unknown>

Disassembly(0):
0x71ab428a e980ced58e       JMP 0x81110f
0x71ab428f 83ec10           SUB ESP, 0x10
0x71ab4292 56               PUSH ESI
0x71ab4293 57               PUSH EDI
0x71ab4294 33ff             XOR EDI, EDI
0x71ab4296 813d2840ac714894ab71 CMP DWORD [0x71ac4028], 0x71ab9448
0x71ab42a0 0f               DB 0xf
0x71ab42a1 84               DB 0x84

Disassembly(1):
0x81110f 55               PUSH EBP
0x811110 8bec             MOV EBP, ESP
0x811112 ff7510           PUSH DWORD [EBP+0x10]
0x811115 8b450c           MOV EAX, [EBP+0xc]
0x811118 ff7508           PUSH DWORD [EBP+0x8]
0x81111b e838fdffff       CALL 0x810e58
0x811120 e8132affff       CALL 0x803b38
0x811125 5d               POP EBP
0x811126 ff               DB 0xff

************************************************************************
Hook mode: Usermode
Hook type: Inline/Trampoline
Process: 888 (wscntfy.exe)
Victim module: CRYPT32.dll (0x77a80000 - 0x77b14000)
Function: CRYPT32.dll!PFXImportCertStore at 0x77aef748
Hook address: 0x803692
Hooking module: <unknown>

Disassembly(0):
0x77aef748 e9453fd188       JMP 0x803692
0x77aef74d 83ec18           SUB ESP, 0x18
0x77aef750 53               PUSH EBX
0x77aef751 57               PUSH EDI
0x77aef752 33c0             XOR EAX, EAX
0x77aef754 8d7de8           LEA EDI, [EBP-0x18]
0x77aef757 33db             XOR EBX, EBX
0x77aef759 f74510dcefffef   TEST DWORD [EBP+0x10], 0xefffefdc

Disassembly(1):
0x803692 55               PUSH EBP
0x803693 8bec             MOV EBP, ESP
0x803695 81ec80000000     SUB ESP, 0x80
0x80369b 53               PUSH EBX
0x80369c 56               PUSH ESI
0x80369d e896040000       CALL 0x803b38
0x8036a2 ff7510           PUSH DWORD [EBP+0x10]
0x8036a5 8b7508           MOV ESI, [EBP+0x8]
0x8036a8 ff               DB 0xff
0x8036a9 75               DB 0x75

************************************************************************
Hook mode: Usermode
Hook type: Inline/Trampoline
Process: 888 (wscntfy.exe)
Victim module: WININET.dll (0x771b0000 - 0x77256000)
Function: WININET.dll!HttpQueryInfoA at 0x771c8c6a
Hook address: 0x817477
Hooking module: <unknown>

Disassembly(0):
0x771c8c6a e908e86489       JMP 0x817477
0x771c8c6f 1c77             SBB AL, 0x77
0x771c8c71 e8fc89feff       CALL 0x771b1672
0x771c8c76 33db             XOR EBX, EBX
0x771c8c78 895ddc           MOV [EBP-0x24], EBX
0x771c8c7b 895de4           MOV [EBP-0x1c], EBX
0x771c8c7e 39               DB 0x39
0x771c8c7f 1d               DB 0x1d
0x771c8c80 50               PUSH EAX
0x771c8c81 98               CWDE

Disassembly(1):
0x817477 55               PUSH EBP
0x817478 8bec             MOV EBP, ESP
0x81747a 56               PUSH ESI
0x81747b 57               PUSH EDI
0x81747c bf6c278200       MOV EDI, 0x82276c
0x817481 57               PUSH EDI
0x817482 ff1574128000     CALL DWORD [0x801274]
0x817488 8b7508           MOV ESI, [EBP+0x8]
0x81748b e8               DB 0xe8
0x81748c 67e5ff           IN EAX, 0xff

************************************************************************
Hook mode: Usermode
Hook type: Inline/Trampoline
Process: 888 (wscntfy.exe)
Victim module: WININET.dll (0x771b0000 - 0x77256000)
Function: WININET.dll!HttpSendRequestA at 0x771c76b8
Hook address: 0x817366
Hooking module: <unknown>

Disassembly(0):
0x771c76b8 e9a9fc6489       JMP 0x817366
0x771c76bd 6a13             PUSH 0x13
0x771c76bf 6a00             PUSH 0x0
0x771c76c1 ff7518           PUSH DWORD [EBP+0x18]
0x771c76c4 ff7514           PUSH DWORD [EBP+0x14]
0x771c76c7 ff7510           PUSH DWORD [EBP+0x10]
0x771c76ca ff750c           PUSH DWORD [EBP+0xc]
0x771c76cd ff7508           PUSH DWORD [EBP+0x8]

Disassembly(1):
0x817366 55               PUSH EBP
0x817367 8bec             MOV EBP, ESP
0x817369 e8cac7feff       CALL 0x803b38
0x81736e ff7510           PUSH DWORD [EBP+0x10]
0x817371 8b4518           MOV EAX, [EBP+0x18]
0x817374 ff750c           PUSH DWORD [EBP+0xc]
0x817377 8b4d14           MOV ECX, [EBP+0x14]
0x81737a ff7508           PUSH DWORD [EBP+0x8]
0x81737d 6a               DB 0x6a

************************************************************************
Hook mode: Usermode
Hook type: Inline/Trampoline
Process: 888 (wscntfy.exe)
Victim module: WININET.dll (0x771b0000 - 0x77256000)
Function: WININET.dll!HttpSendRequestExA at 0x7721190d
Hook address: 0x8173ac
Hooking module: <unknown>

Disassembly(0):
0x7721190d e99a5a6089       JMP 0x8173ac
0x77211912 53               PUSH EBX
0x77211913 56               PUSH ESI
0x77211914 57               PUSH EDI
0x77211915 33db             XOR EBX, EBX
0x77211917 33c0             XOR EAX, EAX
0x77211919 33c9             XOR ECX, ECX
0x7721191b 33d2             XOR EDX, EDX
0x7721191d 33ff             XOR EDI, EDI
0x7721191f 395d10           CMP [EBP+0x10], EBX
0x77211922 7539             JNZ 0x7721195d
0x77211924 8b               DB 0x8b

Disassembly(1):
0x8173ac 55               PUSH EBP
0x8173ad 8bec             MOV EBP, ESP
0x8173af 53               PUSH EBX
0x8173b0 e883c7feff       CALL 0x803b38
0x8173b5 ff7518           PUSH DWORD [EBP+0x18]
0x8173b8 8b450c           MOV EAX, [EBP+0xc]
0x8173bb ff7514           PUSH DWORD [EBP+0x14]
0x8173be 8b5d08           MOV EBX, [EBP+0x8]
0x8173c1 ff7510           PUSH DWORD [EBP+0x10]

************************************************************************
Hook mode: Usermode
Hook type: Inline/Trampoline
Process: 888 (wscntfy.exe)
Victim module: WININET.dll (0x771b0000 - 0x77256000)
Function: WININET.dll!HttpSendRequestExW at 0x771d53eb
Hook address: 0x817388
Hooking module: <unknown>

Disassembly(0):
0x771d53eb e9981f6489       JMP 0x817388
0x771d53f0 83ec14           SUB ESP, 0x14
0x771d53f3 53               PUSH EBX
0x771d53f4 56               PUSH ESI
0x771d53f5 33c0             XOR EAX, EAX
0x771d53f7 57               PUSH EDI
0x771d53f8 33d2             XOR EDX, EDX
0x771d53fa 33db             XOR EBX, EBX
0x771d53fc 33ff             XOR EDI, EDI
0x771d53fe 33c9             XOR ECX, ECX
0x771d5400 395508           CMP [EBP+0x8], EDX

Disassembly(1):
0x817388 55               PUSH EBP
0x817389 8bec             MOV EBP, ESP
0x81738b 53               PUSH EBX
0x81738c e8a7c7feff       CALL 0x803b38
0x817391 ff7518           PUSH DWORD [EBP+0x18]
0x817394 8b450c           MOV EAX, [EBP+0xc]
0x817397 ff7514           PUSH DWORD [EBP+0x14]
0x81739a 8b5d08           MOV EBX, [EBP+0x8]
0x81739d ff7510           PUSH DWORD [EBP+0x10]

************************************************************************
Hook mode: Usermode
Hook type: Inline/Trampoline
Process: 888 (wscntfy.exe)
Victim module: WININET.dll (0x771b0000 - 0x77256000)
Function: WININET.dll!HttpSendRequestW at 0x77211808
Hook address: 0x817344
Hooking module: <unknown>

Disassembly(0):
0x77211808 e9375b6089       JMP 0x817344
0x7721180d 83ec14           SUB ESP, 0x14
0x77211810 53               PUSH EBX
0x77211811 33db             XOR EBX, EBX
0x77211813 56               PUSH ESI
0x77211814 33f6             XOR ESI, ESI
0x77211816 33c0             XOR EAX, EAX
0x77211818 395d08           CMP [EBP+0x8], EBX
0x7721181b 57               PUSH EDI
0x7721181c 895df8           MOV [EBP-0x8], EBX
0x7721181f 89               DB 0x89

Disassembly(1):
0x817344 55               PUSH EBP
0x817345 8bec             MOV EBP, ESP
0x817347 e8ecc7feff       CALL 0x803b38
0x81734c ff7510           PUSH DWORD [EBP+0x10]
0x81734f 8b4518           MOV EAX, [EBP+0x18]
0x817352 ff750c           PUSH DWORD [EBP+0xc]
0x817355 8b4d14           MOV ECX, [EBP+0x14]
0x817358 ff7508           PUSH DWORD [EBP+0x8]
0x81735b 6a               DB 0x6a

************************************************************************
Hook mode: Usermode
Hook type: Inline/Trampoline
Process: 888 (wscntfy.exe)
Victim module: WININET.dll (0x771b0000 - 0x77256000)
Function: WININET.dll!InternetCloseHandle at 0x771c61dc
Hook address: 0x817438
Hooking module: <unknown>

Disassembly(0):
0x771c61dc e957126589       JMP 0x817438
0x771c61e1 51               PUSH ECX
0x771c61e2 51               PUSH ECX
0x771c61e3 53               PUSH EBX
0x771c61e4 56               PUSH ESI
0x771c61e5 33db             XOR EBX, EBX
0x771c61e7 33f6             XOR ESI, ESI
0x771c61e9 f60544a3237701   TEST BYTE [0x7723a344], 0x1
0x771c61f0 895dfc           MOV [EBP-0x4], EBX
0x771c61f3 0f               DB 0xf

Disassembly(1):
0x817438 53               PUSH EBX
0x817439 56               PUSH ESI
0x81743a 57               PUSH EDI
0x81743b e8f8c6feff       CALL 0x803b38
0x817440 8b742410         MOV ESI, [ESP+0x10]
0x817444 56               PUSH ESI
0x817445 ff153c148000     CALL DWORD [0x80143c]
0x81744b bf6c278200       MOV EDI, 0x82276c

************************************************************************
Hook mode: Usermode
Hook type: Inline/Trampoline
Process: 888 (wscntfy.exe)
Victim module: WININET.dll (0x771b0000 - 0x77256000)
Function: WININET.dll!InternetQueryDataAvailable at 0x771d325f
Hook address: 0x817415
Hooking module: <unknown>

Disassembly(0):
0x771d325f e9b1416489       JMP 0x817415
0x771d3264 83ec10           SUB ESP, 0x10
0x771d3267 53               PUSH EBX
0x771d3268 33db             XOR EBX, EBX
0x771d326a 391d50982377     CMP [0x77239850], EBX
0x771d3270 56               PUSH ESI
0x771d3271 57               PUSH EDI
0x771d3272 895dfc           MOV [EBP-0x4], EBX
0x771d3275 c7               DB 0xc7
0x771d3276 45               INC EBP

Disassembly(1):
0x817415 e81ec7feff       CALL 0x803b38
0x81741a ff742410         PUSH DWORD [ESP+0x10]
0x81741e ff742410         PUSH DWORD [ESP+0x10]
0x817422 ff742410         PUSH DWORD [ESP+0x10]
0x817426 6a00             PUSH 0x0
0x817428 6a00             PUSH 0x0
0x81742a ff               DB 0xff
0x81742b 7424             JZ 0x817451

************************************************************************
Hook mode: Usermode
Hook type: Inline/Trampoline
Process: 888 (wscntfy.exe)
Victim module: WININET.dll (0x771b0000 - 0x77256000)
Function: WININET.dll!InternetReadFile at 0x771c9555
Hook address: 0x8173d0
Hooking module: <unknown>

Disassembly(0):
0x771c9555 e976de6489       JMP 0x8173d0
0x771c955a 83ec24           SUB ESP, 0x24
0x771c955d 53               PUSH EBX
0x771c955e 33db             XOR EBX, EBX
0x771c9560 391d50982377     CMP [0x77239850], EBX
0x771c9566 57               PUSH EDI
0x771c9567 895df4           MOV [EBP-0xc], EBX
0x771c956a 895df8           MOV [EBP-0x8], EBX

Disassembly(1):
0x8173d0 e863c7feff       CALL 0x803b38
0x8173d5 33c0             XOR EAX, EAX
0x8173d7 50               PUSH EAX
0x8173d8 50               PUSH EAX
0x8173d9 ff742418         PUSH DWORD [ESP+0x18]
0x8173dd ff742418         PUSH DWORD [ESP+0x18]
0x8173e1 ff742418         PUSH DWORD [ESP+0x18]
0x8173e5 ff               DB 0xff
0x8173e6 7424             JZ 0x81740c

************************************************************************
Hook mode: Usermode
Hook type: Inline/Trampoline
Process: 888 (wscntfy.exe)
Victim module: WININET.dll (0x771b0000 - 0x77256000)
Function: WININET.dll!InternetReadFileExA at 0x771f7e9a
Hook address: 0x8173f2
Hooking module: <unknown>

Disassembly(0):
0x771f7e9a e953f56189       JMP 0x8173f2
0x771f7e9f 83ec20           SUB ESP, 0x20
0x771f7ea2 53               PUSH EBX
0x771f7ea3 56               PUSH ESI
0x771f7ea4 33c0             XOR EAX, EAX
0x771f7ea6 57               PUSH EDI
0x771f7ea7 33ff             XOR EDI, EDI
0x771f7ea9 40               INC EAX
0x771f7eaa 393d50982377     CMP [0x77239850], EDI
0x771f7eb0 89               DB 0x89
0x771f7eb1 7d               DB 0x7d

Disassembly(1):
0x8173f2 e841c7feff       CALL 0x803b38
0x8173f7 ff742410         PUSH DWORD [ESP+0x10]
0x8173fb ff742410         PUSH DWORD [ESP+0x10]
0x8173ff 6a00             PUSH 0x0
0x817401 6a00             PUSH 0x0
0x817403 ff742418         PUSH DWORD [ESP+0x18]
0x817407 ff               DB 0xff
0x817408 7424             JZ 0x81742e

************************************************************************
Hook mode: Usermode
Hook type: Inline/Trampoline
Process: 1084 (TPAutoConnect.e)
Victim module: ntdll.dll (0x7c900000 - 0x7c9b0000)
Function: ntdll.dll!NtCreateThread at 0x7c90d7d2
Hook address: 0xc53b47
Hooking module: <unknown>

Disassembly(0):
0x7c90d7d2 e970633484       JMP 0xc53b47
0x7c90d7d7 ba0003fe7f       MOV EDX, 0x7ffe0300
0x7c90d7dc ff12             CALL DWORD [EDX]
0x7c90d7de c22000           RET 0x20
0x7c90d7e1 90               NOP
0x7c90d7e2 90               NOP
0x7c90d7e3 90               NOP
0x7c90d7e4 90               NOP
0x7c90d7e5 90               NOP
0x7c90d7e6 90               NOP
0x7c90d7e7 b8               DB 0xb8
0x7c90d7e8 36               DB 0x36
0x7c90d7e9 00               DB 0x0

Disassembly(1):
0xc53b47 55               PUSH EBP
0xc53b48 8bec             MOV EBP, ESP
0xc53b4a 83ec18           SUB ESP, 0x18
0xc53b4d 53               PUSH EBX
0xc53b4e 56               PUSH ESI
0xc53b4f 57               PUSH EDI
0xc53b50 8b7d14           MOV EDI, [EBP+0x14]
0xc53b53 8d4514           LEA EAX, [EBP+0x14]
0xc53b56 50               PUSH EAX
0xc53b57 6a18             PUSH 0x18
0xc53b59 8d45e8           LEA EAX, [EBP-0x18]
0xc53b5c 50               PUSH EAX
0xc53b5d 33f6             XOR ESI, ESI

************************************************************************
Hook mode: Usermode
Hook type: Inline/Trampoline
Process: 1084 (TPAutoConnect.e)
Victim module: ntdll.dll (0x7c900000 - 0x7c9b0000)
Function: ntdll.dll!NtQueryDirectoryFile at 0x7c90df5e
Hook address: 0xc53ca5
Hooking module: <unknown>

Disassembly(0):
0x7c90df5e e9425d3484       JMP 0xc53ca5
0x7c90df63 ba0003fe7f       MOV EDX, 0x7ffe0300
0x7c90df68 ff12             CALL DWORD [EDX]
0x7c90df6a c22c00           RET 0x2c
0x7c90df6d 90               NOP
0x7c90df6e 90               NOP
0x7c90df6f 90               NOP
0x7c90df70 90               NOP
0x7c90df71 90               NOP
0x7c90df72 90               NOP
0x7c90df73 b8               DB 0xb8
0x7c90df74 92               XCHG EDX, EAX
0x7c90df75 00               DB 0x0

Disassembly(1):
0xc53ca5 55               PUSH EBP
0xc53ca6 8bec             MOV EBP, ESP
0xc53ca8 e88bfeffff       CALL 0xc53b38
0xc53cad ff7530           PUSH DWORD [EBP+0x30]
0xc53cb0 ff752c           PUSH DWORD [EBP+0x2c]
0xc53cb3 ff7528           PUSH DWORD [EBP+0x28]
0xc53cb6 ff7524           PUSH DWORD [EBP+0x24]
0xc53cb9 ff7520           PUSH DWORD [EBP+0x20]
0xc53cbc ff               DB 0xff

************************************************************************
Hook mode: Usermode
Hook type: Inline/Trampoline
Process: 1084 (TPAutoConnect.e)
Victim module: ntdll.dll (0x7c900000 - 0x7c9b0000)
Function: ntdll.dll!ZwCreateThread at 0x7c90d7d2
Hook address: 0xc53b47
Hooking module: <unknown>

Disassembly(0):
0x7c90d7d2 e970633484       JMP 0xc53b47
0x7c90d7d7 ba0003fe7f       MOV EDX, 0x7ffe0300
0x7c90d7dc ff12             CALL DWORD [EDX]
0x7c90d7de c22000           RET 0x20
0x7c90d7e1 90               NOP
0x7c90d7e2 90               NOP
0x7c90d7e3 90               NOP
0x7c90d7e4 90               NOP
0x7c90d7e5 90               NOP
0x7c90d7e6 90               NOP
0x7c90d7e7 b8               DB 0xb8
0x7c90d7e8 36               DB 0x36
0x7c90d7e9 00               DB 0x0

Disassembly(1):
0xc53b47 55               PUSH EBP
0xc53b48 8bec             MOV EBP, ESP
0xc53b4a 83ec18           SUB ESP, 0x18
0xc53b4d 53               PUSH EBX
0xc53b4e 56               PUSH ESI
0xc53b4f 57               PUSH EDI
0xc53b50 8b7d14           MOV EDI, [EBP+0x14]
0xc53b53 8d4514           LEA EAX, [EBP+0x14]
0xc53b56 50               PUSH EAX
0xc53b57 6a18             PUSH 0x18
0xc53b59 8d45e8           LEA EAX, [EBP-0x18]
0xc53b5c 50               PUSH EAX
0xc53b5d 33f6             XOR ESI, ESI

************************************************************************
Hook mode: Usermode
Hook type: Inline/Trampoline
Process: 1084 (TPAutoConnect.e)
Victim module: ntdll.dll (0x7c900000 - 0x7c9b0000)
Function: ntdll.dll!ZwQueryDirectoryFile at 0x7c90df5e
Hook address: 0xc53ca5
Hooking module: <unknown>

Disassembly(0):
0x7c90df5e e9425d3484       JMP 0xc53ca5
0x7c90df63 ba0003fe7f       MOV EDX, 0x7ffe0300
0x7c90df68 ff12             CALL DWORD [EDX]
0x7c90df6a c22c00           RET 0x2c
0x7c90df6d 90               NOP
0x7c90df6e 90               NOP
0x7c90df6f 90               NOP
0x7c90df70 90               NOP
0x7c90df71 90               NOP
0x7c90df72 90               NOP
0x7c90df73 b8               DB 0xb8
0x7c90df74 92               XCHG EDX, EAX
0x7c90df75 00               DB 0x0

Disassembly(1):
0xc53ca5 55               PUSH EBP
0xc53ca6 8bec             MOV EBP, ESP
0xc53ca8 e88bfeffff       CALL 0xc53b38
0xc53cad ff7530           PUSH DWORD [EBP+0x30]
0xc53cb0 ff752c           PUSH DWORD [EBP+0x2c]
0xc53cb3 ff7528           PUSH DWORD [EBP+0x28]
0xc53cb6 ff7524           PUSH DWORD [EBP+0x24]
0xc53cb9 ff7520           PUSH DWORD [EBP+0x20]
0xc53cbc ff               DB 0xff

************************************************************************
Hook mode: Usermode
Hook type: Inline/Trampoline
Process: 1084 (TPAutoConnect.e)
Victim module: USER32.dll (0x77d40000 - 0x77dd0000)
Function: USER32.dll!BeginPaint at 0x77d4b4b1
Hook address: 0xc5fd3f
Hooking module: <unknown>

Disassembly(0):
0x77d4b4b1 e98948f188       JMP 0xc5fd3f
0x77d4b4b6 ba0003fe7f       MOV EDX, 0x7ffe0300
0x77d4b4bb ff12             CALL DWORD [EDX]
0x77d4b4bd c20800           RET 0x8
0x77d4b4c0 90               NOP
0x77d4b4c1 90               NOP
0x77d4b4c2 90               NOP
0x77d4b4c3 90               NOP
0x77d4b4c4 90               NOP
0x77d4b4c5 e9               DB 0xe9
0x77d4b4c6 d7               XLAT BYTE [EBX+AL]
0x77d4b4c7 48               DEC EAX
0x77d4b4c8 f1               INT1

Disassembly(1):
0xc5fd3f 833d8427c700ff   CMP DWORD [0xc72784], -0x1
0xc5fd46 56               PUSH ESI
0xc5fd47 8b74240c         MOV ESI, [ESP+0xc]
0xc5fd4b 7540             JNZ 0xc5fd8d
0xc5fd4d 85f6             TEST ESI, ESI
0xc5fd4f 743c             JZ 0xc5fd8d
0xc5fd51 ff151011c500     CALL DWORD [0xc51110]

************************************************************************
Hook mode: Usermode
Hook type: Inline/Trampoline
Process: 1084 (TPAutoConnect.e)
Victim module: USER32.dll (0x77d40000 - 0x77dd0000)
Function: USER32.dll!DefWindowProcA at 0x77d4df6b
Hook address: 0xc5fe0c
Hooking module: <unknown>

Disassembly(0):
0x77d4df6b e99c1ef188       JMP 0xc5fe0c
0x77d4df70 d477             AAM 0x77
0x77d4df72 e819a6ffff       CALL 0x77d48590
0x77d4df77 e890a6ffff       CALL 0x77d4860c
0x77d4df7c 833d6c00da7700   CMP DWORD [0x77da006c], 0x0

Disassembly(1):
0xc5fe0c 55               PUSH EBP
0xc5fe0d 8bec             MOV EBP, ESP
0xc5fe0f 833d8427c700ff   CMP DWORD [0xc72784], -0x1
0xc5fe16 56               PUSH ESI
0xc5fe17 8b750c           MOV ESI, [EBP+0xc]
0xc5fe1a 7512             JNZ 0xc5fe2e
0xc5fe1c 3b357826c700     CMP ESI, [0xc72678]
0xc5fe22 750a             JNZ 0xc5fe2e

************************************************************************
Hook mode: Usermode
Hook type: Inline/Trampoline
Process: 1084 (TPAutoConnect.e)
Victim module: USER32.dll (0x77d40000 - 0x77dd0000)
Function: USER32.dll!DefWindowProcW at 0x77d4b1e5
Hook address: 0xc5fdd0
Hooking module: <unknown>

Disassembly(0):
0x77d4b1e5 e9e64bf188       JMP 0xc5fdd0
0x77d4b1ea d477             AAM 0x77
0x77d4b1ec e89fd3ffff       CALL 0x77d48590
0x77d4b1f1 e816d4ffff       CALL 0x77d4860c
0x77d4b1f6 833d6c00da7700   CMP DWORD [0x77da006c], 0x0

Disassembly(1):
0xc5fdd0 55               PUSH EBP
0xc5fdd1 8bec             MOV EBP, ESP
0xc5fdd3 833d8427c700ff   CMP DWORD [0xc72784], -0x1
0xc5fdda 56               PUSH ESI
0xc5fddb 8b750c           MOV ESI, [EBP+0xc]
0xc5fdde 7512             JNZ 0xc5fdf2
0xc5fde0 3b357826c700     CMP ESI, [0xc72678]
0xc5fde6 750a             JNZ 0xc5fdf2

************************************************************************
Hook mode: Usermode
Hook type: Inline/Trampoline
Process: 1084 (TPAutoConnect.e)
Victim module: USER32.dll (0x77d40000 - 0x77dd0000)
Function: USER32.dll!EndPaint at 0x77d4b4c5
Hook address: 0xc5fda1
Hooking module: <unknown>

Disassembly(0):
0x77d4b4c5 e9d748f188       JMP 0xc5fda1
0x77d4b4ca ba0003fe7f       MOV EDX, 0x7ffe0300
0x77d4b4cf ff12             CALL DWORD [EDX]
0x77d4b4d1 c20800           RET 0x8
0x77d4b4d4 90               NOP
0x77d4b4d5 90               NOP
0x77d4b4d6 90               NOP
0x77d4b4d7 90               NOP
0x77d4b4d8 90               NOP
0x77d4b4d9 8bff             MOV EDI, EDI
0x77d4b4db 55               PUSH EBP
0x77d4b4dc 8b               DB 0x8b

Disassembly(1):
0xc5fda1 833d8427c700ff   CMP DWORD [0xc72784], -0x1
0xc5fda8 751b             JNZ 0xc5fdc5
0xc5fdaa 837c240800       CMP DWORD [ESP+0x8], 0x0
0xc5fdaf 7414             JZ 0xc5fdc5
0xc5fdb1 ff151011c500     CALL DWORD [0xc51110]
0xc5fdb7 39               DB 0x39
0xc5fdb8 05               DB 0x5

************************************************************************
Hook mode: Usermode
Hook type: Inline/Trampoline
Process: 1084 (TPAutoConnect.e)
Victim module: USER32.dll (0x77d40000 - 0x77dd0000)
Function: USER32.dll!GetClipboardData at 0x77d6fcb2
Hook address: 0xc64fd5
Hooking module: <unknown>

Disassembly(0):
0x77d6fcb2 e91e53ef88       JMP 0xc64fd5
0x77d6fcb7 83ec2c           SUB ESP, 0x2c
0x77d6fcba 56               PUSH ESI
0x77d6fcbb 57               PUSH EDI
0x77d6fcbc 8d45d4           LEA EAX, [EBP-0x2c]
0x77d6fcbf 50               PUSH EAX
0x77d6fcc0 ff7508           PUSH DWORD [EBP+0x8]
0x77d6fcc3 e8e8000000       CALL 0x77d6fdb0
0x77d6fcc8 8bf0             MOV ESI, EAX

Disassembly(1):
0xc64fd5 55               PUSH EBP
0xc64fd6 8bec             MOV EBP, ESP
0xc64fd8 53               PUSH EBX
0xc64fd9 56               PUSH ESI
0xc64fda e859ebfeff       CALL 0xc53b38
0xc64fdf 8b7508           MOV ESI, [EBP+0x8]
0xc64fe2 56               PUSH ESI
0xc64fe3 ff156013c500     CALL DWORD [0xc51360]
0xc64fe9 8bd8             MOV EBX, EAX
0xc64feb 85db             TEST EBX, EBX

************************************************************************
Hook mode: Usermode
Hook type: Inline/Trampoline
Process: 1084 (TPAutoConnect.e)
Victim module: USER32.dll (0x77d40000 - 0x77dd0000)
Function: USER32.dll!TranslateMessage at 0x77d48bce
Hook address: 0xc64ea0
Hooking module: <unknown>

Disassembly(0):
0x77d48bce e9cdc2f188       JMP 0xc64ea0
0x77d48bd3 56               PUSH ESI
0x77d48bd4 8b7508           MOV ESI, [EBP+0x8]
0x77d48bd7 66817e08e500     CMP WORD [ESI+0x8], 0xe5
0x77d48bdd 0f84a77e0200     JZ 0x77d70a8a
0x77d48be3 6a00             PUSH 0x0
0x77d48be5 56               PUSH ESI

Disassembly(1):
0xc64ea0 55               PUSH EBP
0xc64ea1 8bec             MOV EBP, ESP
0xc64ea3 83e4f8           AND ESP, -0x8
0xc64ea6 81ec1c030000     SUB ESP, 0x31c
0xc64eac 53               PUSH EBX
0xc64ead 8b5d08           MOV EBX, [EBP+0x8]
0xc64eb0 56               PUSH ESI
0xc64eb1 57               PUSH EDI
0xc64eb2 85db             TEST EBX, EBX
0xc64eb4 0f               DB 0xf
0xc64eb5 8406             TEST [ESI], AL
0xc64eb7 01               DB 0x1

************************************************************************
Hook mode: Usermode
Hook type: Inline/Trampoline
Process: 1084 (TPAutoConnect.e)
Victim module: WS2_32.dll (0x71ab0000 - 0x71ac7000)
Function: WS2_32.dll!WSASend at 0x71ab6233
Hook address: 0xc6112c
Hooking module: <unknown>

Disassembly(0):
0x71ab6233 e9f4ae1a8f       JMP 0xc6112c
0x71ab6238 51               PUSH ECX
0x71ab6239 51               PUSH ECX
0x71ab623a 813d2840ac714894ab71 CMP DWORD [0x71ac4028], 0x71ab9448
0x71ab6244 56               PUSH ESI
0x71ab6245 0f847f540000     JZ 0x71abb6ca

Disassembly(1):
0xc6112c 55               PUSH EBP
0xc6112d 8bec             MOV EBP, ESP
0xc6112f 837d1000         CMP DWORD [EBP+0x10], 0x0
0xc61133 56               PUSH ESI
0xc61134 8b750c           MOV ESI, [EBP+0xc]
0xc61137 7615             JBE 0xc6114e
0xc61139 57               PUSH EDI
0xc6113a 8b7d10           MOV EDI, [EBP+0x10]
0xc6113d ff36             PUSH DWORD [ESI]
0xc6113f 8b4604           MOV EAX, [ESI+0x4]
0xc61142 ff               DB 0xff
0xc61143 75               DB 0x75

************************************************************************
Hook mode: Usermode
Hook type: Inline/Trampoline
Process: 1084 (TPAutoConnect.e)
Victim module: WS2_32.dll (0x71ab0000 - 0x71ac7000)
Function: WS2_32.dll!closesocket at 0x71ab9639
Hook address: 0xc610db
Hooking module: <unknown>

Disassembly(0):
0x71ab9639 e99d7a1a8f       JMP 0xc610db
0x71ab963e 51               PUSH ECX
0x71ab963f 813d2840ac714894ab71 CMP DWORD [0x71ac4028], 0x71ab9448
0x71ab9649 56               PUSH ESI
0x71ab964a 0f84aef3ffff     JZ 0x71ab89fe
0x71ab9650 e8               DB 0xe8

Disassembly(1):
0xc610db 56               PUSH ESI
0xc610dc bef426c700       MOV ESI, 0xc726f4
0xc610e1 56               PUSH ESI
0xc610e2 ff157412c500     CALL DWORD [0xc51274]
0xc610e8 ff742408         PUSH DWORD [ESP+0x8]
0xc610ec e859fcffff       CALL 0xc60d4a
0xc610f1 85c0             TEST EAX, EAX

************************************************************************
Hook mode: Usermode
Hook type: Inline/Trampoline
Process: 1084 (TPAutoConnect.e)
Victim module: WS2_32.dll (0x71ab0000 - 0x71ac7000)
Function: WS2_32.dll!send at 0x71ab428a
Hook address: 0xc6110f
Hooking module: <unknown>

Disassembly(0):
0x71ab428a e980ce1a8f       JMP 0xc6110f
0x71ab428f 83ec10           SUB ESP, 0x10
0x71ab4292 56               PUSH ESI
0x71ab4293 57               PUSH EDI
0x71ab4294 33ff             XOR EDI, EDI
0x71ab4296 813d2840ac714894ab71 CMP DWORD [0x71ac4028], 0x71ab9448
0x71ab42a0 0f               DB 0xf
0x71ab42a1 84               DB 0x84

Disassembly(1):
0xc6110f 55               PUSH EBP
0xc61110 8bec             MOV EBP, ESP
0xc61112 ff7510           PUSH DWORD [EBP+0x10]
0xc61115 8b450c           MOV EAX, [EBP+0xc]
0xc61118 ff7508           PUSH DWORD [EBP+0x8]
0xc6111b e838fdffff       CALL 0xc60e58
0xc61120 e8132affff       CALL 0xc53b38
0xc61125 5d               POP EBP
0xc61126 ff               DB 0xff

************************************************************************
Hook mode: Usermode
Hook type: Inline/Trampoline
Process: 1084 (TPAutoConnect.e)
Victim module: CRYPT32.dll (0x77a80000 - 0x77b14000)
Function: CRYPT32.dll!PFXImportCertStore at 0x77aef748
Hook address: 0xc53692
Hooking module: <unknown>

Disassembly(0):
0x77aef748 e9453f1689       JMP 0xc53692
0x77aef74d 83ec18           SUB ESP, 0x18
0x77aef750 53               PUSH EBX
0x77aef751 57               PUSH EDI
0x77aef752 33c0             XOR EAX, EAX
0x77aef754 8d7de8           LEA EDI, [EBP-0x18]
0x77aef757 33db             XOR EBX, EBX
0x77aef759 f74510dcefffef   TEST DWORD [EBP+0x10], 0xefffefdc

Disassembly(1):
0xc53692 55               PUSH EBP
0xc53693 8bec             MOV EBP, ESP
0xc53695 81ec80000000     SUB ESP, 0x80
0xc5369b 53               PUSH EBX
0xc5369c 56               PUSH ESI
0xc5369d e896040000       CALL 0xc53b38
0xc536a2 ff7510           PUSH DWORD [EBP+0x10]
0xc536a5 8b7508           MOV ESI, [EBP+0x8]
0xc536a8 ff               DB 0xff
0xc536a9 75               DB 0x75

************************************************************************
Hook mode: Usermode
Hook type: Inline/Trampoline
Process: 1084 (TPAutoConnect.e)
Victim module: WININET.dll (0x771b0000 - 0x77256000)
Function: WININET.dll!HttpQueryInfoA at 0x771c8c6a
Hook address: 0xc67477
Hooking module: <unknown>

Disassembly(0):
0x771c8c6a e908e8a989       JMP 0xc67477
0x771c8c6f 1c77             SBB AL, 0x77
0x771c8c71 e8fc89feff       CALL 0x771b1672
0x771c8c76 33db             XOR EBX, EBX
0x771c8c78 895ddc           MOV [EBP-0x24], EBX
0x771c8c7b 895de4           MOV [EBP-0x1c], EBX
0x771c8c7e 39               DB 0x39
0x771c8c7f 1d               DB 0x1d
0x771c8c80 50               PUSH EAX
0x771c8c81 98               CWDE

Disassembly(1):
0xc67477 55               PUSH EBP
0xc67478 8bec             MOV EBP, ESP
0xc6747a 56               PUSH ESI
0xc6747b 57               PUSH EDI
0xc6747c bf6c27c700       MOV EDI, 0xc7276c
0xc67481 57               PUSH EDI
0xc67482 ff157412c500     CALL DWORD [0xc51274]
0xc67488 8b7508           MOV ESI, [EBP+0x8]
0xc6748b e8               DB 0xe8
0xc6748c 67e5ff           IN EAX, 0xff

************************************************************************
Hook mode: Usermode
Hook type: Inline/Trampoline
Process: 1084 (TPAutoConnect.e)
Victim module: WININET.dll (0x771b0000 - 0x77256000)
Function: WININET.dll!HttpSendRequestA at 0x771c76b8
Hook address: 0xc67366
Hooking module: <unknown>

Disassembly(0):
0x771c76b8 e9a9fca989       JMP 0xc67366
0x771c76bd 6a13             PUSH 0x13
0x771c76bf 6a00             PUSH 0x0
0x771c76c1 ff7518           PUSH DWORD [EBP+0x18]
0x771c76c4 ff7514           PUSH DWORD [EBP+0x14]
0x771c76c7 ff7510           PUSH DWORD [EBP+0x10]
0x771c76ca ff750c           PUSH DWORD [EBP+0xc]
0x771c76cd ff7508           PUSH DWORD [EBP+0x8]

Disassembly(1):
0xc67366 55               PUSH EBP
0xc67367 8bec             MOV EBP, ESP
0xc67369 e8cac7feff       CALL 0xc53b38
0xc6736e ff7510           PUSH DWORD [EBP+0x10]
0xc67371 8b4518           MOV EAX, [EBP+0x18]
0xc67374 ff750c           PUSH DWORD [EBP+0xc]
0xc67377 8b4d14           MOV ECX, [EBP+0x14]
0xc6737a ff7508           PUSH DWORD [EBP+0x8]
0xc6737d 6a               DB 0x6a

************************************************************************
Hook mode: Usermode
Hook type: Inline/Trampoline
Process: 1084 (TPAutoConnect.e)
Victim module: WININET.dll (0x771b0000 - 0x77256000)
Function: WININET.dll!HttpSendRequestExA at 0x7721190d
Hook address: 0xc673ac
Hooking module: <unknown>

Disassembly(0):
0x7721190d e99a5aa589       JMP 0xc673ac
0x77211912 53               PUSH EBX
0x77211913 56               PUSH ESI
0x77211914 57               PUSH EDI
0x77211915 33db             XOR EBX, EBX
0x77211917 33c0             XOR EAX, EAX
0x77211919 33c9             XOR ECX, ECX
0x7721191b 33d2             XOR EDX, EDX
0x7721191d 33ff             XOR EDI, EDI
0x7721191f 395d10           CMP [EBP+0x10], EBX
0x77211922 7539             JNZ 0x7721195d
0x77211924 8b               DB 0x8b

Disassembly(1):
0xc673ac 55               PUSH EBP
0xc673ad 8bec             MOV EBP, ESP
0xc673af 53               PUSH EBX
0xc673b0 e883c7feff       CALL 0xc53b38
0xc673b5 ff7518           PUSH DWORD [EBP+0x18]
0xc673b8 8b450c           MOV EAX, [EBP+0xc]
0xc673bb ff7514           PUSH DWORD [EBP+0x14]
0xc673be 8b5d08           MOV EBX, [EBP+0x8]
0xc673c1 ff7510           PUSH DWORD [EBP+0x10]

************************************************************************
Hook mode: Usermode
Hook type: Inline/Trampoline
Process: 1084 (TPAutoConnect.e)
Victim module: WININET.dll (0x771b0000 - 0x77256000)
Function: WININET.dll!HttpSendRequestExW at 0x771d53eb
Hook address: 0xc67388
Hooking module: <unknown>

Disassembly(0):
0x771d53eb e9981fa989       JMP 0xc67388
0x771d53f0 83ec14           SUB ESP, 0x14
0x771d53f3 53               PUSH EBX
0x771d53f4 56               PUSH ESI
0x771d53f5 33c0             XOR EAX, EAX
0x771d53f7 57               PUSH EDI
0x771d53f8 33d2             XOR EDX, EDX
0x771d53fa 33db             XOR EBX, EBX
0x771d53fc 33ff             XOR EDI, EDI
0x771d53fe 33c9             XOR ECX, ECX
0x771d5400 395508           CMP [EBP+0x8], EDX

Disassembly(1):
0xc67388 55               PUSH EBP
0xc67389 8bec             MOV EBP, ESP
0xc6738b 53               PUSH EBX
0xc6738c e8a7c7feff       CALL 0xc53b38
0xc67391 ff7518           PUSH DWORD [EBP+0x18]
0xc67394 8b450c           MOV EAX, [EBP+0xc]
0xc67397 ff7514           PUSH DWORD [EBP+0x14]
0xc6739a 8b5d08           MOV EBX, [EBP+0x8]
0xc6739d ff7510           PUSH DWORD [EBP+0x10]

************************************************************************
Hook mode: Usermode
Hook type: Inline/Trampoline
Process: 1084 (TPAutoConnect.e)
Victim module: WININET.dll (0x771b0000 - 0x77256000)
Function: WININET.dll!HttpSendRequestW at 0x77211808
Hook address: 0xc67344
Hooking module: <unknown>

Disassembly(0):
0x77211808 e9375ba589       JMP 0xc67344
0x7721180d 83ec14           SUB ESP, 0x14
0x77211810 53               PUSH EBX
0x77211811 33db             XOR EBX, EBX
0x77211813 56               PUSH ESI
0x77211814 33f6             XOR ESI, ESI
0x77211816 33c0             XOR EAX, EAX
0x77211818 395d08           CMP [EBP+0x8], EBX
0x7721181b 57               PUSH EDI
0x7721181c 895df8           MOV [EBP-0x8], EBX
0x7721181f 89               DB 0x89

Disassembly(1):
0xc67344 55               PUSH EBP
0xc67345 8bec             MOV EBP, ESP
0xc67347 e8ecc7feff       CALL 0xc53b38
0xc6734c ff7510           PUSH DWORD [EBP+0x10]
0xc6734f 8b4518           MOV EAX, [EBP+0x18]
0xc67352 ff750c           PUSH DWORD [EBP+0xc]
0xc67355 8b4d14           MOV ECX, [EBP+0x14]
0xc67358 ff7508           PUSH DWORD [EBP+0x8]
0xc6735b 6a               DB 0x6a

************************************************************************
Hook mode: Usermode
Hook type: Inline/Trampoline
Process: 1084 (TPAutoConnect.e)
Victim module: WININET.dll (0x771b0000 - 0x77256000)
Function: WININET.dll!InternetCloseHandle at 0x771c61dc
Hook address: 0xc67438
Hooking module: <unknown>

Disassembly(0):
0x771c61dc e95712aa89       JMP 0xc67438
0x771c61e1 51               PUSH ECX
0x771c61e2 51               PUSH ECX
0x771c61e3 53               PUSH EBX
0x771c61e4 56               PUSH ESI
0x771c61e5 33db             XOR EBX, EBX
0x771c61e7 33f6             XOR ESI, ESI
0x771c61e9 f60544a3237701   TEST BYTE [0x7723a344], 0x1
0x771c61f0 895dfc           MOV [EBP-0x4], EBX
0x771c61f3 0f               DB 0xf

Disassembly(1):
0xc67438 53               PUSH EBX
0xc67439 56               PUSH ESI
0xc6743a 57               PUSH EDI
0xc6743b e8f8c6feff       CALL 0xc53b38
0xc67440 8b742410         MOV ESI, [ESP+0x10]
0xc67444 56               PUSH ESI
0xc67445 ff153c14c500     CALL DWORD [0xc5143c]
0xc6744b bf6c27c700       MOV EDI, 0xc7276c

************************************************************************
Hook mode: Usermode
Hook type: Inline/Trampoline
Process: 1084 (TPAutoConnect.e)
Victim module: WININET.dll (0x771b0000 - 0x77256000)
Function: WININET.dll!InternetQueryDataAvailable at 0x771d325f
Hook address: 0xc67415
Hooking module: <unknown>

Disassembly(0):
0x771d325f e9b141a989       JMP 0xc67415
0x771d3264 83ec10           SUB ESP, 0x10
0x771d3267 53               PUSH EBX
0x771d3268 33db             XOR EBX, EBX
0x771d326a 391d50982377     CMP [0x77239850], EBX
0x771d3270 56               PUSH ESI
0x771d3271 57               PUSH EDI
0x771d3272 895dfc           MOV [EBP-0x4], EBX
0x771d3275 c7               DB 0xc7
0x771d3276 45               INC EBP

Disassembly(1):
0xc67415 e81ec7feff       CALL 0xc53b38
0xc6741a ff742410         PUSH DWORD [ESP+0x10]
0xc6741e ff742410         PUSH DWORD [ESP+0x10]
0xc67422 ff742410         PUSH DWORD [ESP+0x10]
0xc67426 6a00             PUSH 0x0
0xc67428 6a00             PUSH 0x0
0xc6742a ff               DB 0xff
0xc6742b 7424             JZ 0xc67451

************************************************************************
Hook mode: Usermode
Hook type: Inline/Trampoline
Process: 1084 (TPAutoConnect.e)
Victim module: WININET.dll (0x771b0000 - 0x77256000)
Function: WININET.dll!InternetReadFile at 0x771c9555
Hook address: 0xc673d0
Hooking module: <unknown>

Disassembly(0):
0x771c9555 e976dea989       JMP 0xc673d0
0x771c955a 83ec24           SUB ESP, 0x24
0x771c955d 53               PUSH EBX
0x771c955e 33db             XOR EBX, EBX
0x771c9560 391d50982377     CMP [0x77239850], EBX
0x771c9566 57               PUSH EDI
0x771c9567 895df4           MOV [EBP-0xc], EBX
0x771c956a 895df8           MOV [EBP-0x8], EBX

Disassembly(1):
0xc673d0 e863c7feff       CALL 0xc53b38
0xc673d5 33c0             XOR EAX, EAX
0xc673d7 50               PUSH EAX
0xc673d8 50               PUSH EAX
0xc673d9 ff742418         PUSH DWORD [ESP+0x18]
0xc673dd ff742418         PUSH DWORD [ESP+0x18]
0xc673e1 ff742418         PUSH DWORD [ESP+0x18]
0xc673e5 ff               DB 0xff
0xc673e6 7424             JZ 0xc6740c

************************************************************************
Hook mode: Usermode
Hook type: Inline/Trampoline
Process: 1084 (TPAutoConnect.e)
Victim module: WININET.dll (0x771b0000 - 0x77256000)
Function: WININET.dll!InternetReadFileExA at 0x771f7e9a
Hook address: 0xc673f2
Hooking module: <unknown>

Disassembly(0):
0x771f7e9a e953f5a689       JMP 0xc673f2
0x771f7e9f 83ec20           SUB ESP, 0x20
0x771f7ea2 53               PUSH EBX
0x771f7ea3 56               PUSH ESI
0x771f7ea4 33c0             XOR EAX, EAX
0x771f7ea6 57               PUSH EDI
0x771f7ea7 33ff             XOR EDI, EDI
0x771f7ea9 40               INC EAX
0x771f7eaa 393d50982377     CMP [0x77239850], EDI
0x771f7eb0 89               DB 0x89
0x771f7eb1 7d               DB 0x7d

Disassembly(1):
0xc673f2 e841c7feff       CALL 0xc53b38
0xc673f7 ff742410         PUSH DWORD [ESP+0x10]
0xc673fb ff742410         PUSH DWORD [ESP+0x10]
0xc673ff 6a00             PUSH 0x0
0xc67401 6a00             PUSH 0x0
0xc67403 ff742418         PUSH DWORD [ESP+0x18]
0xc67407 ff               DB 0xff
0xc67408 7424             JZ 0xc6742e

************************************************************************
Hook mode: Usermode
Hook type: Inline/Trampoline
Process: 1732 (wuauclt.exe)
Victim module: ntdll.dll (0x7c900000 - 0x7c9b0000)
Function: ntdll.dll!NtCreateThread at 0x7c90d7d2
Hook address: 0x1003b47
Hooking module: <unknown>

Disassembly(0):
0x7c90d7d2 e970636f84       JMP 0x1003b47
0x7c90d7d7 ba0003fe7f       MOV EDX, 0x7ffe0300
0x7c90d7dc ff12             CALL DWORD [EDX]
0x7c90d7de c22000           RET 0x20
0x7c90d7e1 90               NOP
0x7c90d7e2 90               NOP
0x7c90d7e3 90               NOP
0x7c90d7e4 90               NOP
0x7c90d7e5 90               NOP
0x7c90d7e6 90               NOP
0x7c90d7e7 b8               DB 0xb8
0x7c90d7e8 36               DB 0x36
0x7c90d7e9 00               DB 0x0

Disassembly(1):
0x1003b47 55               PUSH EBP
0x1003b48 8bec             MOV EBP, ESP
0x1003b4a 83ec18           SUB ESP, 0x18
0x1003b4d 53               PUSH EBX
0x1003b4e 56               PUSH ESI
0x1003b4f 57               PUSH EDI
0x1003b50 8b7d14           MOV EDI, [EBP+0x14]
0x1003b53 8d4514           LEA EAX, [EBP+0x14]
0x1003b56 50               PUSH EAX
0x1003b57 6a18             PUSH 0x18
0x1003b59 8d45e8           LEA EAX, [EBP-0x18]
0x1003b5c 50               PUSH EAX
0x1003b5d 33f6             XOR ESI, ESI

************************************************************************
Hook mode: Usermode
Hook type: Inline/Trampoline
Process: 1732 (wuauclt.exe)
Victim module: ntdll.dll (0x7c900000 - 0x7c9b0000)
Function: ntdll.dll!NtQueryDirectoryFile at 0x7c90df5e
Hook address: 0x1003ca5
Hooking module: <unknown>

Disassembly(0):
0x7c90df5e e9425d6f84       JMP 0x1003ca5
0x7c90df63 ba0003fe7f       MOV EDX, 0x7ffe0300
0x7c90df68 ff12             CALL DWORD [EDX]
0x7c90df6a c22c00           RET 0x2c
0x7c90df6d 90               NOP
0x7c90df6e 90               NOP
0x7c90df6f 90               NOP
0x7c90df70 90               NOP
0x7c90df71 90               NOP
0x7c90df72 90               NOP
0x7c90df73 b8               DB 0xb8
0x7c90df74 92               XCHG EDX, EAX
0x7c90df75 00               DB 0x0

Disassembly(1):
0x1003ca5 55               PUSH EBP
0x1003ca6 8bec             MOV EBP, ESP
0x1003ca8 e88bfeffff       CALL 0x1003b38
0x1003cad ff7530           PUSH DWORD [EBP+0x30]
0x1003cb0 ff752c           PUSH DWORD [EBP+0x2c]
0x1003cb3 ff7528           PUSH DWORD [EBP+0x28]
0x1003cb6 ff7524           PUSH DWORD [EBP+0x24]
0x1003cb9 ff7520           PUSH DWORD [EBP+0x20]
0x1003cbc ff               DB 0xff

************************************************************************
Hook mode: Usermode
Hook type: Inline/Trampoline
Process: 1732 (wuauclt.exe)
Victim module: ntdll.dll (0x7c900000 - 0x7c9b0000)
Function: ntdll.dll!ZwCreateThread at 0x7c90d7d2
Hook address: 0x1003b47
Hooking module: <unknown>

Disassembly(0):
0x7c90d7d2 e970636f84       JMP 0x1003b47
0x7c90d7d7 ba0003fe7f       MOV EDX, 0x7ffe0300
0x7c90d7dc ff12             CALL DWORD [EDX]
0x7c90d7de c22000           RET 0x20
0x7c90d7e1 90               NOP
0x7c90d7e2 90               NOP
0x7c90d7e3 90               NOP
0x7c90d7e4 90               NOP
0x7c90d7e5 90               NOP
0x7c90d7e6 90               NOP
0x7c90d7e7 b8               DB 0xb8
0x7c90d7e8 36               DB 0x36
0x7c90d7e9 00               DB 0x0

Disassembly(1):
0x1003b47 55               PUSH EBP
0x1003b48 8bec             MOV EBP, ESP
0x1003b4a 83ec18           SUB ESP, 0x18
0x1003b4d 53               PUSH EBX
0x1003b4e 56               PUSH ESI
0x1003b4f 57               PUSH EDI
0x1003b50 8b7d14           MOV EDI, [EBP+0x14]
0x1003b53 8d4514           LEA EAX, [EBP+0x14]
0x1003b56 50               PUSH EAX
0x1003b57 6a18             PUSH 0x18
0x1003b59 8d45e8           LEA EAX, [EBP-0x18]
0x1003b5c 50               PUSH EAX
0x1003b5d 33f6             XOR ESI, ESI

************************************************************************
Hook mode: Usermode
Hook type: Inline/Trampoline
Process: 1732 (wuauclt.exe)
Victim module: ntdll.dll (0x7c900000 - 0x7c9b0000)
Function: ntdll.dll!ZwQueryDirectoryFile at 0x7c90df5e
Hook address: 0x1003ca5
Hooking module: <unknown>

Disassembly(0):
0x7c90df5e e9425d6f84       JMP 0x1003ca5
0x7c90df63 ba0003fe7f       MOV EDX, 0x7ffe0300
0x7c90df68 ff12             CALL DWORD [EDX]
0x7c90df6a c22c00           RET 0x2c
0x7c90df6d 90               NOP
0x7c90df6e 90               NOP
0x7c90df6f 90               NOP
0x7c90df70 90               NOP
0x7c90df71 90               NOP
0x7c90df72 90               NOP
0x7c90df73 b8               DB 0xb8
0x7c90df74 92               XCHG EDX, EAX
0x7c90df75 00               DB 0x0

Disassembly(1):
0x1003ca5 55               PUSH EBP
0x1003ca6 8bec             MOV EBP, ESP
0x1003ca8 e88bfeffff       CALL 0x1003b38
0x1003cad ff7530           PUSH DWORD [EBP+0x30]
0x1003cb0 ff752c           PUSH DWORD [EBP+0x2c]
0x1003cb3 ff7528           PUSH DWORD [EBP+0x28]
0x1003cb6 ff7524           PUSH DWORD [EBP+0x24]
0x1003cb9 ff7520           PUSH DWORD [EBP+0x20]
0x1003cbc ff               DB 0xff

************************************************************************
Hook mode: Usermode
Hook type: Inline/Trampoline
Process: 1732 (wuauclt.exe)
Victim module: USER32.dll (0x77d40000 - 0x77dd0000)
Function: USER32.dll!BeginPaint at 0x77d4b4b1
Hook address: 0x100fd3f
Hooking module: <unknown>

Disassembly(0):
0x77d4b4b1 e989482c89       JMP 0x100fd3f
0x77d4b4b6 ba0003fe7f       MOV EDX, 0x7ffe0300
0x77d4b4bb ff12             CALL DWORD [EDX]
0x77d4b4bd c20800           RET 0x8
0x77d4b4c0 90               NOP
0x77d4b4c1 90               NOP
0x77d4b4c2 90               NOP
0x77d4b4c3 90               NOP
0x77d4b4c4 90               NOP
0x77d4b4c5 e9               DB 0xe9
0x77d4b4c6 d7               XLAT BYTE [EBX+AL]
0x77d4b4c7 48               DEC EAX
0x77d4b4c8 2c               DB 0x2c

Disassembly(1):
0x100fd3f 833d84270201ff   CMP DWORD [0x1022784], -0x1
0x100fd46 56               PUSH ESI
0x100fd47 8b74240c         MOV ESI, [ESP+0xc]
0x100fd4b 7540             JNZ 0x100fd8d
0x100fd4d 85f6             TEST ESI, ESI
0x100fd4f 743c             JZ 0x100fd8d
0x100fd51 ff1510110001     CALL DWORD [0x1001110]

************************************************************************
Hook mode: Usermode
Hook type: Inline/Trampoline
Process: 1732 (wuauclt.exe)
Victim module: USER32.dll (0x77d40000 - 0x77dd0000)
Function: USER32.dll!DefWindowProcA at 0x77d4df6b
Hook address: 0x100fe0c
Hooking module: <unknown>

Disassembly(0):
0x77d4df6b e99c1e2c89       JMP 0x100fe0c
0x77d4df70 d477             AAM 0x77
0x77d4df72 e819a6ffff       CALL 0x77d48590
0x77d4df77 e890a6ffff       CALL 0x77d4860c
0x77d4df7c 833d6c00da7700   CMP DWORD [0x77da006c], 0x0

Disassembly(1):
0x100fe0c 55               PUSH EBP
0x100fe0d 8bec             MOV EBP, ESP
0x100fe0f 833d84270201ff   CMP DWORD [0x1022784], -0x1
0x100fe16 56               PUSH ESI
0x100fe17 8b750c           MOV ESI, [EBP+0xc]
0x100fe1a 7512             JNZ 0x100fe2e
0x100fe1c 3b3578260201     CMP ESI, [0x1022678]
0x100fe22 750a             JNZ 0x100fe2e

************************************************************************
Hook mode: Usermode
Hook type: Inline/Trampoline
Process: 1732 (wuauclt.exe)
Victim module: USER32.dll (0x77d40000 - 0x77dd0000)
Function: USER32.dll!DefWindowProcW at 0x77d4b1e5
Hook address: 0x100fdd0
Hooking module: <unknown>

Disassembly(0):
0x77d4b1e5 e9e64b2c89       JMP 0x100fdd0
0x77d4b1ea d477             AAM 0x77
0x77d4b1ec e89fd3ffff       CALL 0x77d48590
0x77d4b1f1 e816d4ffff       CALL 0x77d4860c
0x77d4b1f6 833d6c00da7700   CMP DWORD [0x77da006c], 0x0

Disassembly(1):
0x100fdd0 55               PUSH EBP
0x100fdd1 8bec             MOV EBP, ESP
0x100fdd3 833d84270201ff   CMP DWORD [0x1022784], -0x1
0x100fdda 56               PUSH ESI
0x100fddb 8b750c           MOV ESI, [EBP+0xc]
0x100fdde 7512             JNZ 0x100fdf2
0x100fde0 3b3578260201     CMP ESI, [0x1022678]
0x100fde6 750a             JNZ 0x100fdf2

************************************************************************
Hook mode: Usermode
Hook type: Inline/Trampoline
Process: 1732 (wuauclt.exe)
Victim module: USER32.dll (0x77d40000 - 0x77dd0000)
Function: USER32.dll!EndPaint at 0x77d4b4c5
Hook address: 0x100fda1
Hooking module: <unknown>

Disassembly(0):
0x77d4b4c5 e9d7482c89       JMP 0x100fda1
0x77d4b4ca ba0003fe7f       MOV EDX, 0x7ffe0300
0x77d4b4cf ff12             CALL DWORD [EDX]
0x77d4b4d1 c20800           RET 0x8
0x77d4b4d4 90               NOP
0x77d4b4d5 90               NOP
0x77d4b4d6 90               NOP
0x77d4b4d7 90               NOP
0x77d4b4d8 90               NOP
0x77d4b4d9 8bff             MOV EDI, EDI
0x77d4b4db 55               PUSH EBP
0x77d4b4dc 8b               DB 0x8b

Disassembly(1):
0x100fda1 833d84270201ff   CMP DWORD [0x1022784], -0x1
0x100fda8 751b             JNZ 0x100fdc5
0x100fdaa 837c240800       CMP DWORD [ESP+0x8], 0x0
0x100fdaf 7414             JZ 0x100fdc5
0x100fdb1 ff1510110001     CALL DWORD [0x1001110]
0x100fdb7 39               DB 0x39
0x100fdb8 05               DB 0x5

************************************************************************
Hook mode: Usermode
Hook type: Inline/Trampoline
Process: 1732 (wuauclt.exe)
Victim module: USER32.dll (0x77d40000 - 0x77dd0000)
Function: USER32.dll!GetClipboardData at 0x77d6fcb2
Hook address: 0x1014fd5
Hooking module: <unknown>

Disassembly(0):
0x77d6fcb2 e91e532a89       JMP 0x1014fd5
0x77d6fcb7 83ec2c           SUB ESP, 0x2c
0x77d6fcba 56               PUSH ESI
0x77d6fcbb 57               PUSH EDI
0x77d6fcbc 8d45d4           LEA EAX, [EBP-0x2c]
0x77d6fcbf 50               PUSH EAX
0x77d6fcc0 ff7508           PUSH DWORD [EBP+0x8]
0x77d6fcc3 e8e8000000       CALL 0x77d6fdb0
0x77d6fcc8 8bf0             MOV ESI, EAX

Disassembly(1):
0x1014fd5 55               PUSH EBP
0x1014fd6 8bec             MOV EBP, ESP
0x1014fd8 53               PUSH EBX
0x1014fd9 56               PUSH ESI
0x1014fda e859ebfeff       CALL 0x1003b38
0x1014fdf 8b7508           MOV ESI, [EBP+0x8]
0x1014fe2 56               PUSH ESI
0x1014fe3 ff1560130001     CALL DWORD [0x1001360]
0x1014fe9 8bd8             MOV EBX, EAX
0x1014feb 85db             TEST EBX, EBX

************************************************************************
Hook mode: Usermode
Hook type: Inline/Trampoline
Process: 1732 (wuauclt.exe)
Victim module: USER32.dll (0x77d40000 - 0x77dd0000)
Function: USER32.dll!TranslateMessage at 0x77d48bce
Hook address: 0x1014ea0
Hooking module: <unknown>

Disassembly(0):
0x77d48bce e9cdc22c89       JMP 0x1014ea0
0x77d48bd3 56               PUSH ESI
0x77d48bd4 8b7508           MOV ESI, [EBP+0x8]
0x77d48bd7 66817e08e500     CMP WORD [ESI+0x8], 0xe5
0x77d48bdd 0f84a77e0200     JZ 0x77d70a8a
0x77d48be3 6a00             PUSH 0x0
0x77d48be5 56               PUSH ESI

Disassembly(1):
0x1014ea0 55               PUSH EBP
0x1014ea1 8bec             MOV EBP, ESP
0x1014ea3 83e4f8           AND ESP, -0x8
0x1014ea6 81ec1c030000     SUB ESP, 0x31c
0x1014eac 53               PUSH EBX
0x1014ead 8b5d08           MOV EBX, [EBP+0x8]
0x1014eb0 56               PUSH ESI
0x1014eb1 57               PUSH EDI
0x1014eb2 85db             TEST EBX, EBX
0x1014eb4 0f               DB 0xf
0x1014eb5 8406             TEST [ESI], AL
0x1014eb7 01               DB 0x1

************************************************************************
Hook mode: Usermode
Hook type: Inline/Trampoline
Process: 1732 (wuauclt.exe)
Victim module: WS2_32.dll (0x71ab0000 - 0x71ac7000)
Function: WS2_32.dll!WSASend at 0x71ab6233
Hook address: 0x101112c
Hooking module: <unknown>

Disassembly(0):
0x71ab6233 e9f4ae558f       JMP 0x101112c
0x71ab6238 51               PUSH ECX
0x71ab6239 51               PUSH ECX
0x71ab623a 813d2840ac714894ab71 CMP DWORD [0x71ac4028], 0x71ab9448
0x71ab6244 56               PUSH ESI
0x71ab6245 0f847f540000     JZ 0x71abb6ca

Disassembly(1):
0x101112c 55               PUSH EBP
0x101112d 8bec             MOV EBP, ESP
0x101112f 837d1000         CMP DWORD [EBP+0x10], 0x0
0x1011133 56               PUSH ESI
0x1011134 8b750c           MOV ESI, [EBP+0xc]
0x1011137 7615             JBE 0x101114e
0x1011139 57               PUSH EDI
0x101113a 8b7d10           MOV EDI, [EBP+0x10]
0x101113d ff36             PUSH DWORD [ESI]
0x101113f 8b4604           MOV EAX, [ESI+0x4]
0x1011142 ff               DB 0xff
0x1011143 75               DB 0x75

************************************************************************
Hook mode: Usermode
Hook type: Inline/Trampoline
Process: 1732 (wuauclt.exe)
Victim module: WS2_32.dll (0x71ab0000 - 0x71ac7000)
Function: WS2_32.dll!closesocket at 0x71ab9639
Hook address: 0x10110db
Hooking module: <unknown>

Disassembly(0):
0x71ab9639 e99d7a558f       JMP 0x10110db
0x71ab963e 51               PUSH ECX
0x71ab963f 813d2840ac714894ab71 CMP DWORD [0x71ac4028], 0x71ab9448
0x71ab9649 56               PUSH ESI
0x71ab964a 0f84aef3ffff     JZ 0x71ab89fe
0x71ab9650 e8               DB 0xe8

Disassembly(1):
0x10110db 56               PUSH ESI
0x10110dc bef4260201       MOV ESI, 0x10226f4
0x10110e1 56               PUSH ESI
0x10110e2 ff1574120001     CALL DWORD [0x1001274]
0x10110e8 ff742408         PUSH DWORD [ESP+0x8]
0x10110ec e859fcffff       CALL 0x1010d4a
0x10110f1 85c0             TEST EAX, EAX

************************************************************************
Hook mode: Usermode
Hook type: Inline/Trampoline
Process: 1732 (wuauclt.exe)
Victim module: WS2_32.dll (0x71ab0000 - 0x71ac7000)
Function: WS2_32.dll!send at 0x71ab428a
Hook address: 0x101110f
Hooking module: <unknown>

Disassembly(0):
0x71ab428a e980ce558f       JMP 0x101110f
0x71ab428f 83ec10           SUB ESP, 0x10
0x71ab4292 56               PUSH ESI
0x71ab4293 57               PUSH EDI
0x71ab4294 33ff             XOR EDI, EDI
0x71ab4296 813d2840ac714894ab71 CMP DWORD [0x71ac4028], 0x71ab9448
0x71ab42a0 0f               DB 0xf
0x71ab42a1 84               DB 0x84

Disassembly(1):
0x101110f 55               PUSH EBP
0x1011110 8bec             MOV EBP, ESP
0x1011112 ff7510           PUSH DWORD [EBP+0x10]
0x1011115 8b450c           MOV EAX, [EBP+0xc]
0x1011118 ff7508           PUSH DWORD [EBP+0x8]
0x101111b e838fdffff       CALL 0x1010e58
0x1011120 e8132affff       CALL 0x1003b38
0x1011125 5d               POP EBP
0x1011126 ff               DB 0xff

************************************************************************
Hook mode: Usermode
Hook type: Inline/Trampoline
Process: 1732 (wuauclt.exe)
Victim module: CRYPT32.dll (0x77a80000 - 0x77b14000)
Function: CRYPT32.dll!PFXImportCertStore at 0x77aef748
Hook address: 0x1003692
Hooking module: <unknown>

Disassembly(0):
0x77aef748 e9453f5189       JMP 0x1003692
0x77aef74d 83ec18           SUB ESP, 0x18
0x77aef750 53               PUSH EBX
0x77aef751 57               PUSH EDI
0x77aef752 33c0             XOR EAX, EAX
0x77aef754 8d7de8           LEA EDI, [EBP-0x18]
0x77aef757 33db             XOR EBX, EBX
0x77aef759 f74510dcefffef   TEST DWORD [EBP+0x10], 0xefffefdc

Disassembly(1):
0x1003692 55               PUSH EBP
0x1003693 8bec             MOV EBP, ESP
0x1003695 81ec80000000     SUB ESP, 0x80
0x100369b 53               PUSH EBX
0x100369c 56               PUSH ESI
0x100369d e896040000       CALL 0x1003b38
0x10036a2 ff7510           PUSH DWORD [EBP+0x10]
0x10036a5 8b7508           MOV ESI, [EBP+0x8]
0x10036a8 ff               DB 0xff
0x10036a9 75               DB 0x75

************************************************************************
Hook mode: Usermode
Hook type: Inline/Trampoline
Process: 1732 (wuauclt.exe)
Victim module: WININET.dll (0x771b0000 - 0x77256000)
Function: WININET.dll!HttpQueryInfoA at 0x771c8c6a
Hook address: 0x1017477
Hooking module: <unknown>

Disassembly(0):
0x771c8c6a e908e8e489       JMP 0x1017477
0x771c8c6f 1c77             SBB AL, 0x77
0x771c8c71 e8fc89feff       CALL 0x771b1672
0x771c8c76 33db             XOR EBX, EBX
0x771c8c78 895ddc           MOV [EBP-0x24], EBX
0x771c8c7b 895de4           MOV [EBP-0x1c], EBX
0x771c8c7e 39               DB 0x39
0x771c8c7f 1d               DB 0x1d
0x771c8c80 50               PUSH EAX
0x771c8c81 98               CWDE

Disassembly(1):
0x1017477 55               PUSH EBP
0x1017478 8bec             MOV EBP, ESP
0x101747a 56               PUSH ESI
0x101747b 57               PUSH EDI
0x101747c bf6c270201       MOV EDI, 0x102276c
0x1017481 57               PUSH EDI
0x1017482 ff1574120001     CALL DWORD [0x1001274]
0x1017488 8b7508           MOV ESI, [EBP+0x8]
0x101748b e8               DB 0xe8
0x101748c 67e5ff           IN EAX, 0xff

************************************************************************
Hook mode: Usermode
Hook type: Inline/Trampoline
Process: 1732 (wuauclt.exe)
Victim module: WININET.dll (0x771b0000 - 0x77256000)
Function: WININET.dll!HttpSendRequestA at 0x771c76b8
Hook address: 0x1017366
Hooking module: <unknown>

Disassembly(0):
0x771c76b8 e9a9fce489       JMP 0x1017366
0x771c76bd 6a13             PUSH 0x13
0x771c76bf 6a00             PUSH 0x0
0x771c76c1 ff7518           PUSH DWORD [EBP+0x18]
0x771c76c4 ff7514           PUSH DWORD [EBP+0x14]
0x771c76c7 ff7510           PUSH DWORD [EBP+0x10]
0x771c76ca ff750c           PUSH DWORD [EBP+0xc]
0x771c76cd ff7508           PUSH DWORD [EBP+0x8]

Disassembly(1):
0x1017366 55               PUSH EBP
0x1017367 8bec             MOV EBP, ESP
0x1017369 e8cac7feff       CALL 0x1003b38
0x101736e ff7510           PUSH DWORD [EBP+0x10]
0x1017371 8b4518           MOV EAX, [EBP+0x18]
0x1017374 ff750c           PUSH DWORD [EBP+0xc]
0x1017377 8b4d14           MOV ECX, [EBP+0x14]
0x101737a ff7508           PUSH DWORD [EBP+0x8]
0x101737d 6a               DB 0x6a

************************************************************************
Hook mode: Usermode
Hook type: Inline/Trampoline
Process: 1732 (wuauclt.exe)
Victim module: WININET.dll (0x771b0000 - 0x77256000)
Function: WININET.dll!HttpSendRequestExA at 0x7721190d
Hook address: 0x10173ac
Hooking module: <unknown>

Disassembly(0):
0x7721190d e99a5ae089       JMP 0x10173ac
0x77211912 53               PUSH EBX
0x77211913 56               PUSH ESI
0x77211914 57               PUSH EDI
0x77211915 33db             XOR EBX, EBX
0x77211917 33c0             XOR EAX, EAX
0x77211919 33c9             XOR ECX, ECX
0x7721191b 33d2             XOR EDX, EDX
0x7721191d 33ff             XOR EDI, EDI
0x7721191f 395d10           CMP [EBP+0x10], EBX
0x77211922 7539             JNZ 0x7721195d
0x77211924 8b               DB 0x8b

Disassembly(1):
0x10173ac 55               PUSH EBP
0x10173ad 8bec             MOV EBP, ESP
0x10173af 53               PUSH EBX
0x10173b0 e883c7feff       CALL 0x1003b38
0x10173b5 ff7518           PUSH DWORD [EBP+0x18]
0x10173b8 8b450c           MOV EAX, [EBP+0xc]
0x10173bb ff7514           PUSH DWORD [EBP+0x14]
0x10173be 8b5d08           MOV EBX, [EBP+0x8]
0x10173c1 ff7510           PUSH DWORD [EBP+0x10]

************************************************************************
Hook mode: Usermode
Hook type: Inline/Trampoline
Process: 1732 (wuauclt.exe)
Victim module: WININET.dll (0x771b0000 - 0x77256000)
Function: WININET.dll!HttpSendRequestExW at 0x771d53eb
Hook address: 0x1017388
Hooking module: <unknown>

Disassembly(0):
0x771d53eb e9981fe489       JMP 0x1017388
0x771d53f0 83ec14           SUB ESP, 0x14
0x771d53f3 53               PUSH EBX
0x771d53f4 56               PUSH ESI
0x771d53f5 33c0             XOR EAX, EAX
0x771d53f7 57               PUSH EDI
0x771d53f8 33d2             XOR EDX, EDX
0x771d53fa 33db             XOR EBX, EBX
0x771d53fc 33ff             XOR EDI, EDI
0x771d53fe 33c9             XOR ECX, ECX
0x771d5400 395508           CMP [EBP+0x8], EDX

Disassembly(1):
0x1017388 55               PUSH EBP
0x1017389 8bec             MOV EBP, ESP
0x101738b 53               PUSH EBX
0x101738c e8a7c7feff       CALL 0x1003b38
0x1017391 ff7518           PUSH DWORD [EBP+0x18]
0x1017394 8b450c           MOV EAX, [EBP+0xc]
0x1017397 ff7514           PUSH DWORD [EBP+0x14]
0x101739a 8b5d08           MOV EBX, [EBP+0x8]
0x101739d ff7510           PUSH DWORD [EBP+0x10]

************************************************************************
Hook mode: Usermode
Hook type: Inline/Trampoline
Process: 1732 (wuauclt.exe)
Victim module: WININET.dll (0x771b0000 - 0x77256000)
Function: WININET.dll!HttpSendRequestW at 0x77211808
Hook address: 0x1017344
Hooking module: <unknown>

Disassembly(0):
0x77211808 e9375be089       JMP 0x1017344
0x7721180d 83ec14           SUB ESP, 0x14
0x77211810 53               PUSH EBX
0x77211811 33db             XOR EBX, EBX
0x77211813 56               PUSH ESI
0x77211814 33f6             XOR ESI, ESI
0x77211816 33c0             XOR EAX, EAX
0x77211818 395d08           CMP [EBP+0x8], EBX
0x7721181b 57               PUSH EDI
0x7721181c 895df8           MOV [EBP-0x8], EBX
0x7721181f 89               DB 0x89

Disassembly(1):
0x1017344 55               PUSH EBP
0x1017345 8bec             MOV EBP, ESP
0x1017347 e8ecc7feff       CALL 0x1003b38
0x101734c ff7510           PUSH DWORD [EBP+0x10]
0x101734f 8b4518           MOV EAX, [EBP+0x18]
0x1017352 ff750c           PUSH DWORD [EBP+0xc]
0x1017355 8b4d14           MOV ECX, [EBP+0x14]
0x1017358 ff7508           PUSH DWORD [EBP+0x8]
0x101735b 6a               DB 0x6a

************************************************************************
Hook mode: Usermode
Hook type: Inline/Trampoline
Process: 1732 (wuauclt.exe)
Victim module: WININET.dll (0x771b0000 - 0x77256000)
Function: WININET.dll!InternetCloseHandle at 0x771c61dc
Hook address: 0x1017438
Hooking module: <unknown>

Disassembly(0):
0x771c61dc e95712e589       JMP 0x1017438
0x771c61e1 51               PUSH ECX
0x771c61e2 51               PUSH ECX
0x771c61e3 53               PUSH EBX
0x771c61e4 56               PUSH ESI
0x771c61e5 33db             XOR EBX, EBX
0x771c61e7 33f6             XOR ESI, ESI
0x771c61e9 f60544a3237701   TEST BYTE [0x7723a344], 0x1
0x771c61f0 895dfc           MOV [EBP-0x4], EBX
0x771c61f3 0f               DB 0xf

Disassembly(1):
0x1017438 53               PUSH EBX
0x1017439 56               PUSH ESI
0x101743a 57               PUSH EDI
0x101743b e8f8c6feff       CALL 0x1003b38
0x1017440 8b742410         MOV ESI, [ESP+0x10]
0x1017444 56               PUSH ESI
0x1017445 ff153c140001     CALL DWORD [0x100143c]
0x101744b bf6c270201       MOV EDI, 0x102276c

************************************************************************
Hook mode: Usermode
Hook type: Inline/Trampoline
Process: 1732 (wuauclt.exe)
Victim module: WININET.dll (0x771b0000 - 0x77256000)
Function: WININET.dll!InternetQueryDataAvailable at 0x771d325f
Hook address: 0x1017415
Hooking module: <unknown>

Disassembly(0):
0x771d325f e9b141e489       JMP 0x1017415
0x771d3264 83ec10           SUB ESP, 0x10
0x771d3267 53               PUSH EBX
0x771d3268 33db             XOR EBX, EBX
0x771d326a 391d50982377     CMP [0x77239850], EBX
0x771d3270 56               PUSH ESI
0x771d3271 57               PUSH EDI
0x771d3272 895dfc           MOV [EBP-0x4], EBX
0x771d3275 c7               DB 0xc7
0x771d3276 45               INC EBP

Disassembly(1):
0x1017415 e81ec7feff       CALL 0x1003b38
0x101741a ff742410         PUSH DWORD [ESP+0x10]
0x101741e ff742410         PUSH DWORD [ESP+0x10]
0x1017422 ff742410         PUSH DWORD [ESP+0x10]
0x1017426 6a00             PUSH 0x0
0x1017428 6a00             PUSH 0x0
0x101742a ff               DB 0xff
0x101742b 7424             JZ 0x1017451

************************************************************************
Hook mode: Usermode
Hook type: Inline/Trampoline
Process: 1732 (wuauclt.exe)
Victim module: WININET.dll (0x771b0000 - 0x77256000)
Function: WININET.dll!InternetReadFile at 0x771c9555
Hook address: 0x10173d0
Hooking module: <unknown>

Disassembly(0):
0x771c9555 e976dee489       JMP 0x10173d0
0x771c955a 83ec24           SUB ESP, 0x24
0x771c955d 53               PUSH EBX
0x771c955e 33db             XOR EBX, EBX
0x771c9560 391d50982377     CMP [0x77239850], EBX
0x771c9566 57               PUSH EDI
0x771c9567 895df4           MOV [EBP-0xc], EBX
0x771c956a 895df8           MOV [EBP-0x8], EBX

Disassembly(1):
0x10173d0 e863c7feff       CALL 0x1003b38
0x10173d5 33c0             XOR EAX, EAX
0x10173d7 50               PUSH EAX
0x10173d8 50               PUSH EAX
0x10173d9 ff742418         PUSH DWORD [ESP+0x18]
0x10173dd ff742418         PUSH DWORD [ESP+0x18]
0x10173e1 ff742418         PUSH DWORD [ESP+0x18]
0x10173e5 ff               DB 0xff
0x10173e6 7424             JZ 0x101740c

************************************************************************
Hook mode: Usermode
Hook type: Inline/Trampoline
Process: 1732 (wuauclt.exe)
Victim module: WININET.dll (0x771b0000 - 0x77256000)
Function: WININET.dll!InternetReadFileExA at 0x771f7e9a
Hook address: 0x10173f2
Hooking module: <unknown>

Disassembly(0):
0x771f7e9a e953f5e189       JMP 0x10173f2
0x771f7e9f 83ec20           SUB ESP, 0x20
0x771f7ea2 53               PUSH EBX
0x771f7ea3 56               PUSH ESI
0x771f7ea4 33c0             XOR EAX, EAX
0x771f7ea6 57               PUSH EDI
0x771f7ea7 33ff             XOR EDI, EDI
0x771f7ea9 40               INC EAX
0x771f7eaa 393d50982377     CMP [0x77239850], EDI
0x771f7eb0 89               DB 0x89
0x771f7eb1 7d               DB 0x7d

Disassembly(1):
0x10173f2 e841c7feff       CALL 0x1003b38
0x10173f7 ff742410         PUSH DWORD [ESP+0x10]
0x10173fb ff742410         PUSH DWORD [ESP+0x10]
0x10173ff 6a00             PUSH 0x0
0x1017401 6a00             PUSH 0x0
0x1017403 ff742418         PUSH DWORD [ESP+0x18]
0x1017407 ff               DB 0xff
0x1017408 7424             JZ 0x101742e

************************************************************************
Hook mode: Usermode
Hook type: Inline/Trampoline
Process: 1724 (explorer.exe)
Victim module: ntdll.dll (0x7c900000 - 0x7c9b0000)
Function: ntdll.dll!NtCreateThread at 0x7c90d7d2
Hook address: 0x15d3b47
Hooking module: <unknown>

Disassembly(0):
0x7c90d7d2 e97063cc84       JMP 0x15d3b47
0x7c90d7d7 ba0003fe7f       MOV EDX, 0x7ffe0300
0x7c90d7dc ff12             CALL DWORD [EDX]
0x7c90d7de c22000           RET 0x20
0x7c90d7e1 90               NOP
0x7c90d7e2 90               NOP
0x7c90d7e3 90               NOP
0x7c90d7e4 90               NOP
0x7c90d7e5 90               NOP
0x7c90d7e6 90               NOP
0x7c90d7e7 b8               DB 0xb8
0x7c90d7e8 36               DB 0x36
0x7c90d7e9 00               DB 0x0

Disassembly(1):
0x15d3b47 55               PUSH EBP
0x15d3b48 8bec             MOV EBP, ESP
0x15d3b4a 83ec18           SUB ESP, 0x18
0x15d3b4d 53               PUSH EBX
0x15d3b4e 56               PUSH ESI
0x15d3b4f 57               PUSH EDI
0x15d3b50 8b7d14           MOV EDI, [EBP+0x14]
0x15d3b53 8d4514           LEA EAX, [EBP+0x14]
0x15d3b56 50               PUSH EAX
0x15d3b57 6a18             PUSH 0x18
0x15d3b59 8d45e8           LEA EAX, [EBP-0x18]
0x15d3b5c 50               PUSH EAX
0x15d3b5d 33f6             XOR ESI, ESI

************************************************************************
Hook mode: Usermode
Hook type: Inline/Trampoline
Process: 1724 (explorer.exe)
Victim module: ntdll.dll (0x7c900000 - 0x7c9b0000)
Function: ntdll.dll!NtQueryDirectoryFile at 0x7c90df5e
Hook address: 0x15d3ca5
Hooking module: <unknown>

Disassembly(0):
0x7c90df5e e9425dcc84       JMP 0x15d3ca5
0x7c90df63 ba0003fe7f       MOV EDX, 0x7ffe0300
0x7c90df68 ff12             CALL DWORD [EDX]
0x7c90df6a c22c00           RET 0x2c
0x7c90df6d 90               NOP
0x7c90df6e 90               NOP
0x7c90df6f 90               NOP
0x7c90df70 90               NOP
0x7c90df71 90               NOP
0x7c90df72 90               NOP
0x7c90df73 b8               DB 0xb8
0x7c90df74 92               XCHG EDX, EAX
0x7c90df75 00               DB 0x0

Disassembly(1):
0x15d3ca5 55               PUSH EBP
0x15d3ca6 8bec             MOV EBP, ESP
0x15d3ca8 e88bfeffff       CALL 0x15d3b38
0x15d3cad ff7530           PUSH DWORD [EBP+0x30]
0x15d3cb0 ff752c           PUSH DWORD [EBP+0x2c]
0x15d3cb3 ff7528           PUSH DWORD [EBP+0x28]
0x15d3cb6 ff7524           PUSH DWORD [EBP+0x24]
0x15d3cb9 ff7520           PUSH DWORD [EBP+0x20]
0x15d3cbc ff               DB 0xff

************************************************************************
Hook mode: Usermode
Hook type: Inline/Trampoline
Process: 1724 (explorer.exe)
Victim module: ntdll.dll (0x7c900000 - 0x7c9b0000)
Function: ntdll.dll!ZwCreateThread at 0x7c90d7d2
Hook address: 0x15d3b47
Hooking module: <unknown>

Disassembly(0):
0x7c90d7d2 e97063cc84       JMP 0x15d3b47
0x7c90d7d7 ba0003fe7f       MOV EDX, 0x7ffe0300
0x7c90d7dc ff12             CALL DWORD [EDX]
0x7c90d7de c22000           RET 0x20
0x7c90d7e1 90               NOP
0x7c90d7e2 90               NOP
0x7c90d7e3 90               NOP
0x7c90d7e4 90               NOP
0x7c90d7e5 90               NOP
0x7c90d7e6 90               NOP
0x7c90d7e7 b8               DB 0xb8
0x7c90d7e8 36               DB 0x36
0x7c90d7e9 00               DB 0x0

Disassembly(1):
0x15d3b47 55               PUSH EBP
0x15d3b48 8bec             MOV EBP, ESP
0x15d3b4a 83ec18           SUB ESP, 0x18
0x15d3b4d 53               PUSH EBX
0x15d3b4e 56               PUSH ESI
0x15d3b4f 57               PUSH EDI
0x15d3b50 8b7d14           MOV EDI, [EBP+0x14]
0x15d3b53 8d4514           LEA EAX, [EBP+0x14]
0x15d3b56 50               PUSH EAX
0x15d3b57 6a18             PUSH 0x18
0x15d3b59 8d45e8           LEA EAX, [EBP-0x18]
0x15d3b5c 50               PUSH EAX
0x15d3b5d 33f6             XOR ESI, ESI

************************************************************************
Hook mode: Usermode
Hook type: Inline/Trampoline
Process: 1724 (explorer.exe)
Victim module: ntdll.dll (0x7c900000 - 0x7c9b0000)
Function: ntdll.dll!ZwQueryDirectoryFile at 0x7c90df5e
Hook address: 0x15d3ca5
Hooking module: <unknown>

Disassembly(0):
0x7c90df5e e9425dcc84       JMP 0x15d3ca5
0x7c90df63 ba0003fe7f       MOV EDX, 0x7ffe0300
0x7c90df68 ff12             CALL DWORD [EDX]
0x7c90df6a c22c00           RET 0x2c
0x7c90df6d 90               NOP
0x7c90df6e 90               NOP
0x7c90df6f 90               NOP
0x7c90df70 90               NOP
0x7c90df71 90               NOP
0x7c90df72 90               NOP
0x7c90df73 b8               DB 0xb8
0x7c90df74 92               XCHG EDX, EAX
0x7c90df75 00               DB 0x0

Disassembly(1):
0x15d3ca5 55               PUSH EBP
0x15d3ca6 8bec             MOV EBP, ESP
0x15d3ca8 e88bfeffff       CALL 0x15d3b38
0x15d3cad ff7530           PUSH DWORD [EBP+0x30]
0x15d3cb0 ff752c           PUSH DWORD [EBP+0x2c]
0x15d3cb3 ff7528           PUSH DWORD [EBP+0x28]
0x15d3cb6 ff7524           PUSH DWORD [EBP+0x24]
0x15d3cb9 ff7520           PUSH DWORD [EBP+0x20]
0x15d3cbc ff               DB 0xff

************************************************************************
Hook mode: Usermode
Hook type: Inline/Trampoline
Process: 1724 (explorer.exe)
Victim module: USER32.dll (0x77d40000 - 0x77dd0000)
Function: USER32.dll!BeginPaint at 0x77d4b4b1
Hook address: 0x15dfd3f
Hooking module: <unknown>

Disassembly(0):
0x77d4b4b1 e989488989       JMP 0x15dfd3f
0x77d4b4b6 ba0003fe7f       MOV EDX, 0x7ffe0300
0x77d4b4bb ff12             CALL DWORD [EDX]
0x77d4b4bd c20800           RET 0x8
0x77d4b4c0 90               NOP
0x77d4b4c1 90               NOP
0x77d4b4c2 90               NOP
0x77d4b4c3 90               NOP
0x77d4b4c4 90               NOP
0x77d4b4c5 e9               DB 0xe9
0x77d4b4c6 d7               XLAT BYTE [EBX+AL]
0x77d4b4c7 48               DEC EAX
0x77d4b4c8 89               DB 0x89

Disassembly(1):
0x15dfd3f 833d84275f01ff   CMP DWORD [0x15f2784], -0x1
0x15dfd46 56               PUSH ESI
0x15dfd47 8b74240c         MOV ESI, [ESP+0xc]
0x15dfd4b 7540             JNZ 0x15dfd8d
0x15dfd4d 85f6             TEST ESI, ESI
0x15dfd4f 743c             JZ 0x15dfd8d
0x15dfd51 ff1510115d01     CALL DWORD [0x15d1110]

************************************************************************
Hook mode: Usermode
Hook type: Inline/Trampoline
Process: 1724 (explorer.exe)
Victim module: USER32.dll (0x77d40000 - 0x77dd0000)
Function: USER32.dll!DefWindowProcA at 0x77d4df6b
Hook address: 0x15dfe0c
Hooking module: <unknown>

Disassembly(0):
0x77d4df6b e99c1e8989       JMP 0x15dfe0c
0x77d4df70 d477             AAM 0x77
0x77d4df72 e819a6ffff       CALL 0x77d48590
0x77d4df77 e890a6ffff       CALL 0x77d4860c
0x77d4df7c 833d6c00da7700   CMP DWORD [0x77da006c], 0x0

Disassembly(1):
0x15dfe0c 55               PUSH EBP
0x15dfe0d 8bec             MOV EBP, ESP
0x15dfe0f 833d84275f01ff   CMP DWORD [0x15f2784], -0x1
0x15dfe16 56               PUSH ESI
0x15dfe17 8b750c           MOV ESI, [EBP+0xc]
0x15dfe1a 7512             JNZ 0x15dfe2e
0x15dfe1c 3b3578265f01     CMP ESI, [0x15f2678]
0x15dfe22 750a             JNZ 0x15dfe2e

************************************************************************
Hook mode: Usermode
Hook type: Inline/Trampoline
Process: 1724 (explorer.exe)
Victim module: USER32.dll (0x77d40000 - 0x77dd0000)
Function: USER32.dll!DefWindowProcW at 0x77d4b1e5
Hook address: 0x15dfdd0
Hooking module: <unknown>

Disassembly(0):
0x77d4b1e5 e9e64b8989       JMP 0x15dfdd0
0x77d4b1ea d477             AAM 0x77
0x77d4b1ec e89fd3ffff       CALL 0x77d48590
0x77d4b1f1 e816d4ffff       CALL 0x77d4860c
0x77d4b1f6 833d6c00da7700   CMP DWORD [0x77da006c], 0x0

Disassembly(1):
0x15dfdd0 55               PUSH EBP
0x15dfdd1 8bec             MOV EBP, ESP
0x15dfdd3 833d84275f01ff   CMP DWORD [0x15f2784], -0x1
0x15dfdda 56               PUSH ESI
0x15dfddb 8b750c           MOV ESI, [EBP+0xc]
0x15dfdde 7512             JNZ 0x15dfdf2
0x15dfde0 3b3578265f01     CMP ESI, [0x15f2678]
0x15dfde6 750a             JNZ 0x15dfdf2

************************************************************************
Hook mode: Usermode
Hook type: Inline/Trampoline
Process: 1724 (explorer.exe)
Victim module: USER32.dll (0x77d40000 - 0x77dd0000)
Function: USER32.dll!EndPaint at 0x77d4b4c5
Hook address: 0x15dfda1
Hooking module: <unknown>

Disassembly(0):
0x77d4b4c5 e9d7488989       JMP 0x15dfda1
0x77d4b4ca ba0003fe7f       MOV EDX, 0x7ffe0300
0x77d4b4cf ff12             CALL DWORD [EDX]
0x77d4b4d1 c20800           RET 0x8
0x77d4b4d4 90               NOP
0x77d4b4d5 90               NOP
0x77d4b4d6 90               NOP
0x77d4b4d7 90               NOP
0x77d4b4d8 90               NOP
0x77d4b4d9 8bff             MOV EDI, EDI
0x77d4b4db 55               PUSH EBP
0x77d4b4dc 8b               DB 0x8b

Disassembly(1):
0x15dfda1 833d84275f01ff   CMP DWORD [0x15f2784], -0x1
0x15dfda8 751b             JNZ 0x15dfdc5
0x15dfdaa 837c240800       CMP DWORD [ESP+0x8], 0x0
0x15dfdaf 7414             JZ 0x15dfdc5
0x15dfdb1 ff1510115d01     CALL DWORD [0x15d1110]
0x15dfdb7 39               DB 0x39
0x15dfdb8 05               DB 0x5

************************************************************************
Hook mode: Usermode
Hook type: Inline/Trampoline
Process: 1724 (explorer.exe)
Victim module: USER32.dll (0x77d40000 - 0x77dd0000)
Function: USER32.dll!GetClipboardData at 0x77d6fcb2
Hook address: 0x15e4fd5
Hooking module: <unknown>

Disassembly(0):
0x77d6fcb2 e91e538789       JMP 0x15e4fd5
0x77d6fcb7 83ec2c           SUB ESP, 0x2c
0x77d6fcba 56               PUSH ESI
0x77d6fcbb 57               PUSH EDI
0x77d6fcbc 8d45d4           LEA EAX, [EBP-0x2c]
0x77d6fcbf 50               PUSH EAX
0x77d6fcc0 ff7508           PUSH DWORD [EBP+0x8]
0x77d6fcc3 e8e8000000       CALL 0x77d6fdb0
0x77d6fcc8 8bf0             MOV ESI, EAX

Disassembly(1):
0x15e4fd5 55               PUSH EBP
0x15e4fd6 8bec             MOV EBP, ESP
0x15e4fd8 53               PUSH EBX
0x15e4fd9 56               PUSH ESI
0x15e4fda e859ebfeff       CALL 0x15d3b38
0x15e4fdf 8b7508           MOV ESI, [EBP+0x8]
0x15e4fe2 56               PUSH ESI
0x15e4fe3 ff1560135d01     CALL DWORD [0x15d1360]
0x15e4fe9 8bd8             MOV EBX, EAX
0x15e4feb 85db             TEST EBX, EBX

************************************************************************
Hook mode: Usermode
Hook type: Inline/Trampoline
Process: 1724 (explorer.exe)
Victim module: USER32.dll (0x77d40000 - 0x77dd0000)
Function: USER32.dll!TranslateMessage at 0x77d48bce
Hook address: 0x15e4ea0
Hooking module: <unknown>

Disassembly(0):
0x77d48bce e9cdc28989       JMP 0x15e4ea0
0x77d48bd3 56               PUSH ESI
0x77d48bd4 8b7508           MOV ESI, [EBP+0x8]
0x77d48bd7 66817e08e500     CMP WORD [ESI+0x8], 0xe5
0x77d48bdd 0f84a77e0200     JZ 0x77d70a8a
0x77d48be3 6a00             PUSH 0x0
0x77d48be5 56               PUSH ESI

Disassembly(1):
0x15e4ea0 55               PUSH EBP
0x15e4ea1 8bec             MOV EBP, ESP
0x15e4ea3 83e4f8           AND ESP, -0x8
0x15e4ea6 81ec1c030000     SUB ESP, 0x31c
0x15e4eac 53               PUSH EBX
0x15e4ead 8b5d08           MOV EBX, [EBP+0x8]
0x15e4eb0 56               PUSH ESI
0x15e4eb1 57               PUSH EDI
0x15e4eb2 85db             TEST EBX, EBX
0x15e4eb4 0f               DB 0xf
0x15e4eb5 8406             TEST [ESI], AL
0x15e4eb7 01               DB 0x1

************************************************************************
Hook mode: Usermode
Hook type: Inline/Trampoline
Process: 1724 (explorer.exe)
Victim module: CRYPT32.dll (0x77a80000 - 0x77b14000)
Function: CRYPT32.dll!PFXImportCertStore at 0x77aef748
Hook address: 0x15d3692
Hooking module: <unknown>

Disassembly(0):
0x77aef748 e9453fae89       JMP 0x15d3692
0x77aef74d 83ec18           SUB ESP, 0x18
0x77aef750 53               PUSH EBX
0x77aef751 57               PUSH EDI
0x77aef752 33c0             XOR EAX, EAX
0x77aef754 8d7de8           LEA EDI, [EBP-0x18]
0x77aef757 33db             XOR EBX, EBX
0x77aef759 f74510dcefffef   TEST DWORD [EBP+0x10], 0xefffefdc

Disassembly(1):
0x15d3692 55               PUSH EBP
0x15d3693 8bec             MOV EBP, ESP
0x15d3695 81ec80000000     SUB ESP, 0x80
0x15d369b 53               PUSH EBX
0x15d369c 56               PUSH ESI
0x15d369d e896040000       CALL 0x15d3b38
0x15d36a2 ff7510           PUSH DWORD [EBP+0x10]
0x15d36a5 8b7508           MOV ESI, [EBP+0x8]
0x15d36a8 ff               DB 0xff
0x15d36a9 75               DB 0x75

************************************************************************
Hook mode: Usermode
Hook type: Inline/Trampoline
Process: 1724 (explorer.exe)
Victim module: WININET.dll (0x771b0000 - 0x77256000)
Function: WININET.dll!HttpQueryInfoA at 0x771c8c6a
Hook address: 0x15e7477
Hooking module: <unknown>

Disassembly(0):
0x771c8c6a e908e8418a       JMP 0x15e7477
0x771c8c6f 1c77             SBB AL, 0x77
0x771c8c71 e8fc89feff       CALL 0x771b1672
0x771c8c76 33db             XOR EBX, EBX
0x771c8c78 895ddc           MOV [EBP-0x24], EBX
0x771c8c7b 895de4           MOV [EBP-0x1c], EBX
0x771c8c7e 39               DB 0x39
0x771c8c7f 1d               DB 0x1d
0x771c8c80 50               PUSH EAX
0x771c8c81 98               CWDE

Disassembly(1):
0x15e7477 55               PUSH EBP
0x15e7478 8bec             MOV EBP, ESP
0x15e747a 56               PUSH ESI
0x15e747b 57               PUSH EDI
0x15e747c bf6c275f01       MOV EDI, 0x15f276c
0x15e7481 57               PUSH EDI
0x15e7482 ff1574125d01     CALL DWORD [0x15d1274]
0x15e7488 8b7508           MOV ESI, [EBP+0x8]
0x15e748b e8               DB 0xe8
0x15e748c 67e5ff           IN EAX, 0xff

************************************************************************
Hook mode: Usermode
Hook type: Inline/Trampoline
Process: 1724 (explorer.exe)
Victim module: WININET.dll (0x771b0000 - 0x77256000)
Function: WININET.dll!HttpSendRequestA at 0x771c76b8
Hook address: 0x15e7366
Hooking module: <unknown>

Disassembly(0):
0x771c76b8 e9a9fc418a       JMP 0x15e7366
0x771c76bd 6a13             PUSH 0x13
0x771c76bf 6a00             PUSH 0x0
0x771c76c1 ff7518           PUSH DWORD [EBP+0x18]
0x771c76c4 ff7514           PUSH DWORD [EBP+0x14]
0x771c76c7 ff7510           PUSH DWORD [EBP+0x10]
0x771c76ca ff750c           PUSH DWORD [EBP+0xc]
0x771c76cd ff7508           PUSH DWORD [EBP+0x8]

Disassembly(1):
0x15e7366 55               PUSH EBP
0x15e7367 8bec             MOV EBP, ESP
0x15e7369 e8cac7feff       CALL 0x15d3b38
0x15e736e ff7510           PUSH DWORD [EBP+0x10]
0x15e7371 8b4518           MOV EAX, [EBP+0x18]
0x15e7374 ff750c           PUSH DWORD [EBP+0xc]
0x15e7377 8b4d14           MOV ECX, [EBP+0x14]
0x15e737a ff7508           PUSH DWORD [EBP+0x8]
0x15e737d 6a               DB 0x6a

************************************************************************
Hook mode: Usermode
Hook type: Inline/Trampoline
Process: 1724 (explorer.exe)
Victim module: WININET.dll (0x771b0000 - 0x77256000)
Function: WININET.dll!HttpSendRequestExA at 0x7721190d
Hook address: 0x15e73ac
Hooking module: <unknown>

Disassembly(0):
0x7721190d e99a5a3d8a       JMP 0x15e73ac
0x77211912 53               PUSH EBX
0x77211913 56               PUSH ESI
0x77211914 57               PUSH EDI
0x77211915 33db             XOR EBX, EBX
0x77211917 33c0             XOR EAX, EAX
0x77211919 33c9             XOR ECX, ECX
0x7721191b 33d2             XOR EDX, EDX
0x7721191d 33ff             XOR EDI, EDI
0x7721191f 395d10           CMP [EBP+0x10], EBX
0x77211922 7539             JNZ 0x7721195d
0x77211924 8b               DB 0x8b

Disassembly(1):
0x15e73ac 55               PUSH EBP
0x15e73ad 8bec             MOV EBP, ESP
0x15e73af 53               PUSH EBX
0x15e73b0 e883c7feff       CALL 0x15d3b38
0x15e73b5 ff7518           PUSH DWORD [EBP+0x18]
0x15e73b8 8b450c           MOV EAX, [EBP+0xc]
0x15e73bb ff7514           PUSH DWORD [EBP+0x14]
0x15e73be 8b5d08           MOV EBX, [EBP+0x8]
0x15e73c1 ff7510           PUSH DWORD [EBP+0x10]

************************************************************************
Hook mode: Usermode
Hook type: Inline/Trampoline
Process: 1724 (explorer.exe)
Victim module: WININET.dll (0x771b0000 - 0x77256000)
Function: WININET.dll!HttpSendRequestExW at 0x771d53eb
Hook address: 0x15e7388
Hooking module: <unknown>

Disassembly(0):
0x771d53eb e9981f418a       JMP 0x15e7388
0x771d53f0 83ec14           SUB ESP, 0x14
0x771d53f3 53               PUSH EBX
0x771d53f4 56               PUSH ESI
0x771d53f5 33c0             XOR EAX, EAX
0x771d53f7 57               PUSH EDI
0x771d53f8 33d2             XOR EDX, EDX
0x771d53fa 33db             XOR EBX, EBX
0x771d53fc 33ff             XOR EDI, EDI
0x771d53fe 33c9             XOR ECX, ECX
0x771d5400 395508           CMP [EBP+0x8], EDX

Disassembly(1):
0x15e7388 55               PUSH EBP
0x15e7389 8bec             MOV EBP, ESP
0x15e738b 53               PUSH EBX
0x15e738c e8a7c7feff       CALL 0x15d3b38
0x15e7391 ff7518           PUSH DWORD [EBP+0x18]
0x15e7394 8b450c           MOV EAX, [EBP+0xc]
0x15e7397 ff7514           PUSH DWORD [EBP+0x14]
0x15e739a 8b5d08           MOV EBX, [EBP+0x8]
0x15e739d ff7510           PUSH DWORD [EBP+0x10]

************************************************************************
Hook mode: Usermode
Hook type: Inline/Trampoline
Process: 1724 (explorer.exe)
Victim module: WININET.dll (0x771b0000 - 0x77256000)
Function: WININET.dll!HttpSendRequestW at 0x77211808
Hook address: 0x15e7344
Hooking module: <unknown>

Disassembly(0):
0x77211808 e9375b3d8a       JMP 0x15e7344
0x7721180d 83ec14           SUB ESP, 0x14
0x77211810 53               PUSH EBX
0x77211811 33db             XOR EBX, EBX
0x77211813 56               PUSH ESI
0x77211814 33f6             XOR ESI, ESI
0x77211816 33c0             XOR EAX, EAX
0x77211818 395d08           CMP [EBP+0x8], EBX
0x7721181b 57               PUSH EDI
0x7721181c 895df8           MOV [EBP-0x8], EBX
0x7721181f 89               DB 0x89

Disassembly(1):
0x15e7344 55               PUSH EBP
0x15e7345 8bec             MOV EBP, ESP
0x15e7347 e8ecc7feff       CALL 0x15d3b38
0x15e734c ff7510           PUSH DWORD [EBP+0x10]
0x15e734f 8b4518           MOV EAX, [EBP+0x18]
0x15e7352 ff750c           PUSH DWORD [EBP+0xc]
0x15e7355 8b4d14           MOV ECX, [EBP+0x14]
0x15e7358 ff7508           PUSH DWORD [EBP+0x8]
0x15e735b 6a               DB 0x6a

************************************************************************
Hook mode: Usermode
Hook type: Inline/Trampoline
Process: 1724 (explorer.exe)
Victim module: WININET.dll (0x771b0000 - 0x77256000)
Function: WININET.dll!InternetCloseHandle at 0x771c61dc
Hook address: 0x15e7438
Hooking module: <unknown>

Disassembly(0):
0x771c61dc e95712428a       JMP 0x15e7438
0x771c61e1 51               PUSH ECX
0x771c61e2 51               PUSH ECX
0x771c61e3 53               PUSH EBX
0x771c61e4 56               PUSH ESI
0x771c61e5 33db             XOR EBX, EBX
0x771c61e7 33f6             XOR ESI, ESI
0x771c61e9 f60544a3237701   TEST BYTE [0x7723a344], 0x1
0x771c61f0 895dfc           MOV [EBP-0x4], EBX
0x771c61f3 0f               DB 0xf

Disassembly(1):
0x15e7438 53               PUSH EBX
0x15e7439 56               PUSH ESI
0x15e743a 57               PUSH EDI
0x15e743b e8f8c6feff       CALL 0x15d3b38
0x15e7440 8b742410         MOV ESI, [ESP+0x10]
0x15e7444 56               PUSH ESI
0x15e7445 ff153c145d01     CALL DWORD [0x15d143c]
0x15e744b bf6c275f01       MOV EDI, 0x15f276c

************************************************************************
Hook mode: Usermode
Hook type: Inline/Trampoline
Process: 1724 (explorer.exe)
Victim module: WININET.dll (0x771b0000 - 0x77256000)
Function: WININET.dll!InternetQueryDataAvailable at 0x771d325f
Hook address: 0x15e7415
Hooking module: <unknown>

Disassembly(0):
0x771d325f e9b141418a       JMP 0x15e7415
0x771d3264 83ec10           SUB ESP, 0x10
0x771d3267 53               PUSH EBX
0x771d3268 33db             XOR EBX, EBX
0x771d326a 391d50982377     CMP [0x77239850], EBX
0x771d3270 56               PUSH ESI
0x771d3271 57               PUSH EDI
0x771d3272 895dfc           MOV [EBP-0x4], EBX
0x771d3275 c7               DB 0xc7
0x771d3276 45               INC EBP

Disassembly(1):
0x15e7415 e81ec7feff       CALL 0x15d3b38
0x15e741a ff742410         PUSH DWORD [ESP+0x10]
0x15e741e ff742410         PUSH DWORD [ESP+0x10]
0x15e7422 ff742410         PUSH DWORD [ESP+0x10]
0x15e7426 6a00             PUSH 0x0
0x15e7428 6a00             PUSH 0x0
0x15e742a ff               DB 0xff
0x15e742b 7424             JZ 0x15e7451

************************************************************************
Hook mode: Usermode
Hook type: Inline/Trampoline
Process: 1724 (explorer.exe)
Victim module: WININET.dll (0x771b0000 - 0x77256000)
Function: WININET.dll!InternetReadFile at 0x771c9555
Hook address: 0x15e73d0
Hooking module: <unknown>

Disassembly(0):
0x771c9555 e976de418a       JMP 0x15e73d0
0x771c955a 83ec24           SUB ESP, 0x24
0x771c955d 53               PUSH EBX
0x771c955e 33db             XOR EBX, EBX
0x771c9560 391d50982377     CMP [0x77239850], EBX
0x771c9566 57               PUSH EDI
0x771c9567 895df4           MOV [EBP-0xc], EBX
0x771c956a 895df8           MOV [EBP-0x8], EBX

Disassembly(1):
0x15e73d0 e863c7feff       CALL 0x15d3b38
0x15e73d5 33c0             XOR EAX, EAX
0x15e73d7 50               PUSH EAX
0x15e73d8 50               PUSH EAX
0x15e73d9 ff742418         PUSH DWORD [ESP+0x18]
0x15e73dd ff742418         PUSH DWORD [ESP+0x18]
0x15e73e1 ff742418         PUSH DWORD [ESP+0x18]
0x15e73e5 ff               DB 0xff
0x15e73e6 7424             JZ 0x15e740c

************************************************************************
Hook mode: Usermode
Hook type: Inline/Trampoline
Process: 1724 (explorer.exe)
Victim module: WININET.dll (0x771b0000 - 0x77256000)
Function: WININET.dll!InternetReadFileExA at 0x771f7e9a
Hook address: 0x15e73f2
Hooking module: <unknown>

Disassembly(0):
0x771f7e9a e953f53e8a       JMP 0x15e73f2
0x771f7e9f 83ec20           SUB ESP, 0x20
0x771f7ea2 53               PUSH EBX
0x771f7ea3 56               PUSH ESI
0x771f7ea4 33c0             XOR EAX, EAX
0x771f7ea6 57               PUSH EDI
0x771f7ea7 33ff             XOR EDI, EDI
0x771f7ea9 40               INC EAX
0x771f7eaa 393d50982377     CMP [0x77239850], EDI
0x771f7eb0 89               DB 0x89
0x771f7eb1 7d               DB 0x7d

Disassembly(1):
0x15e73f2 e841c7feff       CALL 0x15d3b38
0x15e73f7 ff742410         PUSH DWORD [ESP+0x10]
0x15e73fb ff742410         PUSH DWORD [ESP+0x10]
0x15e73ff 6a00             PUSH 0x0
0x15e7401 6a00             PUSH 0x0
0x15e7403 ff742418         PUSH DWORD [ESP+0x18]
0x15e7407 ff               DB 0xff
0x15e7408 7424             JZ 0x15e742e

************************************************************************
Hook mode: Usermode
Hook type: Inline/Trampoline
Process: 1724 (explorer.exe)
Victim module: WS2_32.dll (0x71ab0000 - 0x71ac7000)
Function: WS2_32.dll!WSASend at 0x71ab6233
Hook address: 0x15e112c
Hooking module: <unknown>

Disassembly(0):
0x71ab6233 e9f4aeb28f       JMP 0x15e112c
0x71ab6238 51               PUSH ECX
0x71ab6239 51               PUSH ECX
0x71ab623a 813d2840ac714894ab71 CMP DWORD [0x71ac4028], 0x71ab9448
0x71ab6244 56               PUSH ESI
0x71ab6245 0f847f540000     JZ 0x71abb6ca

Disassembly(1):
0x15e112c 55               PUSH EBP
0x15e112d 8bec             MOV EBP, ESP
0x15e112f 837d1000         CMP DWORD [EBP+0x10], 0x0
0x15e1133 56               PUSH ESI
0x15e1134 8b750c           MOV ESI, [EBP+0xc]
0x15e1137 7615             JBE 0x15e114e
0x15e1139 57               PUSH EDI
0x15e113a 8b7d10           MOV EDI, [EBP+0x10]
0x15e113d ff36             PUSH DWORD [ESI]
0x15e113f 8b4604           MOV EAX, [ESI+0x4]
0x15e1142 ff               DB 0xff
0x15e1143 75               DB 0x75

************************************************************************
Hook mode: Usermode
Hook type: Inline/Trampoline
Process: 1724 (explorer.exe)
Victim module: WS2_32.dll (0x71ab0000 - 0x71ac7000)
Function: WS2_32.dll!closesocket at 0x71ab9639
Hook address: 0x15e10db
Hooking module: <unknown>

Disassembly(0):
0x71ab9639 e99d7ab28f       JMP 0x15e10db
0x71ab963e 51               PUSH ECX
0x71ab963f 813d2840ac714894ab71 CMP DWORD [0x71ac4028], 0x71ab9448
0x71ab9649 56               PUSH ESI
0x71ab964a 0f84aef3ffff     JZ 0x71ab89fe
0x71ab9650 e8               DB 0xe8

Disassembly(1):
0x15e10db 56               PUSH ESI
0x15e10dc bef4265f01       MOV ESI, 0x15f26f4
0x15e10e1 56               PUSH ESI
0x15e10e2 ff1574125d01     CALL DWORD [0x15d1274]
0x15e10e8 ff742408         PUSH DWORD [ESP+0x8]
0x15e10ec e859fcffff       CALL 0x15e0d4a
0x15e10f1 85c0             TEST EAX, EAX

************************************************************************
Hook mode: Usermode
Hook type: Inline/Trampoline
Process: 1724 (explorer.exe)
Victim module: WS2_32.dll (0x71ab0000 - 0x71ac7000)
Function: WS2_32.dll!send at 0x71ab428a
Hook address: 0x15e110f
Hooking module: <unknown>

Disassembly(0):
0x71ab428a e980ceb28f       JMP 0x15e110f
0x71ab428f 83ec10           SUB ESP, 0x10
0x71ab4292 56               PUSH ESI
0x71ab4293 57               PUSH EDI
0x71ab4294 33ff             XOR EDI, EDI
0x71ab4296 813d2840ac714894ab71 CMP DWORD [0x71ac4028], 0x71ab9448
0x71ab42a0 0f               DB 0xf
0x71ab42a1 84               DB 0x84

Disassembly(1):
0x15e110f 55               PUSH EBP
0x15e1110 8bec             MOV EBP, ESP
0x15e1112 ff7510           PUSH DWORD [EBP+0x10]
0x15e1115 8b450c           MOV EAX, [EBP+0xc]
0x15e1118 ff7508           PUSH DWORD [EBP+0x8]
0x15e111b e838fdffff       CALL 0x15e0e58
0x15e1120 e8132affff       CALL 0x15d3b38
0x15e1125 5d               POP EBP
0x15e1126 ff               DB 0xff

************************************************************************
Hook mode: Usermode
Hook type: Inline/Trampoline
Process: 432 (VMwareTray.exe)
Victim module: ntdll.dll (0x7c900000 - 0x7c9b0000)
Function: ntdll.dll!NtCreateThread at 0x7c90d7d2
Hook address: 0xd73b47
Hooking module: <unknown>

Disassembly(0):
0x7c90d7d2 e970634684       JMP 0xd73b47
0x7c90d7d7 ba0003fe7f       MOV EDX, 0x7ffe0300
0x7c90d7dc ff12             CALL DWORD [EDX]
0x7c90d7de c22000           RET 0x20
0x7c90d7e1 90               NOP
0x7c90d7e2 90               NOP
0x7c90d7e3 90               NOP
0x7c90d7e4 90               NOP
0x7c90d7e5 90               NOP
0x7c90d7e6 90               NOP
0x7c90d7e7 b8               DB 0xb8
0x7c90d7e8 36               DB 0x36
0x7c90d7e9 00               DB 0x0

Disassembly(1):
0xd73b47 55               PUSH EBP
0xd73b48 8bec             MOV EBP, ESP
0xd73b4a 83ec18           SUB ESP, 0x18
0xd73b4d 53               PUSH EBX
0xd73b4e 56               PUSH ESI
0xd73b4f 57               PUSH EDI
0xd73b50 8b7d14           MOV EDI, [EBP+0x14]
0xd73b53 8d4514           LEA EAX, [EBP+0x14]
0xd73b56 50               PUSH EAX
0xd73b57 6a18             PUSH 0x18
0xd73b59 8d45e8           LEA EAX, [EBP-0x18]
0xd73b5c 50               PUSH EAX
0xd73b5d 33f6             XOR ESI, ESI

************************************************************************
Hook mode: Usermode
Hook type: Inline/Trampoline
Process: 432 (VMwareTray.exe)
Victim module: ntdll.dll (0x7c900000 - 0x7c9b0000)
Function: ntdll.dll!NtQueryDirectoryFile at 0x7c90df5e
Hook address: 0xd73ca5
Hooking module: <unknown>

Disassembly(0):
0x7c90df5e e9425d4684       JMP 0xd73ca5
0x7c90df63 ba0003fe7f       MOV EDX, 0x7ffe0300
0x7c90df68 ff12             CALL DWORD [EDX]
0x7c90df6a c22c00           RET 0x2c
0x7c90df6d 90               NOP
0x7c90df6e 90               NOP
0x7c90df6f 90               NOP
0x7c90df70 90               NOP
0x7c90df71 90               NOP
0x7c90df72 90               NOP
0x7c90df73 b8               DB 0xb8
0x7c90df74 92               XCHG EDX, EAX
0x7c90df75 00               DB 0x0

Disassembly(1):
0xd73ca5 55               PUSH EBP
0xd73ca6 8bec             MOV EBP, ESP
0xd73ca8 e88bfeffff       CALL 0xd73b38
0xd73cad ff7530           PUSH DWORD [EBP+0x30]
0xd73cb0 ff752c           PUSH DWORD [EBP+0x2c]
0xd73cb3 ff7528           PUSH DWORD [EBP+0x28]
0xd73cb6 ff7524           PUSH DWORD [EBP+0x24]
0xd73cb9 ff7520           PUSH DWORD [EBP+0x20]
0xd73cbc ff               DB 0xff

************************************************************************
Hook mode: Usermode
Hook type: Inline/Trampoline
Process: 432 (VMwareTray.exe)
Victim module: ntdll.dll (0x7c900000 - 0x7c9b0000)
Function: ntdll.dll!ZwCreateThread at 0x7c90d7d2
Hook address: 0xd73b47
Hooking module: <unknown>

Disassembly(0):
0x7c90d7d2 e970634684       JMP 0xd73b47
0x7c90d7d7 ba0003fe7f       MOV EDX, 0x7ffe0300
0x7c90d7dc ff12             CALL DWORD [EDX]
0x7c90d7de c22000           RET 0x20
0x7c90d7e1 90               NOP
0x7c90d7e2 90               NOP
0x7c90d7e3 90               NOP
0x7c90d7e4 90               NOP
0x7c90d7e5 90               NOP
0x7c90d7e6 90               NOP
0x7c90d7e7 b8               DB 0xb8
0x7c90d7e8 36               DB 0x36
0x7c90d7e9 00               DB 0x0

Disassembly(1):
0xd73b47 55               PUSH EBP
0xd73b48 8bec             MOV EBP, ESP
0xd73b4a 83ec18           SUB ESP, 0x18
0xd73b4d 53               PUSH EBX
0xd73b4e 56               PUSH ESI
0xd73b4f 57               PUSH EDI
0xd73b50 8b7d14           MOV EDI, [EBP+0x14]
0xd73b53 8d4514           LEA EAX, [EBP+0x14]
0xd73b56 50               PUSH EAX
0xd73b57 6a18             PUSH 0x18
0xd73b59 8d45e8           LEA EAX, [EBP-0x18]
0xd73b5c 50               PUSH EAX
0xd73b5d 33f6             XOR ESI, ESI

************************************************************************
Hook mode: Usermode
Hook type: Inline/Trampoline
Process: 432 (VMwareTray.exe)
Victim module: ntdll.dll (0x7c900000 - 0x7c9b0000)
Function: ntdll.dll!ZwQueryDirectoryFile at 0x7c90df5e
Hook address: 0xd73ca5
Hooking module: <unknown>

Disassembly(0):
0x7c90df5e e9425d4684       JMP 0xd73ca5
0x7c90df63 ba0003fe7f       MOV EDX, 0x7ffe0300
0x7c90df68 ff12             CALL DWORD [EDX]
0x7c90df6a c22c00           RET 0x2c
0x7c90df6d 90               NOP
0x7c90df6e 90               NOP
0x7c90df6f 90               NOP
0x7c90df70 90               NOP
0x7c90df71 90               NOP
0x7c90df72 90               NOP
0x7c90df73 b8               DB 0xb8
0x7c90df74 92               XCHG EDX, EAX
0x7c90df75 00               DB 0x0

Disassembly(1):
0xd73ca5 55               PUSH EBP
0xd73ca6 8bec             MOV EBP, ESP
0xd73ca8 e88bfeffff       CALL 0xd73b38
0xd73cad ff7530           PUSH DWORD [EBP+0x30]
0xd73cb0 ff752c           PUSH DWORD [EBP+0x2c]
0xd73cb3 ff7528           PUSH DWORD [EBP+0x28]
0xd73cb6 ff7524           PUSH DWORD [EBP+0x24]
0xd73cb9 ff7520           PUSH DWORD [EBP+0x20]
0xd73cbc ff               DB 0xff

************************************************************************
Hook mode: Usermode
Hook type: Inline/Trampoline
Process: 432 (VMwareTray.exe)
Victim module: USER32.dll (0x77d40000 - 0x77dd0000)
Function: USER32.dll!BeginPaint at 0x77d4b4b1
Hook address: 0xd7fd3f
Hooking module: <unknown>

Disassembly(0):
0x77d4b4b1 e989480389       JMP 0xd7fd3f
0x77d4b4b6 ba0003fe7f       MOV EDX, 0x7ffe0300
0x77d4b4bb ff12             CALL DWORD [EDX]
0x77d4b4bd c20800           RET 0x8
0x77d4b4c0 90               NOP
0x77d4b4c1 90               NOP
0x77d4b4c2 90               NOP
0x77d4b4c3 90               NOP
0x77d4b4c4 90               NOP
0x77d4b4c5 e9               DB 0xe9
0x77d4b4c6 d7               XLAT BYTE [EBX+AL]
0x77d4b4c7 48               DEC EAX
0x77d4b4c8 03               DB 0x3

Disassembly(1):
0xd7fd3f 833d8427d900ff   CMP DWORD [0xd92784], -0x1
0xd7fd46 56               PUSH ESI
0xd7fd47 8b74240c         MOV ESI, [ESP+0xc]
0xd7fd4b 7540             JNZ 0xd7fd8d
0xd7fd4d 85f6             TEST ESI, ESI
0xd7fd4f 743c             JZ 0xd7fd8d
0xd7fd51 ff151011d700     CALL DWORD [0xd71110]

************************************************************************
Hook mode: Usermode
Hook type: Inline/Trampoline
Process: 432 (VMwareTray.exe)
Victim module: USER32.dll (0x77d40000 - 0x77dd0000)
Function: USER32.dll!DefWindowProcA at 0x77d4df6b
Hook address: 0xd7fe0c
Hooking module: <unknown>

Disassembly(0):
0x77d4df6b e99c1e0389       JMP 0xd7fe0c
0x77d4df70 d477             AAM 0x77
0x77d4df72 e819a6ffff       CALL 0x77d48590
0x77d4df77 e890a6ffff       CALL 0x77d4860c
0x77d4df7c 833d6c00da7700   CMP DWORD [0x77da006c], 0x0

Disassembly(1):
0xd7fe0c 55               PUSH EBP
0xd7fe0d 8bec             MOV EBP, ESP
0xd7fe0f 833d8427d900ff   CMP DWORD [0xd92784], -0x1
0xd7fe16 56               PUSH ESI
0xd7fe17 8b750c           MOV ESI, [EBP+0xc]
0xd7fe1a 7512             JNZ 0xd7fe2e
0xd7fe1c 3b357826d900     CMP ESI, [0xd92678]
0xd7fe22 750a             JNZ 0xd7fe2e

************************************************************************
Hook mode: Usermode
Hook type: Inline/Trampoline
Process: 432 (VMwareTray.exe)
Victim module: USER32.dll (0x77d40000 - 0x77dd0000)
Function: USER32.dll!DefWindowProcW at 0x77d4b1e5
Hook address: 0xd7fdd0
Hooking module: <unknown>

Disassembly(0):
0x77d4b1e5 e9e64b0389       JMP 0xd7fdd0
0x77d4b1ea d477             AAM 0x77
0x77d4b1ec e89fd3ffff       CALL 0x77d48590
0x77d4b1f1 e816d4ffff       CALL 0x77d4860c
0x77d4b1f6 833d6c00da7700   CMP DWORD [0x77da006c], 0x0

Disassembly(1):
0xd7fdd0 55               PUSH EBP
0xd7fdd1 8bec             MOV EBP, ESP
0xd7fdd3 833d8427d900ff   CMP DWORD [0xd92784], -0x1
0xd7fdda 56               PUSH ESI
0xd7fddb 8b750c           MOV ESI, [EBP+0xc]
0xd7fdde 7512             JNZ 0xd7fdf2
0xd7fde0 3b357826d900     CMP ESI, [0xd92678]
0xd7fde6 750a             JNZ 0xd7fdf2

************************************************************************
Hook mode: Usermode
Hook type: Inline/Trampoline
Process: 432 (VMwareTray.exe)
Victim module: USER32.dll (0x77d40000 - 0x77dd0000)
Function: USER32.dll!EndPaint at 0x77d4b4c5
Hook address: 0xd7fda1
Hooking module: <unknown>

Disassembly(0):
0x77d4b4c5 e9d7480389       JMP 0xd7fda1
0x77d4b4ca ba0003fe7f       MOV EDX, 0x7ffe0300
0x77d4b4cf ff12             CALL DWORD [EDX]
0x77d4b4d1 c20800           RET 0x8
0x77d4b4d4 90               NOP
0x77d4b4d5 90               NOP
0x77d4b4d6 90               NOP
0x77d4b4d7 90               NOP
0x77d4b4d8 90               NOP
0x77d4b4d9 8bff             MOV EDI, EDI
0x77d4b4db 55               PUSH EBP
0x77d4b4dc 8b               DB 0x8b

Disassembly(1):
0xd7fda1 833d8427d900ff   CMP DWORD [0xd92784], -0x1
0xd7fda8 751b             JNZ 0xd7fdc5
0xd7fdaa 837c240800       CMP DWORD [ESP+0x8], 0x0
0xd7fdaf 7414             JZ 0xd7fdc5
0xd7fdb1 ff151011d700     CALL DWORD [0xd71110]
0xd7fdb7 39               DB 0x39
0xd7fdb8 05               DB 0x5

************************************************************************
Hook mode: Usermode
Hook type: Inline/Trampoline
Process: 432 (VMwareTray.exe)
Victim module: USER32.dll (0x77d40000 - 0x77dd0000)
Function: USER32.dll!GetClipboardData at 0x77d6fcb2
Hook address: 0xd84fd5
Hooking module: <unknown>

Disassembly(0):
0x77d6fcb2 e91e530189       JMP 0xd84fd5
0x77d6fcb7 83ec2c           SUB ESP, 0x2c
0x77d6fcba 56               PUSH ESI
0x77d6fcbb 57               PUSH EDI
0x77d6fcbc 8d45d4           LEA EAX, [EBP-0x2c]
0x77d6fcbf 50               PUSH EAX
0x77d6fcc0 ff7508           PUSH DWORD [EBP+0x8]
0x77d6fcc3 e8e8000000       CALL 0x77d6fdb0
0x77d6fcc8 8bf0             MOV ESI, EAX

Disassembly(1):
0xd84fd5 55               PUSH EBP
0xd84fd6 8bec             MOV EBP, ESP
0xd84fd8 53               PUSH EBX
0xd84fd9 56               PUSH ESI
0xd84fda e859ebfeff       CALL 0xd73b38
0xd84fdf 8b7508           MOV ESI, [EBP+0x8]
0xd84fe2 56               PUSH ESI
0xd84fe3 ff156013d700     CALL DWORD [0xd71360]
0xd84fe9 8bd8             MOV EBX, EAX
0xd84feb 85db             TEST EBX, EBX

************************************************************************
Hook mode: Usermode
Hook type: Inline/Trampoline
Process: 432 (VMwareTray.exe)
Victim module: USER32.dll (0x77d40000 - 0x77dd0000)
Function: USER32.dll!TranslateMessage at 0x77d48bce
Hook address: 0xd84ea0
Hooking module: <unknown>

Disassembly(0):
0x77d48bce e9cdc20389       JMP 0xd84ea0
0x77d48bd3 56               PUSH ESI
0x77d48bd4 8b7508           MOV ESI, [EBP+0x8]
0x77d48bd7 66817e08e500     CMP WORD [ESI+0x8], 0xe5
0x77d48bdd 0f84a77e0200     JZ 0x77d70a8a
0x77d48be3 6a00             PUSH 0x0
0x77d48be5 56               PUSH ESI

Disassembly(1):
0xd84ea0 55               PUSH EBP
0xd84ea1 8bec             MOV EBP, ESP
0xd84ea3 83e4f8           AND ESP, -0x8
0xd84ea6 81ec1c030000     SUB ESP, 0x31c
0xd84eac 53               PUSH EBX
0xd84ead 8b5d08           MOV EBX, [EBP+0x8]
0xd84eb0 56               PUSH ESI
0xd84eb1 57               PUSH EDI
0xd84eb2 85db             TEST EBX, EBX
0xd84eb4 0f               DB 0xf
0xd84eb5 8406             TEST [ESI], AL
0xd84eb7 01               DB 0x1

************************************************************************
Hook mode: Usermode
Hook type: Inline/Trampoline
Process: 432 (VMwareTray.exe)
Victim module: WS2_32.dll (0x71ab0000 - 0x71ac7000)
Function: WS2_32.dll!WSASend at 0x71ab6233
Hook address: 0xd8112c
Hooking module: <unknown>

Disassembly(0):
0x71ab6233 e9f4ae2c8f       JMP 0xd8112c
0x71ab6238 51               PUSH ECX
0x71ab6239 51               PUSH ECX
0x71ab623a 813d2840ac714894ab71 CMP DWORD [0x71ac4028], 0x71ab9448
0x71ab6244 56               PUSH ESI
0x71ab6245 0f847f540000     JZ 0x71abb6ca

Disassembly(1):
0xd8112c 55               PUSH EBP
0xd8112d 8bec             MOV EBP, ESP
0xd8112f 837d1000         CMP DWORD [EBP+0x10], 0x0
0xd81133 56               PUSH ESI
0xd81134 8b750c           MOV ESI, [EBP+0xc]
0xd81137 7615             JBE 0xd8114e
0xd81139 57               PUSH EDI
0xd8113a 8b7d10           MOV EDI, [EBP+0x10]
0xd8113d ff36             PUSH DWORD [ESI]
0xd8113f 8b4604           MOV EAX, [ESI+0x4]
0xd81142 ff               DB 0xff
0xd81143 75               DB 0x75

************************************************************************
Hook mode: Usermode
Hook type: Inline/Trampoline
Process: 432 (VMwareTray.exe)
Victim module: WS2_32.dll (0x71ab0000 - 0x71ac7000)
Function: WS2_32.dll!closesocket at 0x71ab9639
Hook address: 0xd810db
Hooking module: <unknown>

Disassembly(0):
0x71ab9639 e99d7a2c8f       JMP 0xd810db
0x71ab963e 51               PUSH ECX
0x71ab963f 813d2840ac714894ab71 CMP DWORD [0x71ac4028], 0x71ab9448
0x71ab9649 56               PUSH ESI
0x71ab964a 0f84aef3ffff     JZ 0x71ab89fe
0x71ab9650 e8               DB 0xe8

Disassembly(1):
0xd810db 56               PUSH ESI
0xd810dc bef426d900       MOV ESI, 0xd926f4
0xd810e1 56               PUSH ESI
0xd810e2 ff157412d700     CALL DWORD [0xd71274]
0xd810e8 ff742408         PUSH DWORD [ESP+0x8]
0xd810ec e859fcffff       CALL 0xd80d4a
0xd810f1 85c0             TEST EAX, EAX

************************************************************************
Hook mode: Usermode
Hook type: Inline/Trampoline
Process: 432 (VMwareTray.exe)
Victim module: WS2_32.dll (0x71ab0000 - 0x71ac7000)
Function: WS2_32.dll!send at 0x71ab428a
Hook address: 0xd8110f
Hooking module: <unknown>

Disassembly(0):
0x71ab428a e980ce2c8f       JMP 0xd8110f
0x71ab428f 83ec10           SUB ESP, 0x10
0x71ab4292 56               PUSH ESI
0x71ab4293 57               PUSH EDI
0x71ab4294 33ff             XOR EDI, EDI
0x71ab4296 813d2840ac714894ab71 CMP DWORD [0x71ac4028], 0x71ab9448
0x71ab42a0 0f               DB 0xf
0x71ab42a1 84               DB 0x84

Disassembly(1):
0xd8110f 55               PUSH EBP
0xd81110 8bec             MOV EBP, ESP
0xd81112 ff7510           PUSH DWORD [EBP+0x10]
0xd81115 8b450c           MOV EAX, [EBP+0xc]
0xd81118 ff7508           PUSH DWORD [EBP+0x8]
0xd8111b e838fdffff       CALL 0xd80e58
0xd81120 e8132affff       CALL 0xd73b38
0xd81125 5d               POP EBP
0xd81126 ff               DB 0xff

************************************************************************
Hook mode: Usermode
Hook type: Inline/Trampoline
Process: 432 (VMwareTray.exe)
Victim module: CRYPT32.dll (0x77a80000 - 0x77b14000)
Function: CRYPT32.dll!PFXImportCertStore at 0x77aef748
Hook address: 0xd73692
Hooking module: <unknown>

Disassembly(0):
0x77aef748 e9453f2889       JMP 0xd73692
0x77aef74d 83ec18           SUB ESP, 0x18
0x77aef750 53               PUSH EBX
0x77aef751 57               PUSH EDI
0x77aef752 33c0             XOR EAX, EAX
0x77aef754 8d7de8           LEA EDI, [EBP-0x18]
0x77aef757 33db             XOR EBX, EBX
0x77aef759 f74510dcefffef   TEST DWORD [EBP+0x10], 0xefffefdc

Disassembly(1):
0xd73692 55               PUSH EBP
0xd73693 8bec             MOV EBP, ESP
0xd73695 81ec80000000     SUB ESP, 0x80
0xd7369b 53               PUSH EBX
0xd7369c 56               PUSH ESI
0xd7369d e896040000       CALL 0xd73b38
0xd736a2 ff7510           PUSH DWORD [EBP+0x10]
0xd736a5 8b7508           MOV ESI, [EBP+0x8]
0xd736a8 ff               DB 0xff
0xd736a9 75               DB 0x75

************************************************************************
Hook mode: Usermode
Hook type: Inline/Trampoline
Process: 432 (VMwareTray.exe)
Victim module: WININET.dll (0x771b0000 - 0x77256000)
Function: WININET.dll!HttpQueryInfoA at 0x771c8c6a
Hook address: 0xd87477
Hooking module: <unknown>

Disassembly(0):
0x771c8c6a e908e8bb89       JMP 0xd87477
0x771c8c6f 1c77             SBB AL, 0x77
0x771c8c71 e8fc89feff       CALL 0x771b1672
0x771c8c76 33db             XOR EBX, EBX
0x771c8c78 895ddc           MOV [EBP-0x24], EBX
0x771c8c7b 895de4           MOV [EBP-0x1c], EBX
0x771c8c7e 39               DB 0x39
0x771c8c7f 1d               DB 0x1d
0x771c8c80 50               PUSH EAX
0x771c8c81 98               CWDE

Disassembly(1):
0xd87477 55               PUSH EBP
0xd87478 8bec             MOV EBP, ESP
0xd8747a 56               PUSH ESI
0xd8747b 57               PUSH EDI
0xd8747c bf6c27d900       MOV EDI, 0xd9276c
0xd87481 57               PUSH EDI
0xd87482 ff157412d700     CALL DWORD [0xd71274]
0xd87488 8b7508           MOV ESI, [EBP+0x8]
0xd8748b e8               DB 0xe8
0xd8748c 67e5ff           IN EAX, 0xff

************************************************************************
Hook mode: Usermode
Hook type: Inline/Trampoline
Process: 432 (VMwareTray.exe)
Victim module: WININET.dll (0x771b0000 - 0x77256000)
Function: WININET.dll!HttpSendRequestA at 0x771c76b8
Hook address: 0xd87366
Hooking module: <unknown>

Disassembly(0):
0x771c76b8 e9a9fcbb89       JMP 0xd87366
0x771c76bd 6a13             PUSH 0x13
0x771c76bf 6a00             PUSH 0x0
0x771c76c1 ff7518           PUSH DWORD [EBP+0x18]
0x771c76c4 ff7514           PUSH DWORD [EBP+0x14]
0x771c76c7 ff7510           PUSH DWORD [EBP+0x10]
0x771c76ca ff750c           PUSH DWORD [EBP+0xc]
0x771c76cd ff7508           PUSH DWORD [EBP+0x8]

Disassembly(1):
0xd87366 55               PUSH EBP
0xd87367 8bec             MOV EBP, ESP
0xd87369 e8cac7feff       CALL 0xd73b38
0xd8736e ff7510           PUSH DWORD [EBP+0x10]
0xd87371 8b4518           MOV EAX, [EBP+0x18]
0xd87374 ff750c           PUSH DWORD [EBP+0xc]
0xd87377 8b4d14           MOV ECX, [EBP+0x14]
0xd8737a ff7508           PUSH DWORD [EBP+0x8]
0xd8737d 6a               DB 0x6a

************************************************************************
Hook mode: Usermode
Hook type: Inline/Trampoline
Process: 432 (VMwareTray.exe)
Victim module: WININET.dll (0x771b0000 - 0x77256000)
Function: WININET.dll!HttpSendRequestExA at 0x7721190d
Hook address: 0xd873ac
Hooking module: <unknown>

Disassembly(0):
0x7721190d e99a5ab789       JMP 0xd873ac
0x77211912 53               PUSH EBX
0x77211913 56               PUSH ESI
0x77211914 57               PUSH EDI
0x77211915 33db             XOR EBX, EBX
0x77211917 33c0             XOR EAX, EAX
0x77211919 33c9             XOR ECX, ECX
0x7721191b 33d2             XOR EDX, EDX
0x7721191d 33ff             XOR EDI, EDI
0x7721191f 395d10           CMP [EBP+0x10], EBX
0x77211922 7539             JNZ 0x7721195d
0x77211924 8b               DB 0x8b

Disassembly(1):
0xd873ac 55               PUSH EBP
0xd873ad 8bec             MOV EBP, ESP
0xd873af 53               PUSH EBX
0xd873b0 e883c7feff       CALL 0xd73b38
0xd873b5 ff7518           PUSH DWORD [EBP+0x18]
0xd873b8 8b450c           MOV EAX, [EBP+0xc]
0xd873bb ff7514           PUSH DWORD [EBP+0x14]
0xd873be 8b5d08           MOV EBX, [EBP+0x8]
0xd873c1 ff7510           PUSH DWORD [EBP+0x10]

************************************************************************
Hook mode: Usermode
Hook type: Inline/Trampoline
Process: 432 (VMwareTray.exe)
Victim module: WININET.dll (0x771b0000 - 0x77256000)
Function: WININET.dll!HttpSendRequestExW at 0x771d53eb
Hook address: 0xd87388
Hooking module: <unknown>

Disassembly(0):
0x771d53eb e9981fbb89       JMP 0xd87388
0x771d53f0 83ec14           SUB ESP, 0x14
0x771d53f3 53               PUSH EBX
0x771d53f4 56               PUSH ESI
0x771d53f5 33c0             XOR EAX, EAX
0x771d53f7 57               PUSH EDI
0x771d53f8 33d2             XOR EDX, EDX
0x771d53fa 33db             XOR EBX, EBX
0x771d53fc 33ff             XOR EDI, EDI
0x771d53fe 33c9             XOR ECX, ECX
0x771d5400 395508           CMP [EBP+0x8], EDX

Disassembly(1):
0xd87388 55               PUSH EBP
0xd87389 8bec             MOV EBP, ESP
0xd8738b 53               PUSH EBX
0xd8738c e8a7c7feff       CALL 0xd73b38
0xd87391 ff7518           PUSH DWORD [EBP+0x18]
0xd87394 8b450c           MOV EAX, [EBP+0xc]
0xd87397 ff7514           PUSH DWORD [EBP+0x14]
0xd8739a 8b5d08           MOV EBX, [EBP+0x8]
0xd8739d ff7510           PUSH DWORD [EBP+0x10]

************************************************************************
Hook mode: Usermode
Hook type: Inline/Trampoline
Process: 432 (VMwareTray.exe)
Victim module: WININET.dll (0x771b0000 - 0x77256000)
Function: WININET.dll!HttpSendRequestW at 0x77211808
Hook address: 0xd87344
Hooking module: <unknown>

Disassembly(0):
0x77211808 e9375bb789       JMP 0xd87344
0x7721180d 83ec14           SUB ESP, 0x14
0x77211810 53               PUSH EBX
0x77211811 33db             XOR EBX, EBX
0x77211813 56               PUSH ESI
0x77211814 33f6             XOR ESI, ESI
0x77211816 33c0             XOR EAX, EAX
0x77211818 395d08           CMP [EBP+0x8], EBX
0x7721181b 57               PUSH EDI
0x7721181c 895df8           MOV [EBP-0x8], EBX
0x7721181f 89               DB 0x89

Disassembly(1):
0xd87344 55               PUSH EBP
0xd87345 8bec             MOV EBP, ESP
0xd87347 e8ecc7feff       CALL 0xd73b38
0xd8734c ff7510           PUSH DWORD [EBP+0x10]
0xd8734f 8b4518           MOV EAX, [EBP+0x18]
0xd87352 ff750c           PUSH DWORD [EBP+0xc]
0xd87355 8b4d14           MOV ECX, [EBP+0x14]
0xd87358 ff7508           PUSH DWORD [EBP+0x8]
0xd8735b 6a               DB 0x6a

************************************************************************
Hook mode: Usermode
Hook type: Inline/Trampoline
Process: 432 (VMwareTray.exe)
Victim module: WININET.dll (0x771b0000 - 0x77256000)
Function: WININET.dll!InternetCloseHandle at 0x771c61dc
Hook address: 0xd87438
Hooking module: <unknown>

Disassembly(0):
0x771c61dc e95712bc89       JMP 0xd87438
0x771c61e1 51               PUSH ECX
0x771c61e2 51               PUSH ECX
0x771c61e3 53               PUSH EBX
0x771c61e4 56               PUSH ESI
0x771c61e5 33db             XOR EBX, EBX
0x771c61e7 33f6             XOR ESI, ESI
0x771c61e9 f60544a3237701   TEST BYTE [0x7723a344], 0x1
0x771c61f0 895dfc           MOV [EBP-0x4], EBX
0x771c61f3 0f               DB 0xf

Disassembly(1):
0xd87438 53               PUSH EBX
0xd87439 56               PUSH ESI
0xd8743a 57               PUSH EDI
0xd8743b e8f8c6feff       CALL 0xd73b38
0xd87440 8b742410         MOV ESI, [ESP+0x10]
0xd87444 56               PUSH ESI
0xd87445 ff153c14d700     CALL DWORD [0xd7143c]
0xd8744b bf6c27d900       MOV EDI, 0xd9276c

************************************************************************
Hook mode: Usermode
Hook type: Inline/Trampoline
Process: 432 (VMwareTray.exe)
Victim module: WININET.dll (0x771b0000 - 0x77256000)
Function: WININET.dll!InternetQueryDataAvailable at 0x771d325f
Hook address: 0xd87415
Hooking module: <unknown>

Disassembly(0):
0x771d325f e9b141bb89       JMP 0xd87415
0x771d3264 83ec10           SUB ESP, 0x10
0x771d3267 53               PUSH EBX
0x771d3268 33db             XOR EBX, EBX
0x771d326a 391d50982377     CMP [0x77239850], EBX
0x771d3270 56               PUSH ESI
0x771d3271 57               PUSH EDI
0x771d3272 895dfc           MOV [EBP-0x4], EBX
0x771d3275 c7               DB 0xc7
0x771d3276 45               INC EBP

Disassembly(1):
0xd87415 e81ec7feff       CALL 0xd73b38
0xd8741a ff742410         PUSH DWORD [ESP+0x10]
0xd8741e ff742410         PUSH DWORD [ESP+0x10]
0xd87422 ff742410         PUSH DWORD [ESP+0x10]
0xd87426 6a00             PUSH 0x0
0xd87428 6a00             PUSH 0x0
0xd8742a ff               DB 0xff
0xd8742b 7424             JZ 0xd87451

************************************************************************
Hook mode: Usermode
Hook type: Inline/Trampoline
Process: 432 (VMwareTray.exe)
Victim module: WININET.dll (0x771b0000 - 0x77256000)
Function: WININET.dll!InternetReadFile at 0x771c9555
Hook address: 0xd873d0
Hooking module: <unknown>

Disassembly(0):
0x771c9555 e976debb89       JMP 0xd873d0
0x771c955a 83ec24           SUB ESP, 0x24
0x771c955d 53               PUSH EBX
0x771c955e 33db             XOR EBX, EBX
0x771c9560 391d50982377     CMP [0x77239850], EBX
0x771c9566 57               PUSH EDI
0x771c9567 895df4           MOV [EBP-0xc], EBX
0x771c956a 895df8           MOV [EBP-0x8], EBX

Disassembly(1):
0xd873d0 e863c7feff       CALL 0xd73b38
0xd873d5 33c0             XOR EAX, EAX
0xd873d7 50               PUSH EAX
0xd873d8 50               PUSH EAX
0xd873d9 ff742418         PUSH DWORD [ESP+0x18]
0xd873dd ff742418         PUSH DWORD [ESP+0x18]
0xd873e1 ff742418         PUSH DWORD [ESP+0x18]
0xd873e5 ff               DB 0xff
0xd873e6 7424             JZ 0xd8740c

************************************************************************
Hook mode: Usermode
Hook type: Inline/Trampoline
Process: 432 (VMwareTray.exe)
Victim module: WININET.dll (0x771b0000 - 0x77256000)
Function: WININET.dll!InternetReadFileExA at 0x771f7e9a
Hook address: 0xd873f2
Hooking module: <unknown>

Disassembly(0):
0x771f7e9a e953f5b889       JMP 0xd873f2
0x771f7e9f 83ec20           SUB ESP, 0x20
0x771f7ea2 53               PUSH EBX
0x771f7ea3 56               PUSH ESI
0x771f7ea4 33c0             XOR EAX, EAX
0x771f7ea6 57               PUSH EDI
0x771f7ea7 33ff             XOR EDI, EDI
0x771f7ea9 40               INC EAX
0x771f7eaa 393d50982377     CMP [0x77239850], EDI
0x771f7eb0 89               DB 0x89
0x771f7eb1 7d               DB 0x7d

Disassembly(1):
0xd873f2 e841c7feff       CALL 0xd73b38
0xd873f7 ff742410         PUSH DWORD [ESP+0x10]
0xd873fb ff742410         PUSH DWORD [ESP+0x10]
0xd873ff 6a00             PUSH 0x0
0xd87401 6a00             PUSH 0x0
0xd87403 ff742418         PUSH DWORD [ESP+0x18]
0xd87407 ff               DB 0xff
0xd87408 7424             JZ 0xd8742e

************************************************************************
Hook mode: Usermode
Hook type: Inline/Trampoline
Process: 452 (VMwareUser.exe)
Victim module: ntdll.dll (0x7c900000 - 0x7c9b0000)
Function: ntdll.dll!NtCreateThread at 0x7c90d7d2
Hook address: 0x1533b47
Hooking module: <unknown>

Disassembly(0):
0x7c90d7d2 e97063c284       JMP 0x1533b47
0x7c90d7d7 ba0003fe7f       MOV EDX, 0x7ffe0300
0x7c90d7dc ff12             CALL DWORD [EDX]
0x7c90d7de c22000           RET 0x20
0x7c90d7e1 90               NOP
0x7c90d7e2 90               NOP
0x7c90d7e3 90               NOP
0x7c90d7e4 90               NOP
0x7c90d7e5 90               NOP
0x7c90d7e6 90               NOP
0x7c90d7e7 b8               DB 0xb8
0x7c90d7e8 36               DB 0x36
0x7c90d7e9 00               DB 0x0

Disassembly(1):
0x1533b47 55               PUSH EBP
0x1533b48 8bec             MOV EBP, ESP
0x1533b4a 83ec18           SUB ESP, 0x18
0x1533b4d 53               PUSH EBX
0x1533b4e 56               PUSH ESI
0x1533b4f 57               PUSH EDI
0x1533b50 8b7d14           MOV EDI, [EBP+0x14]
0x1533b53 8d4514           LEA EAX, [EBP+0x14]
0x1533b56 50               PUSH EAX
0x1533b57 6a18             PUSH 0x18
0x1533b59 8d45e8           LEA EAX, [EBP-0x18]
0x1533b5c 50               PUSH EAX
0x1533b5d 33f6             XOR ESI, ESI

************************************************************************
Hook mode: Usermode
Hook type: Inline/Trampoline
Process: 452 (VMwareUser.exe)
Victim module: ntdll.dll (0x7c900000 - 0x7c9b0000)
Function: ntdll.dll!NtQueryDirectoryFile at 0x7c90df5e
Hook address: 0x1533ca5
Hooking module: <unknown>

Disassembly(0):
0x7c90df5e e9425dc284       JMP 0x1533ca5
0x7c90df63 ba0003fe7f       MOV EDX, 0x7ffe0300
0x7c90df68 ff12             CALL DWORD [EDX]
0x7c90df6a c22c00           RET 0x2c
0x7c90df6d 90               NOP
0x7c90df6e 90               NOP
0x7c90df6f 90               NOP
0x7c90df70 90               NOP
0x7c90df71 90               NOP
0x7c90df72 90               NOP
0x7c90df73 b8               DB 0xb8
0x7c90df74 92               XCHG EDX, EAX
0x7c90df75 00               DB 0x0

Disassembly(1):
0x1533ca5 55               PUSH EBP
0x1533ca6 8bec             MOV EBP, ESP
0x1533ca8 e88bfeffff       CALL 0x1533b38
0x1533cad ff7530           PUSH DWORD [EBP+0x30]
0x1533cb0 ff752c           PUSH DWORD [EBP+0x2c]
0x1533cb3 ff7528           PUSH DWORD [EBP+0x28]
0x1533cb6 ff7524           PUSH DWORD [EBP+0x24]
0x1533cb9 ff7520           PUSH DWORD [EBP+0x20]
0x1533cbc ff               DB 0xff

************************************************************************
Hook mode: Usermode
Hook type: Inline/Trampoline
Process: 452 (VMwareUser.exe)
Victim module: ntdll.dll (0x7c900000 - 0x7c9b0000)
Function: ntdll.dll!ZwCreateThread at 0x7c90d7d2
Hook address: 0x1533b47
Hooking module: <unknown>

Disassembly(0):
0x7c90d7d2 e97063c284       JMP 0x1533b47
0x7c90d7d7 ba0003fe7f       MOV EDX, 0x7ffe0300
0x7c90d7dc ff12             CALL DWORD [EDX]
0x7c90d7de c22000           RET 0x20
0x7c90d7e1 90               NOP
0x7c90d7e2 90               NOP
0x7c90d7e3 90               NOP
0x7c90d7e4 90               NOP
0x7c90d7e5 90               NOP
0x7c90d7e6 90               NOP
0x7c90d7e7 b8               DB 0xb8
0x7c90d7e8 36               DB 0x36
0x7c90d7e9 00               DB 0x0

Disassembly(1):
0x1533b47 55               PUSH EBP
0x1533b48 8bec             MOV EBP, ESP
0x1533b4a 83ec18           SUB ESP, 0x18
0x1533b4d 53               PUSH EBX
0x1533b4e 56               PUSH ESI
0x1533b4f 57               PUSH EDI
0x1533b50 8b7d14           MOV EDI, [EBP+0x14]
0x1533b53 8d4514           LEA EAX, [EBP+0x14]
0x1533b56 50               PUSH EAX
0x1533b57 6a18             PUSH 0x18
0x1533b59 8d45e8           LEA EAX, [EBP-0x18]
0x1533b5c 50               PUSH EAX
0x1533b5d 33f6             XOR ESI, ESI

************************************************************************
Hook mode: Usermode
Hook type: Inline/Trampoline
Process: 452 (VMwareUser.exe)
Victim module: ntdll.dll (0x7c900000 - 0x7c9b0000)
Function: ntdll.dll!ZwQueryDirectoryFile at 0x7c90df5e
Hook address: 0x1533ca5
Hooking module: <unknown>

Disassembly(0):
0x7c90df5e e9425dc284       JMP 0x1533ca5
0x7c90df63 ba0003fe7f       MOV EDX, 0x7ffe0300
0x7c90df68 ff12             CALL DWORD [EDX]
0x7c90df6a c22c00           RET 0x2c
0x7c90df6d 90               NOP
0x7c90df6e 90               NOP
0x7c90df6f 90               NOP
0x7c90df70 90               NOP
0x7c90df71 90               NOP
0x7c90df72 90               NOP
0x7c90df73 b8               DB 0xb8
0x7c90df74 92               XCHG EDX, EAX
0x7c90df75 00               DB 0x0

Disassembly(1):
0x1533ca5 55               PUSH EBP
0x1533ca6 8bec             MOV EBP, ESP
0x1533ca8 e88bfeffff       CALL 0x1533b38
0x1533cad ff7530           PUSH DWORD [EBP+0x30]
0x1533cb0 ff752c           PUSH DWORD [EBP+0x2c]
0x1533cb3 ff7528           PUSH DWORD [EBP+0x28]
0x1533cb6 ff7524           PUSH DWORD [EBP+0x24]
0x1533cb9 ff7520           PUSH DWORD [EBP+0x20]
0x1533cbc ff               DB 0xff

************************************************************************
Hook mode: Usermode
Hook type: Inline/Trampoline
Process: 452 (VMwareUser.exe)
Victim module: USER32.dll (0x77d40000 - 0x77dd0000)
Function: USER32.dll!BeginPaint at 0x77d4b4b1
Hook address: 0x153fd3f
Hooking module: <unknown>

Disassembly(0):
0x77d4b4b1 e989487f89       JMP 0x153fd3f
0x77d4b4b6 ba0003fe7f       MOV EDX, 0x7ffe0300
0x77d4b4bb ff12             CALL DWORD [EDX]
0x77d4b4bd c20800           RET 0x8
0x77d4b4c0 90               NOP
0x77d4b4c1 90               NOP
0x77d4b4c2 90               NOP
0x77d4b4c3 90               NOP
0x77d4b4c4 90               NOP
0x77d4b4c5 e9               DB 0xe9
0x77d4b4c6 d7               XLAT BYTE [EBX+AL]
0x77d4b4c7 48               DEC EAX
0x77d4b4c8 7f               DB 0x7f

Disassembly(1):
0x153fd3f 833d84275501ff   CMP DWORD [0x1552784], -0x1
0x153fd46 56               PUSH ESI
0x153fd47 8b74240c         MOV ESI, [ESP+0xc]
0x153fd4b 7540             JNZ 0x153fd8d
0x153fd4d 85f6             TEST ESI, ESI
0x153fd4f 743c             JZ 0x153fd8d
0x153fd51 ff1510115301     CALL DWORD [0x1531110]

************************************************************************
Hook mode: Usermode
Hook type: Inline/Trampoline
Process: 452 (VMwareUser.exe)
Victim module: USER32.dll (0x77d40000 - 0x77dd0000)
Function: USER32.dll!DefWindowProcA at 0x77d4df6b
Hook address: 0x153fe0c
Hooking module: <unknown>

Disassembly(0):
0x77d4df6b e99c1e7f89       JMP 0x153fe0c
0x77d4df70 d477             AAM 0x77
0x77d4df72 e819a6ffff       CALL 0x77d48590
0x77d4df77 e890a6ffff       CALL 0x77d4860c
0x77d4df7c 833d6c00da7700   CMP DWORD [0x77da006c], 0x0

Disassembly(1):
0x153fe0c 55               PUSH EBP
0x153fe0d 8bec             MOV EBP, ESP
0x153fe0f 833d84275501ff   CMP DWORD [0x1552784], -0x1
0x153fe16 56               PUSH ESI
0x153fe17 8b750c           MOV ESI, [EBP+0xc]
0x153fe1a 7512             JNZ 0x153fe2e
0x153fe1c 3b3578265501     CMP ESI, [0x1552678]
0x153fe22 750a             JNZ 0x153fe2e

************************************************************************
Hook mode: Usermode
Hook type: Inline/Trampoline
Process: 452 (VMwareUser.exe)
Victim module: USER32.dll (0x77d40000 - 0x77dd0000)
Function: USER32.dll!DefWindowProcW at 0x77d4b1e5
Hook address: 0x153fdd0
Hooking module: <unknown>

Disassembly(0):
0x77d4b1e5 e9e64b7f89       JMP 0x153fdd0
0x77d4b1ea d477             AAM 0x77
0x77d4b1ec e89fd3ffff       CALL 0x77d48590
0x77d4b1f1 e816d4ffff       CALL 0x77d4860c
0x77d4b1f6 833d6c00da7700   CMP DWORD [0x77da006c], 0x0

Disassembly(1):
0x153fdd0 55               PUSH EBP
0x153fdd1 8bec             MOV EBP, ESP
0x153fdd3 833d84275501ff   CMP DWORD [0x1552784], -0x1
0x153fdda 56               PUSH ESI
0x153fddb 8b750c           MOV ESI, [EBP+0xc]
0x153fdde 7512             JNZ 0x153fdf2
0x153fde0 3b3578265501     CMP ESI, [0x1552678]
0x153fde6 750a             JNZ 0x153fdf2

************************************************************************
Hook mode: Usermode
Hook type: Inline/Trampoline
Process: 452 (VMwareUser.exe)
Victim module: USER32.dll (0x77d40000 - 0x77dd0000)
Function: USER32.dll!EndPaint at 0x77d4b4c5
Hook address: 0x153fda1
Hooking module: <unknown>

Disassembly(0):
0x77d4b4c5 e9d7487f89       JMP 0x153fda1
0x77d4b4ca ba0003fe7f       MOV EDX, 0x7ffe0300
0x77d4b4cf ff12             CALL DWORD [EDX]
0x77d4b4d1 c20800           RET 0x8
0x77d4b4d4 90               NOP
0x77d4b4d5 90               NOP
0x77d4b4d6 90               NOP
0x77d4b4d7 90               NOP
0x77d4b4d8 90               NOP
0x77d4b4d9 8bff             MOV EDI, EDI
0x77d4b4db 55               PUSH EBP
0x77d4b4dc 8b               DB 0x8b

Disassembly(1):
0x153fda1 833d84275501ff   CMP DWORD [0x1552784], -0x1
0x153fda8 751b             JNZ 0x153fdc5
0x153fdaa 837c240800       CMP DWORD [ESP+0x8], 0x0
0x153fdaf 7414             JZ 0x153fdc5
0x153fdb1 ff1510115301     CALL DWORD [0x1531110]
0x153fdb7 39               DB 0x39
0x153fdb8 05               DB 0x5

************************************************************************
Hook mode: Usermode
Hook type: Inline/Trampoline
Process: 452 (VMwareUser.exe)
Victim module: USER32.dll (0x77d40000 - 0x77dd0000)
Function: USER32.dll!GetClipboardData at 0x77d6fcb2
Hook address: 0x1544fd5
Hooking module: <unknown>

Disassembly(0):
0x77d6fcb2 e91e537d89       JMP 0x1544fd5
0x77d6fcb7 83ec2c           SUB ESP, 0x2c
0x77d6fcba 56               PUSH ESI
0x77d6fcbb 57               PUSH EDI
0x77d6fcbc 8d45d4           LEA EAX, [EBP-0x2c]
0x77d6fcbf 50               PUSH EAX
0x77d6fcc0 ff7508           PUSH DWORD [EBP+0x8]
0x77d6fcc3 e8e8000000       CALL 0x77d6fdb0
0x77d6fcc8 8bf0             MOV ESI, EAX

Disassembly(1):
0x1544fd5 55               PUSH EBP
0x1544fd6 8bec             MOV EBP, ESP
0x1544fd8 53               PUSH EBX
0x1544fd9 56               PUSH ESI
0x1544fda e859ebfeff       CALL 0x1533b38
0x1544fdf 8b7508           MOV ESI, [EBP+0x8]
0x1544fe2 56               PUSH ESI
0x1544fe3 ff1560135301     CALL DWORD [0x1531360]
0x1544fe9 8bd8             MOV EBX, EAX
0x1544feb 85db             TEST EBX, EBX

************************************************************************
Hook mode: Usermode
Hook type: Inline/Trampoline
Process: 452 (VMwareUser.exe)
Victim module: USER32.dll (0x77d40000 - 0x77dd0000)
Function: USER32.dll!TranslateMessage at 0x77d48bce
Hook address: 0x1544ea0
Hooking module: <unknown>

Disassembly(0):
0x77d48bce e9cdc27f89       JMP 0x1544ea0
0x77d48bd3 56               PUSH ESI
0x77d48bd4 8b7508           MOV ESI, [EBP+0x8]
0x77d48bd7 66817e08e500     CMP WORD [ESI+0x8], 0xe5
0x77d48bdd 0f84a77e0200     JZ 0x77d70a8a
0x77d48be3 6a00             PUSH 0x0
0x77d48be5 56               PUSH ESI

Disassembly(1):
0x1544ea0 55               PUSH EBP
0x1544ea1 8bec             MOV EBP, ESP
0x1544ea3 83e4f8           AND ESP, -0x8
0x1544ea6 81ec1c030000     SUB ESP, 0x31c
0x1544eac 53               PUSH EBX
0x1544ead 8b5d08           MOV EBX, [EBP+0x8]
0x1544eb0 56               PUSH ESI
0x1544eb1 57               PUSH EDI
0x1544eb2 85db             TEST EBX, EBX
0x1544eb4 0f               DB 0xf
0x1544eb5 8406             TEST [ESI], AL
0x1544eb7 01               DB 0x1

************************************************************************
Hook mode: Usermode
Hook type: Inline/Trampoline
Process: 452 (VMwareUser.exe)
Victim module: WS2_32.dll (0x71ab0000 - 0x71ac7000)
Function: WS2_32.dll!WSASend at 0x71ab6233
Hook address: 0x154112c
Hooking module: <unknown>

Disassembly(0):
0x71ab6233 e9f4aea88f       JMP 0x154112c
0x71ab6238 51               PUSH ECX
0x71ab6239 51               PUSH ECX
0x71ab623a 813d2840ac714894ab71 CMP DWORD [0x71ac4028], 0x71ab9448
0x71ab6244 56               PUSH ESI
0x71ab6245 0f847f540000     JZ 0x71abb6ca

Disassembly(1):
0x154112c 55               PUSH EBP
0x154112d 8bec             MOV EBP, ESP
0x154112f 837d1000         CMP DWORD [EBP+0x10], 0x0
0x1541133 56               PUSH ESI
0x1541134 8b750c           MOV ESI, [EBP+0xc]
0x1541137 7615             JBE 0x154114e
0x1541139 57               PUSH EDI
0x154113a 8b7d10           MOV EDI, [EBP+0x10]
0x154113d ff36             PUSH DWORD [ESI]
0x154113f 8b4604           MOV EAX, [ESI+0x4]
0x1541142 ff               DB 0xff
0x1541143 75               DB 0x75

************************************************************************
Hook mode: Usermode
Hook type: Inline/Trampoline
Process: 452 (VMwareUser.exe)
Victim module: WS2_32.dll (0x71ab0000 - 0x71ac7000)
Function: WS2_32.dll!closesocket at 0x71ab9639
Hook address: 0x15410db
Hooking module: <unknown>

Disassembly(0):
0x71ab9639 e99d7aa88f       JMP 0x15410db
0x71ab963e 51               PUSH ECX
0x71ab963f 813d2840ac714894ab71 CMP DWORD [0x71ac4028], 0x71ab9448
0x71ab9649 56               PUSH ESI
0x71ab964a 0f84aef3ffff     JZ 0x71ab89fe
0x71ab9650 e8               DB 0xe8

Disassembly(1):
0x15410db 56               PUSH ESI
0x15410dc bef4265501       MOV ESI, 0x15526f4
0x15410e1 56               PUSH ESI
0x15410e2 ff1574125301     CALL DWORD [0x1531274]
0x15410e8 ff742408         PUSH DWORD [ESP+0x8]
0x15410ec e859fcffff       CALL 0x1540d4a
0x15410f1 85c0             TEST EAX, EAX

************************************************************************
Hook mode: Usermode
Hook type: Inline/Trampoline
Process: 452 (VMwareUser.exe)
Victim module: WS2_32.dll (0x71ab0000 - 0x71ac7000)
Function: WS2_32.dll!send at 0x71ab428a
Hook address: 0x154110f
Hooking module: <unknown>

Disassembly(0):
0x71ab428a e980cea88f       JMP 0x154110f
0x71ab428f 83ec10           SUB ESP, 0x10
0x71ab4292 56               PUSH ESI
0x71ab4293 57               PUSH EDI
0x71ab4294 33ff             XOR EDI, EDI
0x71ab4296 813d2840ac714894ab71 CMP DWORD [0x71ac4028], 0x71ab9448
0x71ab42a0 0f               DB 0xf
0x71ab42a1 84               DB 0x84

Disassembly(1):
0x154110f 55               PUSH EBP
0x1541110 8bec             MOV EBP, ESP
0x1541112 ff7510           PUSH DWORD [EBP+0x10]
0x1541115 8b450c           MOV EAX, [EBP+0xc]
0x1541118 ff7508           PUSH DWORD [EBP+0x8]
0x154111b e838fdffff       CALL 0x1540e58
0x1541120 e8132affff       CALL 0x1533b38
0x1541125 5d               POP EBP
0x1541126 ff               DB 0xff

************************************************************************
Hook mode: Usermode
Hook type: Inline/Trampoline
Process: 452 (VMwareUser.exe)
Victim module: CRYPT32.dll (0x77a80000 - 0x77b14000)
Function: CRYPT32.dll!PFXImportCertStore at 0x77aef748
Hook address: 0x1533692
Hooking module: <unknown>

Disassembly(0):
0x77aef748 e9453fa489       JMP 0x1533692
0x77aef74d 83ec18           SUB ESP, 0x18
0x77aef750 53               PUSH EBX
0x77aef751 57               PUSH EDI
0x77aef752 33c0             XOR EAX, EAX
0x77aef754 8d7de8           LEA EDI, [EBP-0x18]
0x77aef757 33db             XOR EBX, EBX
0x77aef759 f74510dcefffef   TEST DWORD [EBP+0x10], 0xefffefdc

Disassembly(1):
0x1533692 55               PUSH EBP
0x1533693 8bec             MOV EBP, ESP
0x1533695 81ec80000000     SUB ESP, 0x80
0x153369b 53               PUSH EBX
0x153369c 56               PUSH ESI
0x153369d e896040000       CALL 0x1533b38
0x15336a2 ff7510           PUSH DWORD [EBP+0x10]
0x15336a5 8b7508           MOV ESI, [EBP+0x8]
0x15336a8 ff               DB 0xff
0x15336a9 75               DB 0x75

************************************************************************
Hook mode: Usermode
Hook type: Inline/Trampoline
Process: 452 (VMwareUser.exe)
Victim module: WININET.dll (0x771b0000 - 0x77256000)
Function: WININET.dll!HttpQueryInfoA at 0x771c8c6a
Hook address: 0x1547477
Hooking module: <unknown>

Disassembly(0):
0x771c8c6a e908e8378a       JMP 0x1547477
0x771c8c6f 1c77             SBB AL, 0x77
0x771c8c71 e8fc89feff       CALL 0x771b1672
0x771c8c76 33db             XOR EBX, EBX
0x771c8c78 895ddc           MOV [EBP-0x24], EBX
0x771c8c7b 895de4           MOV [EBP-0x1c], EBX
0x771c8c7e 39               DB 0x39
0x771c8c7f 1d               DB 0x1d
0x771c8c80 50               PUSH EAX
0x771c8c81 98               CWDE

Disassembly(1):
0x1547477 55               PUSH EBP
0x1547478 8bec             MOV EBP, ESP
0x154747a 56               PUSH ESI
0x154747b 57               PUSH EDI
0x154747c bf6c275501       MOV EDI, 0x155276c
0x1547481 57               PUSH EDI
0x1547482 ff1574125301     CALL DWORD [0x1531274]
0x1547488 8b7508           MOV ESI, [EBP+0x8]
0x154748b e8               DB 0xe8
0x154748c 67e5ff           IN EAX, 0xff

************************************************************************
Hook mode: Usermode
Hook type: Inline/Trampoline
Process: 452 (VMwareUser.exe)
Victim module: WININET.dll (0x771b0000 - 0x77256000)
Function: WININET.dll!HttpSendRequestA at 0x771c76b8
Hook address: 0x1547366
Hooking module: <unknown>

Disassembly(0):
0x771c76b8 e9a9fc378a       JMP 0x1547366
0x771c76bd 6a13             PUSH 0x13
0x771c76bf 6a00             PUSH 0x0
0x771c76c1 ff7518           PUSH DWORD [EBP+0x18]
0x771c76c4 ff7514           PUSH DWORD [EBP+0x14]
0x771c76c7 ff7510           PUSH DWORD [EBP+0x10]
0x771c76ca ff750c           PUSH DWORD [EBP+0xc]
0x771c76cd ff7508           PUSH DWORD [EBP+0x8]

Disassembly(1):
0x1547366 55               PUSH EBP
0x1547367 8bec             MOV EBP, ESP
0x1547369 e8cac7feff       CALL 0x1533b38
0x154736e ff7510           PUSH DWORD [EBP+0x10]
0x1547371 8b4518           MOV EAX, [EBP+0x18]
0x1547374 ff750c           PUSH DWORD [EBP+0xc]
0x1547377 8b4d14           MOV ECX, [EBP+0x14]
0x154737a ff7508           PUSH DWORD [EBP+0x8]
0x154737d 6a               DB 0x6a

************************************************************************
Hook mode: Usermode
Hook type: Inline/Trampoline
Process: 452 (VMwareUser.exe)
Victim module: WININET.dll (0x771b0000 - 0x77256000)
Function: WININET.dll!HttpSendRequestExA at 0x7721190d
Hook address: 0x15473ac
Hooking module: <unknown>

Disassembly(0):
0x7721190d e99a5a338a       JMP 0x15473ac
0x77211912 53               PUSH EBX
0x77211913 56               PUSH ESI
0x77211914 57               PUSH EDI
0x77211915 33db             XOR EBX, EBX
0x77211917 33c0             XOR EAX, EAX
0x77211919 33c9             XOR ECX, ECX
0x7721191b 33d2             XOR EDX, EDX
0x7721191d 33ff             XOR EDI, EDI
0x7721191f 395d10           CMP [EBP+0x10], EBX
0x77211922 7539             JNZ 0x7721195d
0x77211924 8b               DB 0x8b

Disassembly(1):
0x15473ac 55               PUSH EBP
0x15473ad 8bec             MOV EBP, ESP
0x15473af 53               PUSH EBX
0x15473b0 e883c7feff       CALL 0x1533b38
0x15473b5 ff7518           PUSH DWORD [EBP+0x18]
0x15473b8 8b450c           MOV EAX, [EBP+0xc]
0x15473bb ff7514           PUSH DWORD [EBP+0x14]
0x15473be 8b5d08           MOV EBX, [EBP+0x8]
0x15473c1 ff7510           PUSH DWORD [EBP+0x10]

************************************************************************
Hook mode: Usermode
Hook type: Inline/Trampoline
Process: 452 (VMwareUser.exe)
Victim module: WININET.dll (0x771b0000 - 0x77256000)
Function: WININET.dll!HttpSendRequestExW at 0x771d53eb
Hook address: 0x1547388
Hooking module: <unknown>

Disassembly(0):
0x771d53eb e9981f378a       JMP 0x1547388
0x771d53f0 83ec14           SUB ESP, 0x14
0x771d53f3 53               PUSH EBX
0x771d53f4 56               PUSH ESI
0x771d53f5 33c0             XOR EAX, EAX
0x771d53f7 57               PUSH EDI
0x771d53f8 33d2             XOR EDX, EDX
0x771d53fa 33db             XOR EBX, EBX
0x771d53fc 33ff             XOR EDI, EDI
0x771d53fe 33c9             XOR ECX, ECX
0x771d5400 395508           CMP [EBP+0x8], EDX

Disassembly(1):
0x1547388 55               PUSH EBP
0x1547389 8bec             MOV EBP, ESP
0x154738b 53               PUSH EBX
0x154738c e8a7c7feff       CALL 0x1533b38
0x1547391 ff7518           PUSH DWORD [EBP+0x18]
0x1547394 8b450c           MOV EAX, [EBP+0xc]
0x1547397 ff7514           PUSH DWORD [EBP+0x14]
0x154739a 8b5d08           MOV EBX, [EBP+0x8]
0x154739d ff7510           PUSH DWORD [EBP+0x10]

************************************************************************
Hook mode: Usermode
Hook type: Inline/Trampoline
Process: 452 (VMwareUser.exe)
Victim module: WININET.dll (0x771b0000 - 0x77256000)
Function: WININET.dll!HttpSendRequestW at 0x77211808
Hook address: 0x1547344
Hooking module: <unknown>

Disassembly(0):
0x77211808 e9375b338a       JMP 0x1547344
0x7721180d 83ec14           SUB ESP, 0x14
0x77211810 53               PUSH EBX
0x77211811 33db             XOR EBX, EBX
0x77211813 56               PUSH ESI
0x77211814 33f6             XOR ESI, ESI
0x77211816 33c0             XOR EAX, EAX
0x77211818 395d08           CMP [EBP+0x8], EBX
0x7721181b 57               PUSH EDI
0x7721181c 895df8           MOV [EBP-0x8], EBX
0x7721181f 89               DB 0x89

Disassembly(1):
0x1547344 55               PUSH EBP
0x1547345 8bec             MOV EBP, ESP
0x1547347 e8ecc7feff       CALL 0x1533b38
0x154734c ff7510           PUSH DWORD [EBP+0x10]
0x154734f 8b4518           MOV EAX, [EBP+0x18]
0x1547352 ff750c           PUSH DWORD [EBP+0xc]
0x1547355 8b4d14           MOV ECX, [EBP+0x14]
0x1547358 ff7508           PUSH DWORD [EBP+0x8]
0x154735b 6a               DB 0x6a

************************************************************************
Hook mode: Usermode
Hook type: Inline/Trampoline
Process: 452 (VMwareUser.exe)
Victim module: WININET.dll (0x771b0000 - 0x77256000)
Function: WININET.dll!InternetCloseHandle at 0x771c61dc
Hook address: 0x1547438
Hooking module: <unknown>

Disassembly(0):
0x771c61dc e95712388a       JMP 0x1547438
0x771c61e1 51               PUSH ECX
0x771c61e2 51               PUSH ECX
0x771c61e3 53               PUSH EBX
0x771c61e4 56               PUSH ESI
0x771c61e5 33db             XOR EBX, EBX
0x771c61e7 33f6             XOR ESI, ESI
0x771c61e9 f60544a3237701   TEST BYTE [0x7723a344], 0x1
0x771c61f0 895dfc           MOV [EBP-0x4], EBX
0x771c61f3 0f               DB 0xf

Disassembly(1):
0x1547438 53               PUSH EBX
0x1547439 56               PUSH ESI
0x154743a 57               PUSH EDI
0x154743b e8f8c6feff       CALL 0x1533b38
0x1547440 8b742410         MOV ESI, [ESP+0x10]
0x1547444 56               PUSH ESI
0x1547445 ff153c145301     CALL DWORD [0x153143c]
0x154744b bf6c275501       MOV EDI, 0x155276c

************************************************************************
Hook mode: Usermode
Hook type: Inline/Trampoline
Process: 452 (VMwareUser.exe)
Victim module: WININET.dll (0x771b0000 - 0x77256000)
Function: WININET.dll!InternetQueryDataAvailable at 0x771d325f
Hook address: 0x1547415
Hooking module: <unknown>

Disassembly(0):
0x771d325f e9b141378a       JMP 0x1547415
0x771d3264 83ec10           SUB ESP, 0x10
0x771d3267 53               PUSH EBX
0x771d3268 33db             XOR EBX, EBX
0x771d326a 391d50982377     CMP [0x77239850], EBX
0x771d3270 56               PUSH ESI
0x771d3271 57               PUSH EDI
0x771d3272 895dfc           MOV [EBP-0x4], EBX
0x771d3275 c7               DB 0xc7
0x771d3276 45               INC EBP

Disassembly(1):
0x1547415 e81ec7feff       CALL 0x1533b38
0x154741a ff742410         PUSH DWORD [ESP+0x10]
0x154741e ff742410         PUSH DWORD [ESP+0x10]
0x1547422 ff742410         PUSH DWORD [ESP+0x10]
0x1547426 6a00             PUSH 0x0
0x1547428 6a00             PUSH 0x0
0x154742a ff               DB 0xff
0x154742b 7424             JZ 0x1547451

************************************************************************
Hook mode: Usermode
Hook type: Inline/Trampoline
Process: 452 (VMwareUser.exe)
Victim module: WININET.dll (0x771b0000 - 0x77256000)
Function: WININET.dll!InternetReadFile at 0x771c9555
Hook address: 0x15473d0
Hooking module: <unknown>

Disassembly(0):
0x771c9555 e976de378a       JMP 0x15473d0
0x771c955a 83ec24           SUB ESP, 0x24
0x771c955d 53               PUSH EBX
0x771c955e 33db             XOR EBX, EBX
0x771c9560 391d50982377     CMP [0x77239850], EBX
0x771c9566 57               PUSH EDI
0x771c9567 895df4           MOV [EBP-0xc], EBX
0x771c956a 895df8           MOV [EBP-0x8], EBX

Disassembly(1):
0x15473d0 e863c7feff       CALL 0x1533b38
0x15473d5 33c0             XOR EAX, EAX
0x15473d7 50               PUSH EAX
0x15473d8 50               PUSH EAX
0x15473d9 ff742418         PUSH DWORD [ESP+0x18]
0x15473dd ff742418         PUSH DWORD [ESP+0x18]
0x15473e1 ff742418         PUSH DWORD [ESP+0x18]
0x15473e5 ff               DB 0xff
0x15473e6 7424             JZ 0x154740c

************************************************************************
Hook mode: Usermode
Hook type: Inline/Trampoline
Process: 452 (VMwareUser.exe)
Victim module: WININET.dll (0x771b0000 - 0x77256000)
Function: WININET.dll!InternetReadFileExA at 0x771f7e9a
Hook address: 0x15473f2
Hooking module: <unknown>

Disassembly(0):
0x771f7e9a e953f5348a       JMP 0x15473f2
0x771f7e9f 83ec20           SUB ESP, 0x20
0x771f7ea2 53               PUSH EBX
0x771f7ea3 56               PUSH ESI
0x771f7ea4 33c0             XOR EAX, EAX
0x771f7ea6 57               PUSH EDI
0x771f7ea7 33ff             XOR EDI, EDI
0x771f7ea9 40               INC EAX
0x771f7eaa 393d50982377     CMP [0x77239850], EDI
0x771f7eb0 89               DB 0x89
0x771f7eb1 7d               DB 0x7d

Disassembly(1):
0x15473f2 e841c7feff       CALL 0x1533b38
0x15473f7 ff742410         PUSH DWORD [ESP+0x10]
0x15473fb ff742410         PUSH DWORD [ESP+0x10]
0x15473ff 6a00             PUSH 0x0
0x1547401 6a00             PUSH 0x0
0x1547403 ff742418         PUSH DWORD [ESP+0x18]
0x1547407 ff               DB 0xff
0x1547408 7424             JZ 0x154742e

************************************************************************
Hook mode: Usermode
Hook type: Inline/Trampoline
Process: 468 (wuauclt.exe)
Victim module: ntdll.dll (0x7c900000 - 0x7c9b0000)
Function: ntdll.dll!NtCreateThread at 0x7c90d7d2
Hook address: 0x12d3b47
Hooking module: <unknown>

Disassembly(0):
0x7c90d7d2 e970639c84       JMP 0x12d3b47
0x7c90d7d7 ba0003fe7f       MOV EDX, 0x7ffe0300
0x7c90d7dc ff12             CALL DWORD [EDX]
0x7c90d7de c22000           RET 0x20
0x7c90d7e1 90               NOP
0x7c90d7e2 90               NOP
0x7c90d7e3 90               NOP
0x7c90d7e4 90               NOP
0x7c90d7e5 90               NOP
0x7c90d7e6 90               NOP
0x7c90d7e7 b8               DB 0xb8
0x7c90d7e8 36               DB 0x36
0x7c90d7e9 00               DB 0x0

Disassembly(1):
0x12d3b47 55               PUSH EBP
0x12d3b48 8bec             MOV EBP, ESP
0x12d3b4a 83ec18           SUB ESP, 0x18
0x12d3b4d 53               PUSH EBX
0x12d3b4e 56               PUSH ESI
0x12d3b4f 57               PUSH EDI
0x12d3b50 8b7d14           MOV EDI, [EBP+0x14]
0x12d3b53 8d4514           LEA EAX, [EBP+0x14]
0x12d3b56 50               PUSH EAX
0x12d3b57 6a18             PUSH 0x18
0x12d3b59 8d45e8           LEA EAX, [EBP-0x18]
0x12d3b5c 50               PUSH EAX
0x12d3b5d 33f6             XOR ESI, ESI

************************************************************************
Hook mode: Usermode
Hook type: Inline/Trampoline
Process: 468 (wuauclt.exe)
Victim module: ntdll.dll (0x7c900000 - 0x7c9b0000)
Function: ntdll.dll!NtQueryDirectoryFile at 0x7c90df5e
Hook address: 0x12d3ca5
Hooking module: <unknown>

Disassembly(0):
0x7c90df5e e9425d9c84       JMP 0x12d3ca5
0x7c90df63 ba0003fe7f       MOV EDX, 0x7ffe0300
0x7c90df68 ff12             CALL DWORD [EDX]
0x7c90df6a c22c00           RET 0x2c
0x7c90df6d 90               NOP
0x7c90df6e 90               NOP
0x7c90df6f 90               NOP
0x7c90df70 90               NOP
0x7c90df71 90               NOP
0x7c90df72 90               NOP
0x7c90df73 b8               DB 0xb8
0x7c90df74 92               XCHG EDX, EAX
0x7c90df75 00               DB 0x0

Disassembly(1):
0x12d3ca5 55               PUSH EBP
0x12d3ca6 8bec             MOV EBP, ESP
0x12d3ca8 e88bfeffff       CALL 0x12d3b38
0x12d3cad ff7530           PUSH DWORD [EBP+0x30]
0x12d3cb0 ff752c           PUSH DWORD [EBP+0x2c]
0x12d3cb3 ff7528           PUSH DWORD [EBP+0x28]
0x12d3cb6 ff7524           PUSH DWORD [EBP+0x24]
0x12d3cb9 ff7520           PUSH DWORD [EBP+0x20]
0x12d3cbc ff               DB 0xff

************************************************************************
Hook mode: Usermode
Hook type: Inline/Trampoline
Process: 468 (wuauclt.exe)
Victim module: ntdll.dll (0x7c900000 - 0x7c9b0000)
Function: ntdll.dll!ZwCreateThread at 0x7c90d7d2
Hook address: 0x12d3b47
Hooking module: <unknown>

Disassembly(0):
0x7c90d7d2 e970639c84       JMP 0x12d3b47
0x7c90d7d7 ba0003fe7f       MOV EDX, 0x7ffe0300
0x7c90d7dc ff12             CALL DWORD [EDX]
0x7c90d7de c22000           RET 0x20
0x7c90d7e1 90               NOP
0x7c90d7e2 90               NOP
0x7c90d7e3 90               NOP
0x7c90d7e4 90               NOP
0x7c90d7e5 90               NOP
0x7c90d7e6 90               NOP
0x7c90d7e7 b8               DB 0xb8
0x7c90d7e8 36               DB 0x36
0x7c90d7e9 00               DB 0x0

Disassembly(1):
0x12d3b47 55               PUSH EBP
0x12d3b48 8bec             MOV EBP, ESP
0x12d3b4a 83ec18           SUB ESP, 0x18
0x12d3b4d 53               PUSH EBX
0x12d3b4e 56               PUSH ESI
0x12d3b4f 57               PUSH EDI
0x12d3b50 8b7d14           MOV EDI, [EBP+0x14]
0x12d3b53 8d4514           LEA EAX, [EBP+0x14]
0x12d3b56 50               PUSH EAX
0x12d3b57 6a18             PUSH 0x18
0x12d3b59 8d45e8           LEA EAX, [EBP-0x18]
0x12d3b5c 50               PUSH EAX
0x12d3b5d 33f6             XOR ESI, ESI

************************************************************************
Hook mode: Usermode
Hook type: Inline/Trampoline
Process: 468 (wuauclt.exe)
Victim module: ntdll.dll (0x7c900000 - 0x7c9b0000)
Function: ntdll.dll!ZwQueryDirectoryFile at 0x7c90df5e
Hook address: 0x12d3ca5
Hooking module: <unknown>

Disassembly(0):
0x7c90df5e e9425d9c84       JMP 0x12d3ca5
0x7c90df63 ba0003fe7f       MOV EDX, 0x7ffe0300
0x7c90df68 ff12             CALL DWORD [EDX]
0x7c90df6a c22c00           RET 0x2c
0x7c90df6d 90               NOP
0x7c90df6e 90               NOP
0x7c90df6f 90               NOP
0x7c90df70 90               NOP
0x7c90df71 90               NOP
0x7c90df72 90               NOP
0x7c90df73 b8               DB 0xb8
0x7c90df74 92               XCHG EDX, EAX
0x7c90df75 00               DB 0x0

Disassembly(1):
0x12d3ca5 55               PUSH EBP
0x12d3ca6 8bec             MOV EBP, ESP
0x12d3ca8 e88bfeffff       CALL 0x12d3b38
0x12d3cad ff7530           PUSH DWORD [EBP+0x30]
0x12d3cb0 ff752c           PUSH DWORD [EBP+0x2c]
0x12d3cb3 ff7528           PUSH DWORD [EBP+0x28]
0x12d3cb6 ff7524           PUSH DWORD [EBP+0x24]
0x12d3cb9 ff7520           PUSH DWORD [EBP+0x20]
0x12d3cbc ff               DB 0xff

************************************************************************
Hook mode: Usermode
Hook type: Inline/Trampoline
Process: 468 (wuauclt.exe)
Victim module: USER32.dll (0x77d40000 - 0x77dd0000)
Function: USER32.dll!BeginPaint at 0x77d4b4b1
Hook address: 0x12dfd3f
Hooking module: <unknown>

Disassembly(0):
0x77d4b4b1 e989485989       JMP 0x12dfd3f
0x77d4b4b6 ba0003fe7f       MOV EDX, 0x7ffe0300
0x77d4b4bb ff12             CALL DWORD [EDX]
0x77d4b4bd c20800           RET 0x8
0x77d4b4c0 90               NOP
0x77d4b4c1 90               NOP
0x77d4b4c2 90               NOP
0x77d4b4c3 90               NOP
0x77d4b4c4 90               NOP
0x77d4b4c5 e9               DB 0xe9
0x77d4b4c6 d7               XLAT BYTE [EBX+AL]
0x77d4b4c7 48               DEC EAX
0x77d4b4c8 59               POP ECX

Disassembly(1):
0x12dfd3f 833d84272f01ff   CMP DWORD [0x12f2784], -0x1
0x12dfd46 56               PUSH ESI
0x12dfd47 8b74240c         MOV ESI, [ESP+0xc]
0x12dfd4b 7540             JNZ 0x12dfd8d
0x12dfd4d 85f6             TEST ESI, ESI
0x12dfd4f 743c             JZ 0x12dfd8d
0x12dfd51 ff1510112d01     CALL DWORD [0x12d1110]

************************************************************************
Hook mode: Usermode
Hook type: Inline/Trampoline
Process: 468 (wuauclt.exe)
Victim module: USER32.dll (0x77d40000 - 0x77dd0000)
Function: USER32.dll!DefWindowProcA at 0x77d4df6b
Hook address: 0x12dfe0c
Hooking module: <unknown>

Disassembly(0):
0x77d4df6b e99c1e5989       JMP 0x12dfe0c
0x77d4df70 d477             AAM 0x77
0x77d4df72 e819a6ffff       CALL 0x77d48590
0x77d4df77 e890a6ffff       CALL 0x77d4860c
0x77d4df7c 833d6c00da7700   CMP DWORD [0x77da006c], 0x0

Disassembly(1):
0x12dfe0c 55               PUSH EBP
0x12dfe0d 8bec             MOV EBP, ESP
0x12dfe0f 833d84272f01ff   CMP DWORD [0x12f2784], -0x1
0x12dfe16 56               PUSH ESI
0x12dfe17 8b750c           MOV ESI, [EBP+0xc]
0x12dfe1a 7512             JNZ 0x12dfe2e
0x12dfe1c 3b3578262f01     CMP ESI, [0x12f2678]
0x12dfe22 750a             JNZ 0x12dfe2e

************************************************************************
Hook mode: Usermode
Hook type: Inline/Trampoline
Process: 468 (wuauclt.exe)
Victim module: USER32.dll (0x77d40000 - 0x77dd0000)
Function: USER32.dll!DefWindowProcW at 0x77d4b1e5
Hook address: 0x12dfdd0
Hooking module: <unknown>

Disassembly(0):
0x77d4b1e5 e9e64b5989       JMP 0x12dfdd0
0x77d4b1ea d477             AAM 0x77
0x77d4b1ec e89fd3ffff       CALL 0x77d48590
0x77d4b1f1 e816d4ffff       CALL 0x77d4860c
0x77d4b1f6 833d6c00da7700   CMP DWORD [0x77da006c], 0x0

Disassembly(1):
0x12dfdd0 55               PUSH EBP
0x12dfdd1 8bec             MOV EBP, ESP
0x12dfdd3 833d84272f01ff   CMP DWORD [0x12f2784], -0x1
0x12dfdda 56               PUSH ESI
0x12dfddb 8b750c           MOV ESI, [EBP+0xc]
0x12dfdde 7512             JNZ 0x12dfdf2
0x12dfde0 3b3578262f01     CMP ESI, [0x12f2678]
0x12dfde6 750a             JNZ 0x12dfdf2

************************************************************************
Hook mode: Usermode
Hook type: Inline/Trampoline
Process: 468 (wuauclt.exe)
Victim module: USER32.dll (0x77d40000 - 0x77dd0000)
Function: USER32.dll!EndPaint at 0x77d4b4c5
Hook address: 0x12dfda1
Hooking module: <unknown>

Disassembly(0):
0x77d4b4c5 e9d7485989       JMP 0x12dfda1
0x77d4b4ca ba0003fe7f       MOV EDX, 0x7ffe0300
0x77d4b4cf ff12             CALL DWORD [EDX]
0x77d4b4d1 c20800           RET 0x8
0x77d4b4d4 90               NOP
0x77d4b4d5 90               NOP
0x77d4b4d6 90               NOP
0x77d4b4d7 90               NOP
0x77d4b4d8 90               NOP
0x77d4b4d9 8bff             MOV EDI, EDI
0x77d4b4db 55               PUSH EBP
0x77d4b4dc 8b               DB 0x8b

Disassembly(1):
0x12dfda1 833d84272f01ff   CMP DWORD [0x12f2784], -0x1
0x12dfda8 751b             JNZ 0x12dfdc5
0x12dfdaa 837c240800       CMP DWORD [ESP+0x8], 0x0
0x12dfdaf 7414             JZ 0x12dfdc5
0x12dfdb1 ff1510112d01     CALL DWORD [0x12d1110]
0x12dfdb7 39               DB 0x39
0x12dfdb8 05               DB 0x5

************************************************************************
Hook mode: Usermode
Hook type: Inline/Trampoline
Process: 468 (wuauclt.exe)
Victim module: USER32.dll (0x77d40000 - 0x77dd0000)
Function: USER32.dll!GetClipboardData at 0x77d6fcb2
Hook address: 0x12e4fd5
Hooking module: <unknown>

Disassembly(0):
0x77d6fcb2 e91e535789       JMP 0x12e4fd5
0x77d6fcb7 83ec2c           SUB ESP, 0x2c
0x77d6fcba 56               PUSH ESI
0x77d6fcbb 57               PUSH EDI
0x77d6fcbc 8d45d4           LEA EAX, [EBP-0x2c]
0x77d6fcbf 50               PUSH EAX
0x77d6fcc0 ff7508           PUSH DWORD [EBP+0x8]
0x77d6fcc3 e8e8000000       CALL 0x77d6fdb0
0x77d6fcc8 8bf0             MOV ESI, EAX

Disassembly(1):
0x12e4fd5 55               PUSH EBP
0x12e4fd6 8bec             MOV EBP, ESP
0x12e4fd8 53               PUSH EBX
0x12e4fd9 56               PUSH ESI
0x12e4fda e859ebfeff       CALL 0x12d3b38
0x12e4fdf 8b7508           MOV ESI, [EBP+0x8]
0x12e4fe2 56               PUSH ESI
0x12e4fe3 ff1560132d01     CALL DWORD [0x12d1360]
0x12e4fe9 8bd8             MOV EBX, EAX
0x12e4feb 85db             TEST EBX, EBX

************************************************************************
Hook mode: Usermode
Hook type: Inline/Trampoline
Process: 468 (wuauclt.exe)
Victim module: USER32.dll (0x77d40000 - 0x77dd0000)
Function: USER32.dll!TranslateMessage at 0x77d48bce
Hook address: 0x12e4ea0
Hooking module: <unknown>

Disassembly(0):
0x77d48bce e9cdc25989       JMP 0x12e4ea0
0x77d48bd3 56               PUSH ESI
0x77d48bd4 8b7508           MOV ESI, [EBP+0x8]
0x77d48bd7 66817e08e500     CMP WORD [ESI+0x8], 0xe5
0x77d48bdd 0f84a77e0200     JZ 0x77d70a8a
0x77d48be3 6a00             PUSH 0x0
0x77d48be5 56               PUSH ESI

Disassembly(1):
0x12e4ea0 55               PUSH EBP
0x12e4ea1 8bec             MOV EBP, ESP
0x12e4ea3 83e4f8           AND ESP, -0x8
0x12e4ea6 81ec1c030000     SUB ESP, 0x31c
0x12e4eac 53               PUSH EBX
0x12e4ead 8b5d08           MOV EBX, [EBP+0x8]
0x12e4eb0 56               PUSH ESI
0x12e4eb1 57               PUSH EDI
0x12e4eb2 85db             TEST EBX, EBX
0x12e4eb4 0f               DB 0xf
0x12e4eb5 8406             TEST [ESI], AL
0x12e4eb7 01               DB 0x1

************************************************************************
Hook mode: Usermode
Hook type: Inline/Trampoline
Process: 468 (wuauclt.exe)
Victim module: WS2_32.dll (0x71ab0000 - 0x71ac7000)
Function: WS2_32.dll!WSASend at 0x71ab6233
Hook address: 0x12e112c
Hooking module: <unknown>

Disassembly(0):
0x71ab6233 e9f4ae828f       JMP 0x12e112c
0x71ab6238 51               PUSH ECX
0x71ab6239 51               PUSH ECX
0x71ab623a 813d2840ac714894ab71 CMP DWORD [0x71ac4028], 0x71ab9448
0x71ab6244 56               PUSH ESI
0x71ab6245 0f847f540000     JZ 0x71abb6ca

Disassembly(1):
0x12e112c 55               PUSH EBP
0x12e112d 8bec             MOV EBP, ESP
0x12e112f 837d1000         CMP DWORD [EBP+0x10], 0x0
0x12e1133 56               PUSH ESI
0x12e1134 8b750c           MOV ESI, [EBP+0xc]
0x12e1137 7615             JBE 0x12e114e
0x12e1139 57               PUSH EDI
0x12e113a 8b7d10           MOV EDI, [EBP+0x10]
0x12e113d ff36             PUSH DWORD [ESI]
0x12e113f 8b4604           MOV EAX, [ESI+0x4]
0x12e1142 ff               DB 0xff
0x12e1143 75               DB 0x75

************************************************************************
Hook mode: Usermode
Hook type: Inline/Trampoline
Process: 468 (wuauclt.exe)
Victim module: WS2_32.dll (0x71ab0000 - 0x71ac7000)
Function: WS2_32.dll!closesocket at 0x71ab9639
Hook address: 0x12e10db
Hooking module: <unknown>

Disassembly(0):
0x71ab9639 e99d7a828f       JMP 0x12e10db
0x71ab963e 51               PUSH ECX
0x71ab963f 813d2840ac714894ab71 CMP DWORD [0x71ac4028], 0x71ab9448
0x71ab9649 56               PUSH ESI
0x71ab964a 0f84aef3ffff     JZ 0x71ab89fe
0x71ab9650 e8               DB 0xe8

Disassembly(1):
0x12e10db 56               PUSH ESI
0x12e10dc bef4262f01       MOV ESI, 0x12f26f4
0x12e10e1 56               PUSH ESI
0x12e10e2 ff1574122d01     CALL DWORD [0x12d1274]
0x12e10e8 ff742408         PUSH DWORD [ESP+0x8]
0x12e10ec e859fcffff       CALL 0x12e0d4a
0x12e10f1 85c0             TEST EAX, EAX

************************************************************************
Hook mode: Usermode
Hook type: Inline/Trampoline
Process: 468 (wuauclt.exe)
Victim module: WS2_32.dll (0x71ab0000 - 0x71ac7000)
Function: WS2_32.dll!send at 0x71ab428a
Hook address: 0x12e110f
Hooking module: <unknown>

Disassembly(0):
0x71ab428a e980ce828f       JMP 0x12e110f
0x71ab428f 83ec10           SUB ESP, 0x10
0x71ab4292 56               PUSH ESI
0x71ab4293 57               PUSH EDI
0x71ab4294 33ff             XOR EDI, EDI
0x71ab4296 813d2840ac714894ab71 CMP DWORD [0x71ac4028], 0x71ab9448
0x71ab42a0 0f               DB 0xf
0x71ab42a1 84               DB 0x84

Disassembly(1):
0x12e110f 55               PUSH EBP
0x12e1110 8bec             MOV EBP, ESP
0x12e1112 ff7510           PUSH DWORD [EBP+0x10]
0x12e1115 8b450c           MOV EAX, [EBP+0xc]
0x12e1118 ff7508           PUSH DWORD [EBP+0x8]
0x12e111b e838fdffff       CALL 0x12e0e58
0x12e1120 e8132affff       CALL 0x12d3b38
0x12e1125 5d               POP EBP
0x12e1126 ff               DB 0xff

************************************************************************
Hook mode: Usermode
Hook type: Inline/Trampoline
Process: 468 (wuauclt.exe)
Victim module: CRYPT32.dll (0x77a80000 - 0x77b14000)
Function: CRYPT32.dll!PFXImportCertStore at 0x77aef748
Hook address: 0x12d3692
Hooking module: <unknown>

Disassembly(0):
0x77aef748 e9453f7e89       JMP 0x12d3692
0x77aef74d 83ec18           SUB ESP, 0x18
0x77aef750 53               PUSH EBX
0x77aef751 57               PUSH EDI
0x77aef752 33c0             XOR EAX, EAX
0x77aef754 8d7de8           LEA EDI, [EBP-0x18]
0x77aef757 33db             XOR EBX, EBX
0x77aef759 f74510dcefffef   TEST DWORD [EBP+0x10], 0xefffefdc

Disassembly(1):
0x12d3692 55               PUSH EBP
0x12d3693 8bec             MOV EBP, ESP
0x12d3695 81ec80000000     SUB ESP, 0x80
0x12d369b 53               PUSH EBX
0x12d369c 56               PUSH ESI
0x12d369d e896040000       CALL 0x12d3b38
0x12d36a2 ff7510           PUSH DWORD [EBP+0x10]
0x12d36a5 8b7508           MOV ESI, [EBP+0x8]
0x12d36a8 ff               DB 0xff
0x12d36a9 75               DB 0x75

************************************************************************
Hook mode: Usermode
Hook type: Inline/Trampoline
Process: 468 (wuauclt.exe)
Victim module: WININET.dll (0x771b0000 - 0x77256000)
Function: WININET.dll!HttpQueryInfoA at 0x771c8c6a
Hook address: 0x12e7477
Hooking module: <unknown>

Disassembly(0):
0x771c8c6a e908e8118a       JMP 0x12e7477
0x771c8c6f 1c77             SBB AL, 0x77
0x771c8c71 e8fc89feff       CALL 0x771b1672
0x771c8c76 33db             XOR EBX, EBX
0x771c8c78 895ddc           MOV [EBP-0x24], EBX
0x771c8c7b 895de4           MOV [EBP-0x1c], EBX
0x771c8c7e 39               DB 0x39
0x771c8c7f 1d               DB 0x1d
0x771c8c80 50               PUSH EAX
0x771c8c81 98               CWDE

Disassembly(1):
0x12e7477 55               PUSH EBP
0x12e7478 8bec             MOV EBP, ESP
0x12e747a 56               PUSH ESI
0x12e747b 57               PUSH EDI
0x12e747c bf6c272f01       MOV EDI, 0x12f276c
0x12e7481 57               PUSH EDI
0x12e7482 ff1574122d01     CALL DWORD [0x12d1274]
0x12e7488 8b7508           MOV ESI, [EBP+0x8]
0x12e748b e8               DB 0xe8
0x12e748c 67e5ff           IN EAX, 0xff

************************************************************************
Hook mode: Usermode
Hook type: Inline/Trampoline
Process: 468 (wuauclt.exe)
Victim module: WININET.dll (0x771b0000 - 0x77256000)
Function: WININET.dll!HttpSendRequestA at 0x771c76b8
Hook address: 0x12e7366
Hooking module: <unknown>

Disassembly(0):
0x771c76b8 e9a9fc118a       JMP 0x12e7366
0x771c76bd 6a13             PUSH 0x13
0x771c76bf 6a00             PUSH 0x0
0x771c76c1 ff7518           PUSH DWORD [EBP+0x18]
0x771c76c4 ff7514           PUSH DWORD [EBP+0x14]
0x771c76c7 ff7510           PUSH DWORD [EBP+0x10]
0x771c76ca ff750c           PUSH DWORD [EBP+0xc]
0x771c76cd ff7508           PUSH DWORD [EBP+0x8]

Disassembly(1):
0x12e7366 55               PUSH EBP
0x12e7367 8bec             MOV EBP, ESP
0x12e7369 e8cac7feff       CALL 0x12d3b38
0x12e736e ff7510           PUSH DWORD [EBP+0x10]
0x12e7371 8b4518           MOV EAX, [EBP+0x18]
0x12e7374 ff750c           PUSH DWORD [EBP+0xc]
0x12e7377 8b4d14           MOV ECX, [EBP+0x14]
0x12e737a ff7508           PUSH DWORD [EBP+0x8]
0x12e737d 6a               DB 0x6a

************************************************************************
Hook mode: Usermode
Hook type: Inline/Trampoline
Process: 468 (wuauclt.exe)
Victim module: WININET.dll (0x771b0000 - 0x77256000)
Function: WININET.dll!HttpSendRequestExA at 0x7721190d
Hook address: 0x12e73ac
Hooking module: <unknown>

Disassembly(0):
0x7721190d e99a5a0d8a       JMP 0x12e73ac
0x77211912 53               PUSH EBX
0x77211913 56               PUSH ESI
0x77211914 57               PUSH EDI
0x77211915 33db             XOR EBX, EBX
0x77211917 33c0             XOR EAX, EAX
0x77211919 33c9             XOR ECX, ECX
0x7721191b 33d2             XOR EDX, EDX
0x7721191d 33ff             XOR EDI, EDI
0x7721191f 395d10           CMP [EBP+0x10], EBX
0x77211922 7539             JNZ 0x7721195d
0x77211924 8b               DB 0x8b

Disassembly(1):
0x12e73ac 55               PUSH EBP
0x12e73ad 8bec             MOV EBP, ESP
0x12e73af 53               PUSH EBX
0x12e73b0 e883c7feff       CALL 0x12d3b38
0x12e73b5 ff7518           PUSH DWORD [EBP+0x18]
0x12e73b8 8b450c           MOV EAX, [EBP+0xc]
0x12e73bb ff7514           PUSH DWORD [EBP+0x14]
0x12e73be 8b5d08           MOV EBX, [EBP+0x8]
0x12e73c1 ff7510           PUSH DWORD [EBP+0x10]

************************************************************************
Hook mode: Usermode
Hook type: Inline/Trampoline
Process: 468 (wuauclt.exe)
Victim module: WININET.dll (0x771b0000 - 0x77256000)
Function: WININET.dll!HttpSendRequestExW at 0x771d53eb
Hook address: 0x12e7388
Hooking module: <unknown>

Disassembly(0):
0x771d53eb e9981f118a       JMP 0x12e7388
0x771d53f0 83ec14           SUB ESP, 0x14
0x771d53f3 53               PUSH EBX
0x771d53f4 56               PUSH ESI
0x771d53f5 33c0             XOR EAX, EAX
0x771d53f7 57               PUSH EDI
0x771d53f8 33d2             XOR EDX, EDX
0x771d53fa 33db             XOR EBX, EBX
0x771d53fc 33ff             XOR EDI, EDI
0x771d53fe 33c9             XOR ECX, ECX
0x771d5400 395508           CMP [EBP+0x8], EDX

Disassembly(1):
0x12e7388 55               PUSH EBP
0x12e7389 8bec             MOV EBP, ESP
0x12e738b 53               PUSH EBX
0x12e738c e8a7c7feff       CALL 0x12d3b38
0x12e7391 ff7518           PUSH DWORD [EBP+0x18]
0x12e7394 8b450c           MOV EAX, [EBP+0xc]
0x12e7397 ff7514           PUSH DWORD [EBP+0x14]
0x12e739a 8b5d08           MOV EBX, [EBP+0x8]
0x12e739d ff7510           PUSH DWORD [EBP+0x10]

************************************************************************
Hook mode: Usermode
Hook type: Inline/Trampoline
Process: 468 (wuauclt.exe)
Victim module: WININET.dll (0x771b0000 - 0x77256000)
Function: WININET.dll!HttpSendRequestW at 0x77211808
Hook address: 0x12e7344
Hooking module: <unknown>

Disassembly(0):
0x77211808 e9375b0d8a       JMP 0x12e7344
0x7721180d 83ec14           SUB ESP, 0x14
0x77211810 53               PUSH EBX
0x77211811 33db             XOR EBX, EBX
0x77211813 56               PUSH ESI
0x77211814 33f6             XOR ESI, ESI
0x77211816 33c0             XOR EAX, EAX
0x77211818 395d08           CMP [EBP+0x8], EBX
0x7721181b 57               PUSH EDI
0x7721181c 895df8           MOV [EBP-0x8], EBX
0x7721181f 89               DB 0x89

Disassembly(1):
0x12e7344 55               PUSH EBP
0x12e7345 8bec             MOV EBP, ESP
0x12e7347 e8ecc7feff       CALL 0x12d3b38
0x12e734c ff7510           PUSH DWORD [EBP+0x10]
0x12e734f 8b4518           MOV EAX, [EBP+0x18]
0x12e7352 ff750c           PUSH DWORD [EBP+0xc]
0x12e7355 8b4d14           MOV ECX, [EBP+0x14]
0x12e7358 ff7508           PUSH DWORD [EBP+0x8]
0x12e735b 6a               DB 0x6a

************************************************************************
Hook mode: Usermode
Hook type: Inline/Trampoline
Process: 468 (wuauclt.exe)
Victim module: WININET.dll (0x771b0000 - 0x77256000)
Function: WININET.dll!InternetCloseHandle at 0x771c61dc
Hook address: 0x12e7438
Hooking module: <unknown>

Disassembly(0):
0x771c61dc e95712128a       JMP 0x12e7438
0x771c61e1 51               PUSH ECX
0x771c61e2 51               PUSH ECX
0x771c61e3 53               PUSH EBX
0x771c61e4 56               PUSH ESI
0x771c61e5 33db             XOR EBX, EBX
0x771c61e7 33f6             XOR ESI, ESI
0x771c61e9 f60544a3237701   TEST BYTE [0x7723a344], 0x1
0x771c61f0 895dfc           MOV [EBP-0x4], EBX
0x771c61f3 0f               DB 0xf

Disassembly(1):
0x12e7438 53               PUSH EBX
0x12e7439 56               PUSH ESI
0x12e743a 57               PUSH EDI
0x12e743b e8f8c6feff       CALL 0x12d3b38
0x12e7440 8b742410         MOV ESI, [ESP+0x10]
0x12e7444 56               PUSH ESI
0x12e7445 ff153c142d01     CALL DWORD [0x12d143c]
0x12e744b bf6c272f01       MOV EDI, 0x12f276c

************************************************************************
Hook mode: Usermode
Hook type: Inline/Trampoline
Process: 468 (wuauclt.exe)
Victim module: WININET.dll (0x771b0000 - 0x77256000)
Function: WININET.dll!InternetQueryDataAvailable at 0x771d325f
Hook address: 0x12e7415
Hooking module: <unknown>

Disassembly(0):
0x771d325f e9b141118a       JMP 0x12e7415
0x771d3264 83ec10           SUB ESP, 0x10
0x771d3267 53               PUSH EBX
0x771d3268 33db             XOR EBX, EBX
0x771d326a 391d50982377     CMP [0x77239850], EBX
0x771d3270 56               PUSH ESI
0x771d3271 57               PUSH EDI
0x771d3272 895dfc           MOV [EBP-0x4], EBX
0x771d3275 c7               DB 0xc7
0x771d3276 45               INC EBP

Disassembly(1):
0x12e7415 e81ec7feff       CALL 0x12d3b38
0x12e741a ff742410         PUSH DWORD [ESP+0x10]
0x12e741e ff742410         PUSH DWORD [ESP+0x10]
0x12e7422 ff742410         PUSH DWORD [ESP+0x10]
0x12e7426 6a00             PUSH 0x0
0x12e7428 6a00             PUSH 0x0
0x12e742a ff               DB 0xff
0x12e742b 7424             JZ 0x12e7451

************************************************************************
Hook mode: Usermode
Hook type: Inline/Trampoline
Process: 468 (wuauclt.exe)
Victim module: WININET.dll (0x771b0000 - 0x77256000)
Function: WININET.dll!InternetReadFile at 0x771c9555
Hook address: 0x12e73d0
Hooking module: <unknown>

Disassembly(0):
0x771c9555 e976de118a       JMP 0x12e73d0
0x771c955a 83ec24           SUB ESP, 0x24
0x771c955d 53               PUSH EBX
0x771c955e 33db             XOR EBX, EBX
0x771c9560 391d50982377     CMP [0x77239850], EBX
0x771c9566 57               PUSH EDI
0x771c9567 895df4           MOV [EBP-0xc], EBX
0x771c956a 895df8           MOV [EBP-0x8], EBX

Disassembly(1):
0x12e73d0 e863c7feff       CALL 0x12d3b38
0x12e73d5 33c0             XOR EAX, EAX
0x12e73d7 50               PUSH EAX
0x12e73d8 50               PUSH EAX
0x12e73d9 ff742418         PUSH DWORD [ESP+0x18]
0x12e73dd ff742418         PUSH DWORD [ESP+0x18]
0x12e73e1 ff742418         PUSH DWORD [ESP+0x18]
0x12e73e5 ff               DB 0xff
0x12e73e6 7424             JZ 0x12e740c

************************************************************************
Hook mode: Usermode
Hook type: Inline/Trampoline
Process: 468 (wuauclt.exe)
Victim module: WININET.dll (0x771b0000 - 0x77256000)
Function: WININET.dll!InternetReadFileExA at 0x771f7e9a
Hook address: 0x12e73f2
Hooking module: <unknown>

Disassembly(0):
0x771f7e9a e953f50e8a       JMP 0x12e73f2
0x771f7e9f 83ec20           SUB ESP, 0x20
0x771f7ea2 53               PUSH EBX
0x771f7ea3 56               PUSH ESI
0x771f7ea4 33c0             XOR EAX, EAX
0x771f7ea6 57               PUSH EDI
0x771f7ea7 33ff             XOR EDI, EDI
0x771f7ea9 40               INC EAX
0x771f7eaa 393d50982377     CMP [0x77239850], EDI
0x771f7eb0 89               DB 0x89
0x771f7eb1 7d               DB 0x7d

Disassembly(1):
0x12e73f2 e841c7feff       CALL 0x12d3b38
0x12e73f7 ff742410         PUSH DWORD [ESP+0x10]
0x12e73fb ff742410         PUSH DWORD [ESP+0x10]
0x12e73ff 6a00             PUSH 0x0
0x12e7401 6a00             PUSH 0x0
0x12e7403 ff742418         PUSH DWORD [ESP+0x18]
0x12e7407 ff               DB 0xff
0x12e7408 7424             JZ 0x12e742e

