#########################################################################################################################################################################################################################################
# Investigation Details
# ======================
# Investigator Name: Solomon Sonya
# Investigation Description: MemLabs Lab 1
# Investigation Date: 2022-01-16-0854:41
#
# Analysis Framework
# ======================
# Analysis Framework Name: Xavier Framework
# Analysis Framework Version: 2.111
#
# Memory Analysis Binary
# ======================
# File Name: vol_2.6.exe	 File Size: 15.79 MBs	 Creation Date: 2022-01-08-0433:36	 Last Accessed: 2022-01-08-0433:36	 Last Modified: 2021-02-28-2153:29	 
# MD5: 2fc05486a3fe93cef213cc37748bf556	 SHA-256: 672a00461ffb8d59536c86192450b66d552e67809fc8584d1792b42b22c5f4e1	 
#
# Analysis Image Details
# ======================
# Memory Image Path: C:\xavier\xavier_framework\import\memory_image\MemoryDump_Lab1.raw
# File Name: MemoryDump_Lab1.raw	 File Size: 1.07 GBs	 Creation Date: 2022-01-16-0853:49	 Last Accessed: 2022-01-16-0853:50	 Last Modified: 2019-12-11-0838:17	 
# MD5: b9fec1a443907d870cb32b048bda9380	 SHA-256: 88e708413898c98351d1a5a221799fc34460dfecb20e482ca5247b0b113b8cf2	 
#
# Plugin Details
# ======================
# Plugin Name: threads
# Plugin Description: Investigate _ETHREAD and _KTHREADs
#
# Execution Details
# ======================
# Execution Command: "C:\xavier\xavier_framework\import\memory_analysis\vol_2.6.exe" -f "C:\xavier\xavier_framework\import\memory_image\MemoryDump_Lab1.raw" threads --profile=Win7SP1x64
#########################################################################################################################################################################################################################################


Volatility Foundation Volatility Framework 2.6
------
ETHREAD: 0xfffffa800202f800 Pid: 4 Tid: 1568
Tags: 
Created: 2019-12-11 13:41:58 UTC+0000
Exited: 1970-01-01 00:00:00 UTC+0000
Owning Process: System
Attached Process: System
State: Waiting:WrQueue
BasePriority: 0x9
Priority: 0x9
TEB: 0x00000000
StartAddress: 0xfffff88002a726b0 srv.sys
Win32Thread: 0x00000000
CrossThreadFlags: PS_CROSS_THREAD_FLAGS_DEADTHREAD, PS_CROSS_THREAD_FLAGS_HARD_ERRORS_DISABLED
0xfffff88002a726b0 48895c2410       MOV [RSP+0x10], RBX
0xfffff88002a726b5 48896c2418       MOV [RSP+0x18], RBP
0xfffff88002a726ba 4889742420       MOV [RSP+0x20], RSI
0xfffff88002a726bf 57               PUSH RDI
0xfffff88002a726c0 4154             PUSH R12
0xfffff88002a726c2 4155             PUSH R13
0xfffff88002a726c4 4156             PUSH R14
0xfffff88002a726c6 4157             PUSH R15
------
ETHREAD: 0xfffffa8001edb800 Pid: 2808 Tid: 2804
Tags: 
Created: 2019-12-11 14:37:05 UTC+0000
Exited: 1970-01-01 00:00:00 UTC+0000
Owning Process: winlogon.exe
Attached Process: winlogon.exe
State: Waiting:UserRequest
BasePriority: 0xf
Priority: 0xf
TEB: 0x7fffffde000
StartAddress: 0xfffff8a001e42b10 UNKNOWN
Win32Thread: 0xfffff900c00c63b0
CrossThreadFlags: PS_CROSS_THREAD_FLAGS_DEADTHREAD
0xfffff8a001e42b10 80bbed0180faff   CMP BYTE [RBX-0x57ffe13], 0xff
0xfffff8a001e42b17 ff80bbed0180     INC DWORD [RAX-0x7ffe1245]
0xfffff8a001e42b1d fa               CLI
0xfffff8a001e42b1e ff               DB 0xff
0xfffff8a001e42b1f ff20             JMP QWORD [RAX]
0xfffff8a001e42b21 2be4             SUB ESP, ESP
0xfffff8a001e42b23 01               DB 0x1
0xfffff8a001e42b24 a0               DB 0xa0
0xfffff8a001e42b25 f8               CLC
0xfffff8a001e42b26 ff               DB 0xff
0xfffff8a001e42b27 ff               DB 0xff
------
ETHREAD: 0xfffffa8000cd2040 Pid: 4 Tid: 116
Tags: 
Created: 2019-12-11 13:41:22 UTC+0000
Exited: 1970-01-01 00:00:00 UTC+0000
Owning Process: System
Attached Process: System
State: Waiting:WrLpcReceive
BasePriority: 0xd
Priority: 0xf
TEB: 0x00000000
StartAddress: 0xfffff80002661f50 ntoskrnl.exe
Win32Thread: 0x00000000
CrossThreadFlags: PS_CROSS_THREAD_FLAGS_DEADTHREAD
0xfffff80002661f50 fff3             PUSH RBX
0xfffff80002661f52 4881ec10010000   SUB RSP, 0x110
0xfffff80002661f59 488b0580fa1a00   MOV RAX, [RIP+0x1afa80]
0xfffff80002661f60 4833c4           XOR RAX, RSP
0xfffff80002661f63 48               DB 0x48
0xfffff80002661f64 89               DB 0x89
0xfffff80002661f65 842400           TEST [RAX+RAX], AH
------
ETHREAD: 0xfffffa8002249860 Pid: 2368 Tid: 1704
Tags: 
Created: 2019-12-11 14:36:13 UTC+0000
Exited: 1970-01-01 00:00:00 UTC+0000
Owning Process: svchost.exe
Attached Process: svchost.exe
State: Waiting:WrQueue
BasePriority: 0x8
Priority: 0x9
TEB: 0x7fffffd9000
StartAddress: 0x77cbc500 ntdll.dll
Win32Thread: 0x00000000
CrossThreadFlags: PS_CROSS_THREAD_FLAGS_DEADTHREAD
0x77cbc500 4883ec48         SUB RSP, 0x48
0x77cbc504 4c8bc9           MOV R9, RCX
0x77cbc507 488b0552da1000   MOV RAX, [RIP+0x10da52]
0x77cbc50e 4885c0           TEST RAX, RAX
0x77cbc511 0f84e3840300     JZ 0x77cf49fa
0x77cbc517 4c               DB 0x4c
------
ETHREAD: 0xfffffa800226f060 Pid: 2808 Tid: 2592
Tags: 
Created: 2019-12-11 14:37:05 UTC+0000
Exited: 1970-01-01 00:00:00 UTC+0000
Owning Process: winlogon.exe
Attached Process: winlogon.exe
State: Waiting:UserRequest
BasePriority: 0xd
Priority: 0xe
TEB: 0x7fffffda000
StartAddress: 0x77cbc500 ntdll.dll
Win32Thread: 0x00000000
CrossThreadFlags: PS_CROSS_THREAD_FLAGS_DEADTHREAD
0x77cbc500 4883ec48         SUB RSP, 0x48
0x77cbc504 4c8bc9           MOV R9, RCX
0x77cbc507 488b0552da1000   MOV RAX, [RIP+0x10da52]
0x77cbc50e 4885c0           TEST RAX, RAX
0x77cbc511 0f84e3840300     JZ 0x77cf49fa
0x77cbc517 4c               DB 0x4c
------
ETHREAD: 0xfffffa80014e8060 Pid: 948 Tid: 1976
Tags: 
Created: 2019-12-11 14:18:37 UTC+0000
Exited: 1970-01-01 00:00:00 UTC+0000
Owning Process: svchost.exe
Attached Process: svchost.exe
State: Waiting:WrQueue
BasePriority: 0x8
Priority: 0x9
TEB: 0x7fffffda000
StartAddress: 0xfffff8a0019d7250 UNKNOWN
Win32Thread: 0xfffff900c1ad5c30
CrossThreadFlags: PS_CROSS_THREAD_FLAGS_DEADTHREAD
0xfffff8a0019d7250 e083             LOOPNZ 0xfffff8a0019d71d5
0xfffff8a0019d7252 4e0180faffffe0   ADD [RAX-0x1f000006], R8
0xfffff8a0019d7259 834e0180         OR DWORD [RSI+0x1], -0x80
0xfffff8a0019d725d fa               CLI
0xfffff8a0019d725e ff               DB 0xff
0xfffff8a0019d725f ff6072           JMP QWORD [RAX+0x72]
0xfffff8a0019d7262 9d               POPF
0xfffff8a0019d7263 01               DB 0x1
0xfffff8a0019d7264 a0               DB 0xa0
0xfffff8a0019d7265 f8               CLC
0xfffff8a0019d7266 ff               DB 0xff
0xfffff8a0019d7267 ff               DB 0xff
------
ETHREAD: 0xfffffa8000e8d660 Pid: 480 Tid: 1812
Tags: 
Created: 2019-12-11 14:35:11 UTC+0000
Exited: 1970-01-01 00:00:00 UTC+0000
Owning Process: SearchIndexer.
Attached Process: SearchIndexer.
State: Waiting:UserRequest
BasePriority: 0x8
Priority: 0x8
TEB: 0x7fffffa0000
StartAddress: 0x77cbc500 ntdll.dll
Win32Thread: 0x00000000
CrossThreadFlags: PS_CROSS_THREAD_FLAGS_DEADTHREAD
0x77cbc500 4883ec48         SUB RSP, 0x48
0x77cbc504 4c8bc9           MOV R9, RCX
0x77cbc507 488b0552da1000   MOV RAX, [RIP+0x10da52]
0x77cbc50e 4885c0           TEST RAX, RAX
0x77cbc511 0f84e3840300     JZ 0x77cf49fa
0x77cbc517 4c               DB 0x4c
------
ETHREAD: 0xfffffa80021f8200 Pid: 2368 Tid: 2376
Tags: 
Created: 2019-12-11 14:32:51 UTC+0000
Exited: 2019-12-11 14:34:20 UTC+0000
Owning Process: svchost.exe
Attached Process: svchost.exe
State: Terminated
BasePriority: 0x8
Priority: 0x8
TEB: 0x00000000
StartAddress: 0xfffffa80021f8580 UNKNOWN
Win32Thread: 0x00000000
CrossThreadFlags: PS_CROSS_THREAD_FLAGS_DEADTHREAD, PS_CROSS_THREAD_FLAGS_TERMINATED
0xfffffa80021f8580 80851f0280faff   ADD BYTE [RBP-0x57ffde1], 0xff
0xfffffa80021f8587 ff80851f0280     INC DWORD [RAX-0x7ffde07b]
0xfffffa80021f858d fa               CLI
0xfffffa80021f858e ff               DB 0xff
0xfffffa80021f858f ff00             INC DWORD [RAX]
0xfffffa80021f8591 0000             ADD [RAX], AL
0xfffffa80021f8593 0000             ADD [RAX], AL
0xfffffa80021f8595 0000             ADD [RAX], AL
0xfffffa80021f8597 00               DB 0x0
------
ETHREAD: 0xfffffa8000f9c300 Pid: 2504 Tid: 2552
Tags: 
Created: 2019-12-11 14:37:19 UTC+0000
Exited: 1970-01-01 00:00:00 UTC+0000
Owning Process: explorer.exe
Attached Process: explorer.exe
State: Waiting:UserRequest
BasePriority: 0x8
Priority: 0xa
TEB: 0x7fffff98000
StartAddress: 0x77cbc500 ntdll.dll
Win32Thread: 0xfffff900c2170010
CrossThreadFlags: PS_CROSS_THREAD_FLAGS_DEADTHREAD
0x77cbc500 4883ec48         SUB RSP, 0x48
0x77cbc504 4c8bc9           MOV R9, RCX
0x77cbc507 488b0552da1000   MOV RAX, [RIP+0x10da52]
0x77cbc50e 4885c0           TEST RAX, RAX
0x77cbc511 0f84e3840300     JZ 0x77cf49fa
0x77cbc517 4c               DB 0x4c
------
ETHREAD: 0xfffffa80021f9820 Pid: 2368 Tid: 2372
Tags: 
Created: 2019-12-11 14:32:51 UTC+0000
Exited: 1970-01-01 00:00:00 UTC+0000
Owning Process: svchost.exe
Attached Process: svchost.exe
State: Waiting:UserRequest
BasePriority: 0x8
Priority: 0x9
TEB: 0x7fffffde000
StartAddress: 0x77cbc500 ntdll.dll
Win32Thread: 0x00000000
CrossThreadFlags: PS_CROSS_THREAD_FLAGS_DEADTHREAD
0x77cbc500 4883ec48         SUB RSP, 0x48
0x77cbc504 4c8bc9           MOV R9, RCX
0x77cbc507 488b0552da1000   MOV RAX, [RIP+0x10da52]
0x77cbc50e 4885c0           TEST RAX, RAX
0x77cbc511 0f84e3840300     JZ 0x77cf49fa
0x77cbc517 4c               DB 0x4c
------
ETHREAD: 0xfffffa8001dc5b60 Pid: 376 Tid: 928
Tags: 
Created: 2019-12-11 13:41:43 UTC+0000
Exited: 1970-01-01 00:00:00 UTC+0000
Owning Process: psxss.exe
Attached Process: psxss.exe
State: Waiting:UserRequest
BasePriority: 0xd
Priority: 0xd
TEB: 0x7fffffd8000
StartAddress: 0x77cbc500 ntdll.dll
Win32Thread: 0x00000000
CrossThreadFlags: PS_CROSS_THREAD_FLAGS_DEADTHREAD
0x77cbc500 4883ec48         SUB RSP, 0x48
0x77cbc504 4c8bc9           MOV R9, RCX
0x77cbc507 488b0552da1000   MOV RAX, [RIP+0x10da52]
0x77cbc50e 4885c0           TEST RAX, RAX
0x77cbc511 0f84e3840300     JZ 0x77cf49fa
0x77cbc517 4c               DB 0x4c
------
ETHREAD: 0xfffffa8001d3a790 Pid: 296 Tid: 1624
Tags: 
Created: 2019-12-11 14:32:24 UTC+0000
Exited: 2019-12-11 14:32:25 UTC+0000
Owning Process: taskhost.exe
Attached Process: taskhost.exe
State: Terminated
BasePriority: 0x8
Priority: 0x9
TEB: 0x00000000
StartAddress: 0x77cbc500 ntdll.dll
Win32Thread: 0x00000000
CrossThreadFlags: PS_CROSS_THREAD_FLAGS_DEADTHREAD, PS_CROSS_THREAD_FLAGS_TERMINATED
0x77cbc500 4883ec48         SUB RSP, 0x48
0x77cbc504 4c8bc9           MOV R9, RCX
0x77cbc507 488b0552da1000   MOV RAX, [RIP+0x10da52]
0x77cbc50e 4885c0           TEST RAX, RAX
0x77cbc511 0f84e3840300     JZ 0x77cf49fa
0x77cbc517 4c               DB 0x4c
------
ETHREAD: 0xfffffa8000ffd850 Pid: 2504 Tid: 1560
Tags: 
Created: 2019-12-11 14:37:19 UTC+0000
Exited: 1970-01-01 00:00:00 UTC+0000
Owning Process: explorer.exe
Attached Process: explorer.exe
State: Waiting:UserRequest
BasePriority: 0x8
Priority: 0xa
TEB: 0x7fffff8e000
StartAddress: 0xfffff8a00242b940 UNKNOWN
Win32Thread: 0xfffff900c22e7c30
CrossThreadFlags: PS_CROSS_THREAD_FLAGS_DEADTHREAD
0xfffff8a00242b940 d0db             RCR BL, 0x1
0xfffff8a00242b942 ff00             INC DWORD [RAX]
0xfffff8a00242b944 80faff           CMP DL, 0xff
0xfffff8a00242b947 ffc0             INC EAX
0xfffff8a00242b949 17               DB 0x17
0xfffff8a00242b94a 0402             ADD AL, 0x2
0xfffff8a00242b94c a0f8fffff0194002a0 MOV AL, [0xa0024019f0fffff8]
0xfffff8a00242b955 f8               CLC
0xfffff8a00242b956 ff               DB 0xff
0xfffff8a00242b957 ff               DB 0xff
------
ETHREAD: 0x3fa8f060 Pid: 2524 Tid: 2476
Tags: ScannerOnly
Created: 2019-12-11 14:37:21 UTC+0000
Exited: 1970-01-01 00:00:00 UTC+0000
Owning Process: SearchProtocol
Attached Process: SearchProtocol
State: Waiting:WrQueue
BasePriority: 0x4
Priority: 0x4
TEB: 0x7fffffae000
StartAddress: 0x77cbc500 ntdll.dll
Win32Thread: 0xfffff900c1e01c30
CrossThreadFlags: PS_CROSS_THREAD_FLAGS_DEADTHREAD
0x77cbc500 4883ec48         SUB RSP, 0x48
0x77cbc504 4c8bc9           MOV R9, RCX
0x77cbc507 488b0552da1000   MOV RAX, [RIP+0x10da52]
0x77cbc50e 4885c0           TEST RAX, RAX
0x77cbc511 0f84e3840300     JZ 0x77cf49fa
0x77cbc517 4c               DB 0x4c
------
ETHREAD: 0xfffffa8000cab680 Pid: 4 Tid: 24
Tags: 
Created: 2019-12-11 13:41:22 UTC+0000
Exited: 1970-01-01 00:00:00 UTC+0000
Owning Process: System
Attached Process: System
State: Waiting:WrQueue
BasePriority: 0xd
Priority: 0xf
TEB: 0x00000000
StartAddress: 0xfffff800026a9910 ntoskrnl.exe
Win32Thread: 0x00000000
CrossThreadFlags: PS_CROSS_THREAD_FLAGS_DEADTHREAD
0xfffff800026a9910 4c8bdc           MOV R11, RSP
0xfffff800026a9913 49895b10         MOV [R11+0x10], RBX
0xfffff800026a9917 49896b18         MOV [R11+0x18], RBP
0xfffff800026a991b 49897320         MOV [R11+0x20], RSI
0xfffff800026a991f 57               PUSH RDI
0xfffff800026a9920 4154             PUSH R12
0xfffff800026a9922 4155             PUSH R13
0xfffff800026a9924 4156             PUSH R14
0xfffff800026a9926 4157             PUSH R15
------
ETHREAD: 0xfffffa800105b6c0 Pid: 652 Tid: 2516
Tags: 
Created: 2019-12-11 14:37:36 UTC+0000
Exited: 1970-01-01 00:00:00 UTC+0000
Owning Process: VBoxService.ex
Attached Process: VBoxService.ex
State: Waiting:WrQueue
BasePriority: 0x8
Priority: 0x8
TEB: 0x7fffffd9000
StartAddress: 0x77cbc500 ntdll.dll
Win32Thread: 0x00000000
CrossThreadFlags: PS_CROSS_THREAD_FLAGS_DEADTHREAD
0x77cbc500 4883ec48         SUB RSP, 0x48
0x77cbc504 4c8bc9           MOV R9, RCX
0x77cbc507 488b0552da1000   MOV RAX, [RIP+0x10da52]
0x77cbc50e 4885c0           TEST RAX, RAX
0x77cbc511 0f84e3840300     JZ 0x77cf49fa
0x77cbc517 4c               DB 0x4c
------
ETHREAD: 0xfffffa8001f74060 Pid: 1416 Tid: 1420
Tags: 
Created: 2019-12-11 13:41:55 UTC+0000
Exited: 1970-01-01 00:00:00 UTC+0000
Owning Process: TCPSVCS.EXE
Attached Process: TCPSVCS.EXE
State: Waiting:UserRequest
BasePriority: 0x8
Priority: 0x9
TEB: 0x7fffffde000
StartAddress: 0x77cbc500 ntdll.dll
Win32Thread: 0x00000000
CrossThreadFlags: PS_CROSS_THREAD_FLAGS_DEADTHREAD
0x77cbc500 4883ec48         SUB RSP, 0x48
0x77cbc504 4c8bc9           MOV R9, RCX
0x77cbc507 488b0552da1000   MOV RAX, [RIP+0x10da52]
0x77cbc50e 4885c0           TEST RAX, RAX
0x77cbc511 0f84e3840300     JZ 0x77cf49fa
0x77cbc517 4c               DB 0x4c
------
ETHREAD: 0xfffffa8001337040 Pid: 4 Tid: 176
Tags: 
Created: 2019-12-11 13:41:22 UTC+0000
Exited: 1970-01-01 00:00:00 UTC+0000
Owning Process: System
Attached Process: System
State: Waiting:Executive
BasePriority: 0x8
Priority: 0x14
TEB: 0x00000000
StartAddress: 0xfffff880018dd900 volsnap.sys
Win32Thread: 0x00000000
CrossThreadFlags: PS_CROSS_THREAD_FLAGS_DEADTHREAD
0xfffff880018dd900 48895c2408       MOV [RSP+0x8], RBX
0xfffff880018dd905 48896c2410       MOV [RSP+0x10], RBP
0xfffff880018dd90a 4889742418       MOV [RSP+0x18], RSI
0xfffff880018dd90f 57               PUSH RDI
0xfffff880018dd910 4883ec30         SUB RSP, 0x30
0xfffff880018dd914 488b7928         MOV RDI, [RCX+0x28]
------
ETHREAD: 0xfffffa8001f4d160 Pid: 1372 Tid: 1128
Tags: 
Created: 2019-12-11 14:16:13 UTC+0000
Exited: 1970-01-01 00:00:00 UTC+0000
Owning Process: svchost.exe
Attached Process: svchost.exe
State: Waiting:UserRequest
BasePriority: 0x8
Priority: 0x8
TEB: 0x7fffff90000
StartAddress: 0x77cbc500 ntdll.dll
Win32Thread: 0x00000000
CrossThreadFlags: PS_CROSS_THREAD_FLAGS_DEADTHREAD
0x77cbc500 4883ec48         SUB RSP, 0x48
0x77cbc504 4c8bc9           MOV R9, RCX
0x77cbc507 488b0552da1000   MOV RAX, [RIP+0x10da52]
0x77cbc50e 4885c0           TEST RAX, RAX
0x77cbc511 0f84e3840300     JZ 0x77cf49fa
0x77cbc517 4c               DB 0x4c
------
ETHREAD: 0xfffffa8001f64b60 Pid: 1248 Tid: 1404
Tags: 
Created: 2019-12-11 13:41:55 UTC+0000
Exited: 1970-01-01 00:00:00 UTC+0000
Owning Process: svchost.exe
Attached Process: svchost.exe
State: Waiting:UserRequest
BasePriority: 0x8
Priority: 0x8
TEB: 0x7fffff9c000
StartAddress: 0x77cbc500 ntdll.dll
Win32Thread: 0x00000000
CrossThreadFlags: PS_CROSS_THREAD_FLAGS_DEADTHREAD
0x77cbc500 4883ec48         SUB RSP, 0x48
0x77cbc504 4c8bc9           MOV R9, RCX
0x77cbc507 488b0552da1000   MOV RAX, [RIP+0x10da52]
0x77cbc50e 4885c0           TEST RAX, RAX
0x77cbc511 0f84e3840300     JZ 0x77cf49fa
0x77cbc517 4c               DB 0x4c
------
ETHREAD: 0xfffffa8000f3a060 Pid: 484 Tid: 2888
Tags: 
Created: 2019-12-11 14:37:13 UTC+0000
Exited: 1970-01-01 00:00:00 UTC+0000
Owning Process: services.exe
Attached Process: services.exe
State: Waiting:WrQueue
BasePriority: 0x9
Priority: 0x9
TEB: 0x7fffffa2000
StartAddress: 0x77cbc500 ntdll.dll
Win32Thread: 0x00000000
CrossThreadFlags: PS_CROSS_THREAD_FLAGS_DEADTHREAD
0x77cbc500 4883ec48         SUB RSP, 0x48
0x77cbc504 4c8bc9           MOV R9, RCX
0x77cbc507 488b0552da1000   MOV RAX, [RIP+0x10da52]
0x77cbc50e 4885c0           TEST RAX, RAX
0x77cbc511 0f84e3840300     JZ 0x77cf49fa
0x77cbc517 4c               DB 0x4c
------
ETHREAD: 0xfffffa8000e81060 Pid: 2504 Tid: 2600
Tags: 
Created: 2019-12-11 14:37:19 UTC+0000
Exited: 1970-01-01 00:00:00 UTC+0000
Owning Process: explorer.exe
Attached Process: explorer.exe
State: Waiting:WrQueue
BasePriority: 0x8
Priority: 0xa
TEB: 0x7fffff94000
StartAddress: 0x77cbc500 ntdll.dll
Win32Thread: 0xfffff900c1e0ec30
CrossThreadFlags: PS_CROSS_THREAD_FLAGS_DEADTHREAD
0x77cbc500 4883ec48         SUB RSP, 0x48
0x77cbc504 4c8bc9           MOV R9, RCX
0x77cbc507 488b0552da1000   MOV RAX, [RIP+0x10da52]
0x77cbc50e 4885c0           TEST RAX, RAX
0x77cbc511 0f84e3840300     JZ 0x77cf49fa
0x77cbc517 4c               DB 0x4c
------
ETHREAD: 0xfffffa8001e6a850 Pid: 1044 Tid: 1088
Tags: 
Created: 2019-12-11 13:41:48 UTC+0000
Exited: 1970-01-01 00:00:00 UTC+0000
Owning Process: svchost.exe
Attached Process: svchost.exe
State: Waiting:UserRequest
BasePriority: 0x8
Priority: 0x9
TEB: 0x7fffffd4000
StartAddress: 0xfffff8a0017a8ca0 UNKNOWN
Win32Thread: 0x00000000
CrossThreadFlags: PS_CROSS_THREAD_FLAGS_DEADTHREAD
0xfffff8a0017a8ca0 d0abe60180fa     SHR BYTE [RBX-0x57ffe1a], 0x1
0xfffff8a0017a8ca6 ff               DB 0xff
0xfffff8a0017a8ca7 ffd0             CALL RAX
0xfffff8a0017a8ca9 ab               STOSD
0xfffff8a0017a8caa e601             OUT 0x1, AL
0xfffff8a0017a8cac 80faff           CMP DL, 0xff
0xfffff8a0017a8caf ffb08c7a01a0     PUSH QWORD [RAX-0x5ffe8574]
0xfffff8a0017a8cb5 f8               CLC
0xfffff8a0017a8cb6 ff               DB 0xff
0xfffff8a0017a8cb7 ff               DB 0xff
------
ETHREAD: 0xfffffa8001dc5060 Pid: 376 Tid: 924
Tags: 
Created: 2019-12-11 13:41:43 UTC+0000
Exited: 1970-01-01 00:00:00 UTC+0000
Owning Process: psxss.exe
Attached Process: psxss.exe
State: Waiting:UserRequest
BasePriority: 0xd
Priority: 0xd
TEB: 0x7fffffda000
StartAddress: 0x77cbc500 ntdll.dll
Win32Thread: 0x00000000
CrossThreadFlags: PS_CROSS_THREAD_FLAGS_DEADTHREAD
0x77cbc500 4883ec48         SUB RSP, 0x48
0x77cbc504 4c8bc9           MOV R9, RCX
0x77cbc507 488b0552da1000   MOV RAX, [RIP+0x10da52]
0x77cbc50e 4885c0           TEST RAX, RAX
0x77cbc511 0f84e3840300     JZ 0x77cf49fa
0x77cbc517 4c               DB 0x4c
------
ETHREAD: 0xfffffa8001013060 Pid: 480 Tid: 2840
Tags: 
Created: 2019-12-11 14:37:21 UTC+0000
Exited: 1970-01-01 00:00:00 UTC+0000
Owning Process: SearchIndexer.
Attached Process: SearchIndexer.
State: Waiting:WrQueue
BasePriority: 0x8
Priority: 0x8
TEB: 0x7fffff9e000
StartAddress: 0x77cbc500 ntdll.dll
Win32Thread: 0x00000000
CrossThreadFlags: PS_CROSS_THREAD_FLAGS_DEADTHREAD
0x77cbc500 4883ec48         SUB RSP, 0x48
0x77cbc504 4c8bc9           MOV R9, RCX
0x77cbc507 488b0552da1000   MOV RAX, [RIP+0x10da52]
0x77cbc50e 4885c0           TEST RAX, RAX
0x77cbc511 0f84e3840300     JZ 0x77cf49fa
0x77cbc517 4c               DB 0x4c
------
ETHREAD: 0xfffffa8001c43870 Pid: 424 Tid: 428
Tags: 
Created: 2019-12-11 13:41:34 UTC+0000
Exited: 1970-01-01 00:00:00 UTC+0000
Owning Process: wininit.exe
Attached Process: wininit.exe
State: Waiting:UserRequest
BasePriority: 0xf
Priority: 0xf
TEB: 0x7fffffdd000
StartAddress: 0xfffff8a0014284f0 UNKNOWN
Win32Thread: 0xfffff900c00ec2d0
CrossThreadFlags: PS_CROSS_THREAD_FLAGS_BREAK_ON_TERMINATION, PS_CROSS_THREAD_FLAGS_DEADTHREAD
0xfffff8a0014284f0 f03bc4           CMP EAX, ESP
0xfffff8a0014284f3 0180fafffff0     ADD [RAX-0xf000006], EAX
0xfffff8a0014284f9 3bc4             CMP EAX, ESP
0xfffff8a0014284fb 0180faffff00     ADD [RAX+0xfffffa], EAX
0xfffff8a001428501 854201           TEST [RDX+0x1], EAX
0xfffff8a001428504 a0               DB 0xa0
0xfffff8a001428505 f8               CLC
0xfffff8a001428506 ff               DB 0xff
0xfffff8a001428507 ff               DB 0xff
------
ETHREAD: 0xfffffa8001d33b60 Pid: 652 Tid: 688
Tags: 
Created: 2019-12-11 13:41:41 UTC+0000
Exited: 1970-01-01 00:00:00 UTC+0000
Owning Process: VBoxService.ex
Attached Process: VBoxService.ex
State: Waiting:UserRequest
BasePriority: 0x8
Priority: 0x8
TEB: 0x7fffffaa000
StartAddress: 0x77cbc500 ntdll.dll
Win32Thread: 0x00000000
CrossThreadFlags: PS_CROSS_THREAD_FLAGS_DEADTHREAD
0x77cbc500 4883ec48         SUB RSP, 0x48
0x77cbc504 4c8bc9           MOV R9, RCX
0x77cbc507 488b0552da1000   MOV RAX, [RIP+0x10da52]
0x77cbc50e 4885c0           TEST RAX, RAX
0x77cbc511 0f84e3840300     JZ 0x77cf49fa
0x77cbc517 4c               DB 0x4c
------
ETHREAD: 0x3fadc9f0 Pid: 604 Tid: 2988
Tags: ScannerOnly
Created: 2019-12-11 14:37:42 UTC+0000
Exited: 1970-01-01 00:00:00 UTC+0000
Owning Process: explorer.exe
Attached Process: explorer.exe
State: Waiting:WrQueue
BasePriority: 0x8
Priority: 0x9
TEB: 0x7fffff82000
StartAddress: 0x77cbc500 ntdll.dll
Win32Thread: 0xfffff900c1f1f010
CrossThreadFlags: PS_CROSS_THREAD_FLAGS_DEADTHREAD
0x77cbc500 4883ec48         SUB RSP, 0x48
0x77cbc504 4c8bc9           MOV R9, RCX
0x77cbc507 488b0552da1000   MOV RAX, [RIP+0x10da52]
0x77cbc50e 4885c0           TEST RAX, RAX
0x77cbc511 0f84e3840300     JZ 0x77cf49fa
0x77cbc517 4c               DB 0x4c
------
ETHREAD: 0x3fcc2060 Pid: 2304 Tid: 2548
Tags: ScannerOnly
Created: 2019-12-11 14:38:12 UTC+0000
Exited: 2019-12-11 14:38:12 UTC+0000
Owning Process: VBoxTray.exe
Attached Process: VBoxTray.exe
State: Terminated
BasePriority: 0x8
Priority: 0x8
TEB: 0x00000000
StartAddress: 0x77cbc500 ntdll.dll
Win32Thread: 0x00000000
CrossThreadFlags: PS_CROSS_THREAD_FLAGS_DEADTHREAD, PS_CROSS_THREAD_FLAGS_TERMINATED
0x77cbc500 4883ec48         SUB RSP, 0x48
0x77cbc504 4c8bc9           MOV R9, RCX
0x77cbc507 488b0552da1000   MOV RAX, [RIP+0x10da52]
0x77cbc50e 4885c0           TEST RAX, RAX
0x77cbc511 0f84e3840300     JZ 0x77cf49fa
0x77cbc517 4c               DB 0x4c
------
ETHREAD: 0xfffffa8001042470 Pid: 2868 Tid: 2612
Tags: 
Created: 2019-12-11 14:37:24 UTC+0000
Exited: 1970-01-01 00:00:00 UTC+0000
Owning Process: SearchProtocol
Attached Process: SearchProtocol
State: Waiting:WrQueue
BasePriority: 0x4
Priority: 0x4
TEB: 0x7fffffac000
StartAddress: 0x77cbc500 ntdll.dll
Win32Thread: 0xfffff900c1aec850
CrossThreadFlags: PS_CROSS_THREAD_FLAGS_DEADTHREAD
0x77cbc500 4883ec48         SUB RSP, 0x48
0x77cbc504 4c8bc9           MOV R9, RCX
0x77cbc507 488b0552da1000   MOV RAX, [RIP+0x10da52]
0x77cbc50e 4885c0           TEST RAX, RAX
0x77cbc511 0f84e3840300     JZ 0x77cf49fa
0x77cbc517 4c               DB 0x4c
------
ETHREAD: 0xfffffa80021dea60 Pid: 1844 Tid: 2096
Tags: 
Created: 2019-12-11 14:32:37 UTC+0000
Exited: 1970-01-01 00:00:00 UTC+0000
Owning Process: VBoxTray.exe
Attached Process: VBoxTray.exe
State: Waiting:Executive
BasePriority: 0x8
Priority: 0x8
TEB: 0x7fffffac000
StartAddress: 0x77cbc500 ntdll.dll
Win32Thread: 0x00000000
CrossThreadFlags: PS_CROSS_THREAD_FLAGS_DEADTHREAD
0x77cbc500 4883ec48         SUB RSP, 0x48
0x77cbc504 4c8bc9           MOV R9, RCX
0x77cbc507 488b0552da1000   MOV RAX, [RIP+0x10da52]
0x77cbc50e 4885c0           TEST RAX, RAX
0x77cbc511 0f84e3840300     JZ 0x77cf49fa
0x77cbc517 4c               DB 0x4c
------
ETHREAD: 0xfffffa8001ca2660 Pid: 500 Tid: 504
Tags: 
Created: 2019-12-11 13:41:35 UTC+0000
Exited: 1970-01-01 00:00:00 UTC+0000
Owning Process: lsm.exe
Attached Process: lsm.exe
State: Waiting:UserRequest
BasePriority: 0x8
Priority: 0x9
TEB: 0x7fffffde000
StartAddress: 0xfffff8a001606840 UNKNOWN
Win32Thread: 0x00000000
CrossThreadFlags: PS_CROSS_THREAD_FLAGS_DEADTHREAD
0xfffff8a001606840 e029             LOOPNZ 0xfffff8a00160686b
0xfffff8a001606842 ca0180           RETF 0x8001
0xfffff8a001606845 fa               CLI
0xfffff8a001606846 ff               DB 0xff
0xfffff8a001606847 ff7067           PUSH QWORD [RAX+0x67]
0xfffff8a00160684a 60               DB 0x60
0xfffff8a00160684b 01a0f8ffff50     ADD [RAX+0x50fffff8], ESP
0xfffff8a001606851 686001a0f8       PUSH DWORD 0xf8a00160
0xfffff8a001606856 ff               DB 0xff
0xfffff8a001606857 ff               DB 0xff
------
ETHREAD: 0xfffffa8000ef2880 Pid: 480 Tid: 1152
Tags: 
Created: 2019-12-11 14:37:20 UTC+0000
Exited: 2019-12-11 14:37:20 UTC+0000
Owning Process: SearchIndexer.
Attached Process: SearchIndexer.
State: Terminated
BasePriority: 0x8
Priority: 0x9
TEB: 0x00000000
StartAddress: 0x77cbc500 ntdll.dll
Win32Thread: 0x00000000
CrossThreadFlags: PS_CROSS_THREAD_FLAGS_DEADTHREAD, PS_CROSS_THREAD_FLAGS_TERMINATED
0x77cbc500 4883ec48         SUB RSP, 0x48
0x77cbc504 4c8bc9           MOV R9, RCX
0x77cbc507 488b0552da1000   MOV RAX, [RIP+0x10da52]
0x77cbc50e 4885c0           TEST RAX, RAX
0x77cbc511 0f84e3840300     JZ 0x77cf49fa
0x77cbc517 4c               DB 0x4c
------
ETHREAD: 0xfffffa8001dad6c0 Pid: 876 Tid: 884
Tags: 
Created: 2019-12-11 13:41:43 UTC+0000
Exited: 1970-01-01 00:00:00 UTC+0000
Owning Process: svchost.exe
Attached Process: svchost.exe
State: Waiting:UserRequest
BasePriority: 0x8
Priority: 0x8
TEB: 0x7fffffdb000
StartAddress: 0x77cbc500 ntdll.dll
Win32Thread: 0x00000000
CrossThreadFlags: PS_CROSS_THREAD_FLAGS_DEADTHREAD
0x77cbc500 4883ec48         SUB RSP, 0x48
0x77cbc504 4c8bc9           MOV R9, RCX
0x77cbc507 488b0552da1000   MOV RAX, [RIP+0x10da52]
0x77cbc50e 4885c0           TEST RAX, RAX
0x77cbc511 0f84e3840300     JZ 0x77cf49fa
0x77cbc517 4c               DB 0x4c
------
ETHREAD: 0x3fab7b60 Pid: 1512 Tid: 1712
Tags: ScannerOnly
Created: 2019-12-11 14:37:24 UTC+0000
Exited: 1970-01-01 00:00:00 UTC+0000
Owning Process: WinRAR.exe
Attached Process: WinRAR.exe
State: Waiting:UserRequest
BasePriority: 0x8
Priority: 0x8
TEB: 0x7fffffd3000
StartAddress: 0x77cbc500 ntdll.dll
Win32Thread: 0x00000000
CrossThreadFlags: PS_CROSS_THREAD_FLAGS_DEADTHREAD
0x77cbc500 4883ec48         SUB RSP, 0x48
0x77cbc504 4c8bc9           MOV R9, RCX
0x77cbc507 488b0552da1000   MOV RAX, [RIP+0x10da52]
0x77cbc50e 4885c0           TEST RAX, RAX
0x77cbc511 0f84e3840300     JZ 0x77cf49fa
0x77cbc517 4c               DB 0x4c
------
ETHREAD: 0xfffffa8001d32040 Pid: 4 Tid: 648
Tags: 
Created: 2019-12-11 13:41:40 UTC+0000
Exited: 1970-01-01 00:00:00 UTC+0000
Owning Process: System
Attached Process: System
State: Waiting:Executive
BasePriority: 0x8
Priority: 0x8
TEB: 0x00000000
StartAddress: 0xfffff88004bd0590 luafv.sys
Win32Thread: 0x00000000
CrossThreadFlags: PS_CROSS_THREAD_FLAGS_DEADTHREAD
0xfffff88004bd0590 48895c2410       MOV [RSP+0x10], RBX
0xfffff88004bd0595 48896c2418       MOV [RSP+0x18], RBP
0xfffff88004bd059a 56               PUSH RSI
0xfffff88004bd059b 57               PUSH RDI
0xfffff88004bd059c 4154             PUSH R12
0xfffff88004bd059e 4155             PUSH R13
0xfffff88004bd05a0 4157             PUSH R15
0xfffff88004bd05a2 48               DB 0x48
0xfffff88004bd05a3 81               DB 0x81
0xfffff88004bd05a4 ec               IN AL, DX
0xfffff88004bd05a5 90               NOP
0xfffff88004bd05a6 0000             ADD [RAX], AL
------
ETHREAD: 0x3faaa860 Pid: 2868 Tid: 736
Tags: ScannerOnly
Created: 2019-12-11 14:37:23 UTC+0000
Exited: 1970-01-01 00:00:00 UTC+0000
Owning Process: SearchProtocol
Attached Process: SearchProtocol
State: Waiting:UserRequest
BasePriority: 0x4
Priority: 0x4
TEB: 0x7fffffdc000
StartAddress: 0x77cbc500 ntdll.dll
Win32Thread: 0x00000000
CrossThreadFlags: PS_CROSS_THREAD_FLAGS_DEADTHREAD
0x77cbc500 4883ec48         SUB RSP, 0x48
0x77cbc504 4c8bc9           MOV R9, RCX
0x77cbc507 488b0552da1000   MOV RAX, [RIP+0x10da52]
0x77cbc50e 4885c0           TEST RAX, RAX
0x77cbc511 0f84e3840300     JZ 0x77cf49fa
0x77cbc517 4c               DB 0x4c
------
ETHREAD: 0xfffffa8001fa7060 Pid: 1044 Tid: 1752
Tags: 
Created: 2019-12-11 13:41:59 UTC+0000
Exited: 1970-01-01 00:00:00 UTC+0000
Owning Process: svchost.exe
Attached Process: svchost.exe
State: Waiting:UserRequest
BasePriority: 0x8
Priority: 0x8
TEB: 0x7fffffa0000
StartAddress: 0xfffff8a00190e880 UNKNOWN
Win32Thread: 0x00000000
CrossThreadFlags: PS_CROSS_THREAD_FLAGS_DEADTHREAD
0xfffff8a00190e880 e073             LOOPNZ 0xfffff8a00190e8f5
0xfffff8a00190e882 fa               CLI
0xfffff8a00190e883 0180faffffe0     ADD [RAX-0x1f000006], EAX
0xfffff8a00190e889 73fa             JAE 0xfffff8a00190e885
0xfffff8a00190e88b 0180faffff90     ADD [RAX-0x6f000006], EAX
0xfffff8a00190e891 e89001a0f8       CALL 0xfffff89ffa30ea26
0xfffff8a00190e896 ff               DB 0xff
0xfffff8a00190e897 ff               DB 0xff
------
ETHREAD: 0xfffffa8000f79b60 Pid: 2504 Tid: 2968
Tags: 
Created: 2019-12-11 14:37:20 UTC+0000
Exited: 1970-01-01 00:00:00 UTC+0000
Owning Process: explorer.exe
Attached Process: explorer.exe
State: Waiting:WrQueue
BasePriority: 0x8
Priority: 0xa
TEB: 0x7fffff80000
StartAddress: 0x77cbc500 ntdll.dll
Win32Thread: 0x00000000
CrossThreadFlags: PS_CROSS_THREAD_FLAGS_DEADTHREAD
0x77cbc500 4883ec48         SUB RSP, 0x48
0x77cbc504 4c8bc9           MOV R9, RCX
0x77cbc507 488b0552da1000   MOV RAX, [RIP+0x10da52]
0x77cbc50e 4885c0           TEST RAX, RAX
0x77cbc511 0f84e3840300     JZ 0x77cf49fa
0x77cbc517 4c               DB 0x4c
------
ETHREAD: 0xfffffa8002225060 Pid: 2368 Tid: 2396
Tags: 
Created: 2019-12-11 14:32:52 UTC+0000
Exited: 1970-01-01 00:00:00 UTC+0000
Owning Process: svchost.exe
Attached Process: svchost.exe
State: Waiting:UserRequest
BasePriority: 0x8
Priority: 0x8
TEB: 0x7fffffd3000
StartAddress: 0xfffff8a00206e7c0 UNKNOWN
Win32Thread: 0x00000000
CrossThreadFlags: PS_CROSS_THREAD_FLAGS_DEADTHREAD
0xfffff8a00206e7c0 e053             LOOPNZ 0xfffff8a00206e815
0xfffff8a00206e7c2 2202             AND AL, [RDX]
0xfffff8a00206e7c4 80faff           CMP DL, 0xff
0xfffff8a00206e7c7 ffe0             JMP RAX
0xfffff8a00206e7c9 53               PUSH RBX
0xfffff8a00206e7ca 2202             AND AL, [RDX]
0xfffff8a00206e7cc 80faff           CMP DL, 0xff
0xfffff8a00206e7cf ffd0             CALL RAX
0xfffff8a00206e7d1 e706             OUT 0x6, EAX
0xfffff8a00206e7d3 02               DB 0x2
0xfffff8a00206e7d4 a0               DB 0xa0
0xfffff8a00206e7d5 f8               CLC
0xfffff8a00206e7d6 ff               DB 0xff
0xfffff8a00206e7d7 ff               DB 0xff
------
ETHREAD: 0xfffffa8001cc4890 Pid: 492 Tid: 524
Tags: 
Created: 2019-12-11 13:41:37 UTC+0000
Exited: 1970-01-01 00:00:00 UTC+0000
Owning Process: lsass.exe
Attached Process: lsass.exe
State: Waiting:WrQueue
BasePriority: 0x9
Priority: 0x9
TEB: 0x7fffffd5000
StartAddress: 0xfffff8a00150be60 UNKNOWN
Win32Thread: 0x00000000
CrossThreadFlags: PS_CROSS_THREAD_FLAGS_DEADTHREAD
0xfffff8a00150be60 104ccc01         ADC [RSP+RCX*8+0x1], CL
0xfffff8a00150be64 80faff           CMP DL, 0xff
0xfffff8a00150be67 ff407a           INC DWORD [RAX+0x7a]
0xfffff8a00150be6a 50               PUSH RAX
0xfffff8a00150be6b 01a0f8ffff70     ADD [RAX+0x70fffff8], ESP
0xfffff8a00150be71 be5001a0f8       MOV ESI, 0xf8a00150
0xfffff8a00150be76 ff               DB 0xff
0xfffff8a00150be77 ff               DB 0xff
------
ETHREAD: 0xfffffa8001bca060 Pid: 4 Tid: 1456
Tags: 
Created: 2019-12-11 14:16:19 UTC+0000
Exited: 1970-01-01 00:00:00 UTC+0000
Owning Process: System
Attached Process: System
State: Waiting:Executive
BasePriority: 0xf
Priority: 0xf
TEB: 0x00000000
StartAddress: 0xfffff800029bb064 ntoskrnl.exe
Win32Thread: 0x00000000
CrossThreadFlags: PS_CROSS_THREAD_FLAGS_DEADTHREAD
0xfffff800029bb064 48895c2410       MOV [RSP+0x10], RBX
0xfffff800029bb069 48896c2418       MOV [RSP+0x18], RBP
0xfffff800029bb06e 4889742420       MOV [RSP+0x20], RSI
0xfffff800029bb073 57               PUSH RDI
0xfffff800029bb074 4154             PUSH R12
0xfffff800029bb076 4155             PUSH R13
0xfffff800029bb078 4156             PUSH R14
0xfffff800029bb07a 4157             PUSH R15
------
ETHREAD: 0xfffffa8000eab060 Pid: 472 Tid: 2620
Tags: 
Created: 2019-12-11 14:36:35 UTC+0000
Exited: 1970-01-01 00:00:00 UTC+0000
Owning Process: svchost.exe
Attached Process: svchost.exe
State: Waiting:WrQueue
BasePriority: 0x8
Priority: 0x8
TEB: 0x7fffffd6000
StartAddress: 0x77cbc500 ntdll.dll
Win32Thread: 0xfffff900c1aca010
CrossThreadFlags: PS_CROSS_THREAD_FLAGS_DEADTHREAD
0x77cbc500 4883ec48         SUB RSP, 0x48
0x77cbc504 4c8bc9           MOV R9, RCX
0x77cbc507 488b0552da1000   MOV RAX, [RIP+0x10da52]
0x77cbc50e 4885c0           TEST RAX, RAX
0x77cbc511 0f84e3840300     JZ 0x77cf49fa
0x77cbc517 4c               DB 0x4c
------
ETHREAD: 0xfffffa8002212a60 Pid: 816 Tid: 2360
Tags: 
Created: 2019-12-11 14:32:50 UTC+0000
Exited: 1970-01-01 00:00:00 UTC+0000
Owning Process: svchost.exe
Attached Process: svchost.exe
State: Waiting:UserRequest
BasePriority: 0x8
Priority: 0x9
TEB: 0x7fffff86000
StartAddress: 0x77cbc500 ntdll.dll
Win32Thread: 0x00000000
CrossThreadFlags: PS_CROSS_THREAD_FLAGS_DEADTHREAD
0x77cbc500 4883ec48         SUB RSP, 0x48
0x77cbc504 4c8bc9           MOV R9, RCX
0x77cbc507 488b0552da1000   MOV RAX, [RIP+0x10da52]
0x77cbc50e 4885c0           TEST RAX, RAX
0x77cbc511 0f84e3840300     JZ 0x77cf49fa
0x77cbc517 4c               DB 0x4c
------
ETHREAD: 0xfffffa8001f568a0 Pid: 1044 Tid: 1360
Tags: 
Created: 2019-12-11 13:41:54 UTC+0000
Exited: 1970-01-01 00:00:00 UTC+0000
Owning Process: svchost.exe
Attached Process: svchost.exe
State: Waiting:WrQueue
BasePriority: 0x8
Priority: 0x9
TEB: 0x7fffffa6000
StartAddress: 0xfffff8a0018bf9c0 UNKNOWN
Win32Thread: 0x00000000
CrossThreadFlags: PS_CROSS_THREAD_FLAGS_DEADTHREAD
0xfffff8a0018bf9c0 206cf501         AND [RBP+RSI*8+0x1], CH
0xfffff8a0018bf9c4 80faff           CMP DL, 0xff
0xfffff8a0018bf9c7 ff20             JMP QWORD [RAX]
0xfffff8a0018bf9c9 6c               INS BYTE [RDI], DX
0xfffff8a0018bf9ca f5               CMC
0xfffff8a0018bf9cb 0180faffffd0     ADD [RAX-0x2f000006], EAX
0xfffff8a0018bf9d1 f9               STC
0xfffff8a0018bf9d2 8b01             MOV EAX, [RCX]
0xfffff8a0018bf9d4 a0               DB 0xa0
0xfffff8a0018bf9d5 f8               CLC
0xfffff8a0018bf9d6 ff               DB 0xff
0xfffff8a0018bf9d7 ff               DB 0xff
------
ETHREAD: 0xfffffa8001fa6b60 Pid: 484 Tid: 1864
Tags: 
Created: 2019-12-11 14:26:33 UTC+0000
Exited: 1970-01-01 00:00:00 UTC+0000
Owning Process: services.exe
Attached Process: services.exe
State: Waiting:WrQueue
BasePriority: 0x9
Priority: 0x9
TEB: 0x7fffffda000
StartAddress: 0x77cbc500 ntdll.dll
Win32Thread: 0x00000000
CrossThreadFlags: PS_CROSS_THREAD_FLAGS_DEADTHREAD
0x77cbc500 4883ec48         SUB RSP, 0x48
0x77cbc504 4c8bc9           MOV R9, RCX
0x77cbc507 488b0552da1000   MOV RAX, [RIP+0x10da52]
0x77cbc50e 4885c0           TEST RAX, RAX
0x77cbc511 0f84e3840300     JZ 0x77cf49fa
0x77cbc517 4c               DB 0x4c
------
ETHREAD: 0xfffffa8001ded060 Pid: 376 Tid: 1012
Tags: 
Created: 2019-12-11 13:41:45 UTC+0000
Exited: 1970-01-01 00:00:00 UTC+0000
Owning Process: psxss.exe
Attached Process: psxss.exe
State: Waiting:WrLpcReceive
BasePriority: 0xd
Priority: 0xd
TEB: 0x7fffffa0000
StartAddress: 0x77cbc500 ntdll.dll
Win32Thread: 0x00000000
CrossThreadFlags: PS_CROSS_THREAD_FLAGS_DEADTHREAD
0x77cbc500 4883ec48         SUB RSP, 0x48
0x77cbc504 4c8bc9           MOV R9, RCX
0x77cbc507 488b0552da1000   MOV RAX, [RIP+0x10da52]
0x77cbc50e 4885c0           TEST RAX, RAX
0x77cbc511 0f84e3840300     JZ 0x77cf49fa
0x77cbc517 4c               DB 0x4c
------
ETHREAD: 0x3fb74060 Pid: 1844 Tid: 2996
Tags: ScannerOnly
Created: 2019-12-11 14:38:12 UTC+0000
Exited: 2019-12-11 14:38:12 UTC+0000
Owning Process: VBoxTray.exe
Attached Process: VBoxTray.exe
State: Terminated
BasePriority: 0x8
Priority: 0x8
TEB: 0x00000000
StartAddress: 0x77cbc500 ntdll.dll
Win32Thread: 0x00000000
CrossThreadFlags: PS_CROSS_THREAD_FLAGS_DEADTHREAD, PS_CROSS_THREAD_FLAGS_TERMINATED
0x77cbc500 4883ec48         SUB RSP, 0x48
0x77cbc504 4c8bc9           MOV R9, RCX
0x77cbc507 488b0552da1000   MOV RAX, [RIP+0x10da52]
0x77cbc50e 4885c0           TEST RAX, RAX
0x77cbc511 0f84e3840300     JZ 0x77cf49fa
0x77cbc517 4c               DB 0x4c
------
ETHREAD: 0xfffffa8000ec3480 Pid: 796 Tid: 2880
Tags: 
Created: 2019-12-11 14:37:54 UTC+0000
Exited: 1970-01-01 00:00:00 UTC+0000
Owning Process: DumpIt.exe
Attached Process: DumpIt.exe
State: Running
BasePriority: 0x8
Priority: 0xa
TEB: 0x7efdb000
StartAddress: 0x77cbc500 ntdll.dll
Win32Thread: 0xfffff900c1d1dc30
CrossThreadFlags: PS_CROSS_THREAD_FLAGS_DEADTHREAD
0x77cbc500 4883ec48         SUB RSP, 0x48
0x77cbc504 4c8bc9           MOV R9, RCX
0x77cbc507 488b0552da1000   MOV RAX, [RIP+0x10da52]
0x77cbc50e 4885c0           TEST RAX, RAX
0x77cbc511 0f84e3840300     JZ 0x77cf49fa
0x77cbc517 4c               DB 0x4c
------
ETHREAD: 0xfffffa8001c81b60 Pid: 368 Tid: 464
Tags: 
Created: 2019-12-11 13:41:34 UTC+0000
Exited: 1970-01-01 00:00:00 UTC+0000
Owning Process: csrss.exe
Attached Process: csrss.exe
State: Waiting:WrUserRequest
BasePriority: 0xd
Priority: 0xf
TEB: 0x7fffffac000
StartAddress: 0x77cbc500 ntdll.dll
Win32Thread: 0xfffff900c0135010
CrossThreadFlags: PS_CROSS_THREAD_FLAGS_DEADTHREAD
0x77cbc500 4883ec48         SUB RSP, 0x48
0x77cbc504 4c8bc9           MOV R9, RCX
0x77cbc507 488b0552da1000   MOV RAX, [RIP+0x10da52]
0x77cbc50e 4885c0           TEST RAX, RAX
0x77cbc511 0f84e3840300     JZ 0x77cf49fa
0x77cbc517 4c               DB 0x4c
------
ETHREAD: 0xfffffa8002210060 Pid: 472 Tid: 2336
Tags: 
Created: 2019-12-11 14:32:50 UTC+0000
Exited: 1970-01-01 00:00:00 UTC+0000
Owning Process: svchost.exe
Attached Process: svchost.exe
State: Waiting:WrQueue
BasePriority: 0x8
Priority: 0xa
TEB: 0x7fffff90000
StartAddress: 0x77cbc500 ntdll.dll
Win32Thread: 0x00000000
CrossThreadFlags: PS_CROSS_THREAD_FLAGS_DEADTHREAD
0x77cbc500 4883ec48         SUB RSP, 0x48
0x77cbc504 4c8bc9           MOV R9, RCX
0x77cbc507 488b0552da1000   MOV RAX, [RIP+0x10da52]
0x77cbc50e 4885c0           TEST RAX, RAX
0x77cbc511 0f84e3840300     JZ 0x77cf49fa
0x77cbc517 4c               DB 0x4c
------
ETHREAD: 0xfffffa8001343b60 Pid: 4 Tid: 204
Tags: 
Created: 2019-12-11 13:41:22 UTC+0000
Exited: 1970-01-01 00:00:00 UTC+0000
Owning Process: System
Attached Process: System
State: Waiting:Executive
BasePriority: 0x8
Priority: 0x8
TEB: 0x00000000
StartAddress: 0xfffff880018dd900 volsnap.sys
Win32Thread: 0x00000000
CrossThreadFlags: PS_CROSS_THREAD_FLAGS_DEADTHREAD
0xfffff880018dd900 48895c2408       MOV [RSP+0x8], RBX
0xfffff880018dd905 48896c2410       MOV [RSP+0x10], RBP
0xfffff880018dd90a 4889742418       MOV [RSP+0x18], RSI
0xfffff880018dd90f 57               PUSH RDI
0xfffff880018dd910 4883ec30         SUB RSP, 0x30
0xfffff880018dd914 488b7928         MOV RDI, [RCX+0x28]
------
ETHREAD: 0x3fb10880 Pid: 1720 Tid: 1216
Tags: ScannerOnly
Created: 2019-12-11 14:37:21 UTC+0000
Exited: 1970-01-01 00:00:00 UTC+0000
Owning Process: SearchFilterHo
Attached Process: SearchFilterHo
State: Waiting:UserRequest
BasePriority: 0x4
Priority: 0x4
TEB: 0x7fffffdb000
StartAddress: 0x77cbc500 ntdll.dll
Win32Thread: 0x00000000
CrossThreadFlags: PS_CROSS_THREAD_FLAGS_DEADTHREAD
0x77cbc500 4883ec48         SUB RSP, 0x48
0x77cbc504 4c8bc9           MOV R9, RCX
0x77cbc507 488b0552da1000   MOV RAX, [RIP+0x10da52]
0x77cbc50e 4885c0           TEST RAX, RAX
0x77cbc511 0f84e3840300     JZ 0x77cf49fa
0x77cbc517 4c               DB 0x4c
------
ETHREAD: 0xfffffa8001ebb680 Pid: 4 Tid: 1204
Tags: 
Created: 2019-12-11 13:41:51 UTC+0000
Exited: 1970-01-01 00:00:00 UTC+0000
Owning Process: System
Attached Process: System
State: Waiting:Executive
BasePriority: 0x8
Priority: 0x8
TEB: 0x00000000
StartAddress: 0xfffff88002494950 HTTP.sys
Win32Thread: 0x00000000
CrossThreadFlags: PS_CROSS_THREAD_FLAGS_DEADTHREAD
0xfffff88002494950 4c8bdc           MOV R11, RSP
0xfffff88002494953 4881ec08010000   SUB RSP, 0x108
0xfffff8800249495a 0fb605a719feff   MOVZX EAX, BYTE [RIP-0x1e659]
0xfffff88002494961 49               DB 0x49
0xfffff88002494962 c7               DB 0xc7
0xfffff88002494963 431000           ADC [R8], AL
0xfffff88002494966 a6               CMPSB
0xfffff88002494967 9d               POPF
------
ETHREAD: 0xfffffa8001e05b60 Pid: 876 Tid: 304
Tags: 
Created: 2019-12-11 13:41:45 UTC+0000
Exited: 1970-01-01 00:00:00 UTC+0000
Owning Process: svchost.exe
Attached Process: svchost.exe
State: Waiting:UserRequest
BasePriority: 0x8
Priority: 0x9
TEB: 0x7fffffac000
StartAddress: 0x77cbc500 ntdll.dll
Win32Thread: 0xfffff900c1aa9c30
CrossThreadFlags: PS_CROSS_THREAD_FLAGS_DEADTHREAD
0x77cbc500 4883ec48         SUB RSP, 0x48
0x77cbc504 4c8bc9           MOV R9, RCX
0x77cbc507 488b0552da1000   MOV RAX, [RIP+0x10da52]
0x77cbc50e 4885c0           TEST RAX, RAX
0x77cbc511 0f84e3840300     JZ 0x77cf49fa
0x77cbc517 4c               DB 0x4c
------
ETHREAD: 0xfffffa8001f94060 Pid: 1416 Tid: 1428
Tags: 
Created: 2019-12-11 13:41:55 UTC+0000
Exited: 1970-01-01 00:00:00 UTC+0000
Owning Process: TCPSVCS.EXE
Attached Process: TCPSVCS.EXE
State: Waiting:WrQueue
BasePriority: 0x8
Priority: 0x8
TEB: 0x7fffffd9000
StartAddress: 0x77cbc500 ntdll.dll
Win32Thread: 0x00000000
CrossThreadFlags: PS_CROSS_THREAD_FLAGS_DEADTHREAD
0x77cbc500 4883ec48         SUB RSP, 0x48
0x77cbc504 4c8bc9           MOV R9, RCX
0x77cbc507 488b0552da1000   MOV RAX, [RIP+0x10da52]
0x77cbc50e 4885c0           TEST RAX, RAX
0x77cbc511 0f84e3840300     JZ 0x77cf49fa
0x77cbc517 4c               DB 0x4c
------
ETHREAD: 0xfffffa8000cbd8c0 Pid: 4 Tid: 84
Tags: 
Created: 2019-12-11 13:41:22 UTC+0000
Exited: 1970-01-01 00:00:00 UTC+0000
Owning Process: System
Attached Process: System
State: Waiting:WrVirtualMemory
BasePriority: 0x8
Priority: 0x12
TEB: 0x00000000
StartAddress: 0xfffff800026ec660 ntoskrnl.exe
Win32Thread: 0x00000000
CrossThreadFlags: PS_CROSS_THREAD_FLAGS_DEADTHREAD
0xfffff800026ec660 fff3             PUSH RBX
0xfffff800026ec662 4883ec70         SUB RSP, 0x70
0xfffff800026ec666 65488b1c2588010000 MOV RBX, [GS:0x188]
0xfffff800026ec66f ba12000000       MOV EDX, 0x12
0xfffff800026ec674 488bcb           MOV RCX, RBX
0xfffff800026ec677 e8               DB 0xe8
------
ETHREAD: 0xfffffa8001467420 Pid: 4 Tid: 220
Tags: 
Created: 2019-12-11 13:41:25 UTC+0000
Exited: 1970-01-01 00:00:00 UTC+0000
Owning Process: System
Attached Process: System
State: Waiting:WrQueue
BasePriority: 0x8
Priority: 0x8
TEB: 0x00000000
StartAddress: 0xfffff88002c4ee50 VBoxSF.sys
Win32Thread: 0x00000000
CrossThreadFlags: PS_CROSS_THREAD_FLAGS_DEADTHREAD
0xfffff88002c4ee50 33d2             XOR EDX, EDX
0xfffff88002c4ee52 e9759afbff       JMP 0xfffff88002c088cc
0xfffff88002c4ee57 cc               INT 3
0xfffff88002c4ee58 48895c2410       MOV [RSP+0x10], RBX
0xfffff88002c4ee5d 48896c2418       MOV [RSP+0x18], RBP
0xfffff88002c4ee62 56               PUSH RSI
0xfffff88002c4ee63 57               PUSH RDI
0xfffff88002c4ee64 4154             PUSH R12
0xfffff88002c4ee66 48               DB 0x48
0xfffff88002c4ee67 81               DB 0x81
------
ETHREAD: 0xfffffa8000f75950 Pid: 2304 Tid: 1960
Tags: 
Created: 2019-12-11 14:37:14 UTC+0000
Exited: 1970-01-01 00:00:00 UTC+0000
Owning Process: VBoxTray.exe
Attached Process: VBoxTray.exe
State: Waiting:UserRequest
BasePriority: 0xa
Priority: 0xa
TEB: 0x7fffffde000
StartAddress: 0x77cbc500 ntdll.dll
Win32Thread: 0xfffff900c22cec30
CrossThreadFlags: PS_CROSS_THREAD_FLAGS_DEADTHREAD
0x77cbc500 4883ec48         SUB RSP, 0x48
0x77cbc504 4c8bc9           MOV R9, RCX
0x77cbc507 488b0552da1000   MOV RAX, [RIP+0x10da52]
0x77cbc50e 4885c0           TEST RAX, RAX
0x77cbc511 0f84e3840300     JZ 0x77cf49fa
0x77cbc517 4c               DB 0x4c
------
ETHREAD: 0xfffffa8001f9b060 Pid: 876 Tid: 1792
Tags: 
Created: 2019-12-11 13:42:00 UTC+0000
Exited: 1970-01-01 00:00:00 UTC+0000
Owning Process: svchost.exe
Attached Process: svchost.exe
State: Waiting:UserRequest
BasePriority: 0x8
Priority: 0xa
TEB: 0x7fffff6e000
StartAddress: 0x77cbc500 ntdll.dll
Win32Thread: 0x00000000
CrossThreadFlags: PS_CROSS_THREAD_FLAGS_DEADTHREAD
0x77cbc500 4883ec48         SUB RSP, 0x48
0x77cbc504 4c8bc9           MOV R9, RCX
0x77cbc507 488b0552da1000   MOV RAX, [RIP+0x10da52]
0x77cbc50e 4885c0           TEST RAX, RAX
0x77cbc511 0f84e3840300     JZ 0x77cf49fa
0x77cbc517 4c               DB 0x4c
------
ETHREAD: 0xfffffa8000eaeb60 Pid: 2424 Tid: 908
Tags: 
Created: 2019-12-11 14:35:14 UTC+0000
Exited: 1970-01-01 00:00:00 UTC+0000
Owning Process: mspaint.exe
Attached Process: mspaint.exe
State: Waiting:UserRequest
BasePriority: 0x8
Priority: 0x8
TEB: 0x7fffffae000
StartAddress: 0x77cbc500 ntdll.dll
Win32Thread: 0x00000000
CrossThreadFlags: PS_CROSS_THREAD_FLAGS_DEADTHREAD
0x77cbc500 4883ec48         SUB RSP, 0x48
0x77cbc504 4c8bc9           MOV R9, RCX
0x77cbc507 488b0552da1000   MOV RAX, [RIP+0x10da52]
0x77cbc50e 4885c0           TEST RAX, RAX
0x77cbc511 0f84e3840300     JZ 0x77cf49fa
0x77cbc517 4c               DB 0x4c
------
ETHREAD: 0xfffffa8001cb78d0 Pid: 948 Tid: 1584
Tags: 
Created: 2019-12-11 14:32:15 UTC+0000
Exited: 1970-01-01 00:00:00 UTC+0000
Owning Process: svchost.exe
Attached Process: svchost.exe
State: Waiting:WrQueue
BasePriority: 0x8
Priority: 0x8
TEB: 0x7fffffd8000
StartAddress: 0x77cbc500 ntdll.dll
Win32Thread: 0x00000000
CrossThreadFlags: PS_CROSS_THREAD_FLAGS_DEADTHREAD
0x77cbc500 4883ec48         SUB RSP, 0x48
0x77cbc504 4c8bc9           MOV R9, RCX
0x77cbc507 488b0552da1000   MOV RAX, [RIP+0x10da52]
0x77cbc50e 4885c0           TEST RAX, RAX
0x77cbc511 0f84e3840300     JZ 0x77cf49fa
0x77cbc517 4c               DB 0x4c
------
ETHREAD: 0xfffffa80022b9b60 Pid: 2368 Tid: 2528
Tags: 
Created: 2019-12-11 14:36:58 UTC+0000
Exited: 2019-12-11 14:38:05 UTC+0000
Owning Process: svchost.exe
Attached Process: svchost.exe
State: Terminated
BasePriority: 0x8
Priority: 0x8
TEB: 0x00000000
StartAddress: 0x77cbc500 ntdll.dll
Win32Thread: 0x00000000
CrossThreadFlags: PS_CROSS_THREAD_FLAGS_DEADTHREAD, PS_CROSS_THREAD_FLAGS_TERMINATED
0x77cbc500 4883ec48         SUB RSP, 0x48
0x77cbc504 4c8bc9           MOV R9, RCX
0x77cbc507 488b0552da1000   MOV RAX, [RIP+0x10da52]
0x77cbc50e 4885c0           TEST RAX, RAX
0x77cbc511 0f84e3840300     JZ 0x77cf49fa
0x77cbc517 4c               DB 0x4c
------
ETHREAD: 0x3fadd5f0 Pid: 852 Tid: 616
Tags: ScannerOnly
Created: 2019-12-11 14:37:54 UTC+0000
Exited: 1970-01-01 00:00:00 UTC+0000
Owning Process: svchost.exe
Attached Process: svchost.exe
State: Waiting:WrQueue
BasePriority: 0x8
Priority: 0x8
TEB: 0x7fffff9e000
StartAddress: 0x77cbc500 ntdll.dll
Win32Thread: 0x00000000
CrossThreadFlags: PS_CROSS_THREAD_FLAGS_DEADTHREAD
0x77cbc500 4883ec48         SUB RSP, 0x48
0x77cbc504 4c8bc9           MOV R9, RCX
0x77cbc507 488b0552da1000   MOV RAX, [RIP+0x10da52]
0x77cbc50e 4885c0           TEST RAX, RAX
0x77cbc511 0f84e3840300     JZ 0x77cf49fa
0x77cbc517 4c               DB 0x4c
------
ETHREAD: 0xfffffa8001d3b060 Pid: 604 Tid: 1944
Tags: 
Created: 2019-12-11 14:34:22 UTC+0000
Exited: 1970-01-01 00:00:00 UTC+0000
Owning Process: explorer.exe
Attached Process: explorer.exe
State: Waiting:UserRequest
BasePriority: 0x8
Priority: 0xa
TEB: 0x7fffff8e000
StartAddress: 0x77cbc500 ntdll.dll
Win32Thread: 0xfffff900c01b34f0
CrossThreadFlags: PS_CROSS_THREAD_FLAGS_DEADTHREAD
0x77cbc500 4883ec48         SUB RSP, 0x48
0x77cbc504 4c8bc9           MOV R9, RCX
0x77cbc507 488b0552da1000   MOV RAX, [RIP+0x10da52]
0x77cbc50e 4885c0           TEST RAX, RAX
0x77cbc511 0f84e3840300     JZ 0x77cf49fa
0x77cbc517 4c               DB 0x4c
------
ETHREAD: 0x3fb0db60 Pid: 2524 Tid: 2884
Tags: ScannerOnly
Created: 2019-12-11 14:37:21 UTC+0000
Exited: 1970-01-01 00:00:00 UTC+0000
Owning Process: SearchProtocol
Attached Process: SearchProtocol
State: Waiting:UserRequest
BasePriority: 0x4
Priority: 0x4
TEB: 0x7fffffde000
StartAddress: 0x77cbc500 ntdll.dll
Win32Thread: 0xfffff900c22fbc30
CrossThreadFlags: PS_CROSS_THREAD_FLAGS_DEADTHREAD
0x77cbc500 4883ec48         SUB RSP, 0x48
0x77cbc504 4c8bc9           MOV R9, RCX
0x77cbc507 488b0552da1000   MOV RAX, [RIP+0x10da52]
0x77cbc50e 4885c0           TEST RAX, RAX
0x77cbc511 0f84e3840300     JZ 0x77cf49fa
0x77cbc517 4c               DB 0x4c
------
ETHREAD: 0x3fac16f0 Pid: 480 Tid: 2404
Tags: ScannerOnly
Created: 2019-12-11 14:37:27 UTC+0000
Exited: 2019-12-11 14:37:27 UTC+0000
Owning Process: SearchIndexer.
Attached Process: SearchIndexer.
State: Terminated
BasePriority: 0x8
Priority: 0x8
TEB: 0x00000000
StartAddress: 0x77cbc500 ntdll.dll
Win32Thread: 0x00000000
CrossThreadFlags: PS_CROSS_THREAD_FLAGS_DEADTHREAD, PS_CROSS_THREAD_FLAGS_TERMINATED
0x77cbc500 4883ec48         SUB RSP, 0x48
0x77cbc504 4c8bc9           MOV R9, RCX
0x77cbc507 488b0552da1000   MOV RAX, [RIP+0x10da52]
0x77cbc50e 4885c0           TEST RAX, RAX
0x77cbc511 0f84e3840300     JZ 0x77cf49fa
0x77cbc517 4c               DB 0x4c
------
ETHREAD: 0x3ebd5950 Pid: 2808 Tid: 2184
Tags: ScannerOnly
Created: 2019-12-11 14:37:05 UTC+0000
Exited: 2019-12-11 14:38:13 UTC+0000
Owning Process: winlogon.exe
Attached Process: winlogon.exe
State: Terminated
BasePriority: 0xd
Priority: 0xd
TEB: 0x00000000
StartAddress: 0x77cbc500 ntdll.dll
Win32Thread: 0x00000000
CrossThreadFlags: PS_CROSS_THREAD_FLAGS_DEADTHREAD, PS_CROSS_THREAD_FLAGS_TERMINATED
0x77cbc500 4883ec48         SUB RSP, 0x48
0x77cbc504 4c8bc9           MOV R9, RCX
0x77cbc507 488b0552da1000   MOV RAX, [RIP+0x10da52]
0x77cbc50e 4885c0           TEST RAX, RAX
0x77cbc511 0f84e3840300     JZ 0x77cf49fa
0x77cbc517 4c               DB 0x4c
------
ETHREAD: 0xfffffa80020408e0 Pid: 1372 Tid: 1600
Tags: 
Created: 2019-12-11 13:41:58 UTC+0000
Exited: 1970-01-01 00:00:00 UTC+0000
Owning Process: svchost.exe
Attached Process: svchost.exe
State: Waiting:WrQueue
BasePriority: 0x8
Priority: 0x8
TEB: 0x7fffffa4000
StartAddress: 0x77cbc500 ntdll.dll
Win32Thread: 0x00000000
CrossThreadFlags: PS_CROSS_THREAD_FLAGS_DEADTHREAD
0x77cbc500 4883ec48         SUB RSP, 0x48
0x77cbc504 4c8bc9           MOV R9, RCX
0x77cbc507 488b0552da1000   MOV RAX, [RIP+0x10da52]
0x77cbc50e 4885c0           TEST RAX, RAX
0x77cbc511 0f84e3840300     JZ 0x77cf49fa
0x77cbc517 4c               DB 0x4c
------
ETHREAD: 0xfffffa8001d442d0 Pid: 588 Tid: 712
Tags: 
Created: 2019-12-11 13:41:41 UTC+0000
Exited: 1970-01-01 00:00:00 UTC+0000
Owning Process: svchost.exe
Attached Process: svchost.exe
State: Waiting:WrQueue
BasePriority: 0x8
Priority: 0x8
TEB: 0x7fffff9e000
StartAddress: 0xfffff8a0014c9570 UNKNOWN
Win32Thread: 0x00000000
CrossThreadFlags: PS_CROSS_THREAD_FLAGS_DEADTHREAD
0xfffff8a0014c9570 50               PUSH RAX
0xfffff8a0014c9571 46               DB 0x46
0xfffff8a0014c9572 d4               DB 0xd4
0xfffff8a0014c9573 0180faffffd0     ADD [RAX-0x2f000006], EAX
0xfffff8a0014c9579 355201a0f8       XOR EAX, 0xf8a00152
0xfffff8a0014c957e ff               DB 0xff
0xfffff8a0014c957f ff80954c01a0     INC DWORD [RAX-0x5ffeb36b]
0xfffff8a0014c9585 f8               CLC
0xfffff8a0014c9586 ff               DB 0xff
0xfffff8a0014c9587 ff               DB 0xff
------
ETHREAD: 0xfffffa8001dfd060 Pid: 816 Tid: 272
Tags: 
Created: 2019-12-11 13:41:45 UTC+0000
Exited: 1970-01-01 00:00:00 UTC+0000
Owning Process: svchost.exe
Attached Process: svchost.exe
State: Waiting:UserRequest
BasePriority: 0x8
Priority: 0xa
TEB: 0x7fffffa0000
StartAddress: 0x77cbc500 ntdll.dll
Win32Thread: 0xfffff900c1a99900
CrossThreadFlags: PS_CROSS_THREAD_FLAGS_DEADTHREAD
0x77cbc500 4883ec48         SUB RSP, 0x48
0x77cbc504 4c8bc9           MOV R9, RCX
0x77cbc507 488b0552da1000   MOV RAX, [RIP+0x10da52]
0x77cbc50e 4885c0           TEST RAX, RAX
0x77cbc511 0f84e3840300     JZ 0x77cf49fa
0x77cbc517 4c               DB 0x4c
------
ETHREAD: 0x3fb58840 Pid: 796 Tid: 2800
Tags: ScannerOnly
Created: 2019-12-11 14:38:00 UTC+0000
Exited: 1970-01-01 00:00:00 UTC+0000
Owning Process: DumpIt.exe
Attached Process: DumpIt.exe
State: Waiting:UserRequest
BasePriority: 0x8
Priority: 0x8
TEB: 0x7efd8000
StartAddress: 0x77cbc500 ntdll.dll
Win32Thread: 0x00000000
CrossThreadFlags: PS_CROSS_THREAD_FLAGS_DEADTHREAD
0x77cbc500 4883ec48         SUB RSP, 0x48
0x77cbc504 4c8bc9           MOV R9, RCX
0x77cbc507 488b0552da1000   MOV RAX, [RIP+0x10da52]
0x77cbc50e 4885c0           TEST RAX, RAX
0x77cbc511 0f84e3840300     JZ 0x77cf49fa
0x77cbc517 4c               DB 0x4c
------
ETHREAD: 0xfffffa8000cb1b60 Pid: 4 Tid: 32
Tags: 
Created: 2019-12-11 13:41:22 UTC+0000
Exited: 1970-01-01 00:00:00 UTC+0000
Owning Process: System
Attached Process: System
State: Waiting:WrQueue
BasePriority: 0xd
Priority: 0xd
TEB: 0x00000000
StartAddress: 0xfffff800026a9910 ntoskrnl.exe
Win32Thread: 0x00000000
CrossThreadFlags: PS_CROSS_THREAD_FLAGS_DEADTHREAD
0xfffff800026a9910 4c8bdc           MOV R11, RSP
0xfffff800026a9913 49895b10         MOV [R11+0x10], RBX
0xfffff800026a9917 49896b18         MOV [R11+0x18], RBP
0xfffff800026a991b 49897320         MOV [R11+0x20], RSI
0xfffff800026a991f 57               PUSH RDI
0xfffff800026a9920 4154             PUSH R12
0xfffff800026a9922 4155             PUSH R13
0xfffff800026a9924 4156             PUSH R14
0xfffff800026a9926 4157             PUSH R15
------
ETHREAD: 0xfffffa8001fde950 Pid: 604 Tid: 1192
Tags: 
Created: 2019-12-11 14:34:23 UTC+0000
Exited: 1970-01-01 00:00:00 UTC+0000
Owning Process: explorer.exe
Attached Process: explorer.exe
State: Waiting:UserRequest
BasePriority: 0x8
Priority: 0xb
TEB: 0x7fffff88000
StartAddress: 0xfffff8a0000cf3e0 UNKNOWN
Win32Thread: 0xfffff900c23a0c30
CrossThreadFlags: PS_CROSS_THREAD_FLAGS_DEADTHREAD
0xfffff8a0000cf3e0 d0ec             SHR AH, 0x1
0xfffff8a0000cf3e2 fd               STD
0xfffff8a0000cf3e3 0180faffffd0     ADD [RAX-0x2f000006], EAX
0xfffff8a0000cf3e9 ec               IN AL, DX
0xfffff8a0000cf3ea fd               STD
0xfffff8a0000cf3eb 0180fafffff0     ADD [RAX-0xf000006], EAX
0xfffff8a0000cf3f1 f30c00           OR AL, 0x0
0xfffff8a0000cf3f4 a0               DB 0xa0
0xfffff8a0000cf3f5 f8               CLC
0xfffff8a0000cf3f6 ff               DB 0xff
0xfffff8a0000cf3f7 ff               DB 0xff
------
ETHREAD: 0xfffffa8001d9cb60 Pid: 480 Tid: 1724
Tags: 
Created: 2019-12-11 14:16:10 UTC+0000
Exited: 1970-01-01 00:00:00 UTC+0000
Owning Process: SearchIndexer.
Attached Process: SearchIndexer.
State: Waiting:UserRequest
BasePriority: 0x8
Priority: 0x8
TEB: 0x7fffffda000
StartAddress: 0x77cbc500 ntdll.dll
Win32Thread: 0x00000000
CrossThreadFlags: PS_CROSS_THREAD_FLAGS_DEADTHREAD
0x77cbc500 4883ec48         SUB RSP, 0x48
0x77cbc504 4c8bc9           MOV R9, RCX
0x77cbc507 488b0552da1000   MOV RAX, [RIP+0x10da52]
0x77cbc50e 4885c0           TEST RAX, RAX
0x77cbc511 0f84e3840300     JZ 0x77cf49fa
0x77cbc517 4c               DB 0x4c
------
ETHREAD: 0xfffffa8000f7b060 Pid: 2908 Tid: 1080
Tags: 
Created: 2019-12-11 14:37:14 UTC+0000
Exited: 2019-12-11 14:37:14 UTC+0000
Owning Process: taskhost.exe
Attached Process: taskhost.exe
State: Terminated
BasePriority: 0x8
Priority: 0x9
TEB: 0x00000000
StartAddress: 0x77cbc500 ntdll.dll
Win32Thread: 0x00000000
CrossThreadFlags: PS_CROSS_THREAD_FLAGS_DEADTHREAD, PS_CROSS_THREAD_FLAGS_TERMINATED
0x77cbc500 4883ec48         SUB RSP, 0x48
0x77cbc504 4c8bc9           MOV R9, RCX
0x77cbc507 488b0552da1000   MOV RAX, [RIP+0x10da52]
0x77cbc50e 4885c0           TEST RAX, RAX
0x77cbc511 0f84e3840300     JZ 0x77cf49fa
0x77cbc517 4c               DB 0x4c
------
ETHREAD: 0xfffffa8000f53b60 Pid: 2908 Tid: 2924
Tags: 
Created: 2019-12-11 14:37:14 UTC+0000
Exited: 2019-12-11 14:37:14 UTC+0000
Owning Process: taskhost.exe
Attached Process: taskhost.exe
State: Terminated
BasePriority: 0x8
Priority: 0x9
TEB: 0x00000000
StartAddress: 0x77cbc500 ntdll.dll
Win32Thread: 0x00000000
CrossThreadFlags: PS_CROSS_THREAD_FLAGS_DEADTHREAD, PS_CROSS_THREAD_FLAGS_TERMINATED
0x77cbc500 4883ec48         SUB RSP, 0x48
0x77cbc504 4c8bc9           MOV R9, RCX
0x77cbc507 488b0552da1000   MOV RAX, [RIP+0x10da52]
0x77cbc50e 4885c0           TEST RAX, RAX
0x77cbc511 0f84e3840300     JZ 0x77cf49fa
0x77cbc517 4c               DB 0x4c
------
ETHREAD: 0xfffffa8000fb15e0 Pid: 2304 Tid: 2240
Tags: 
Created: 2019-12-11 14:37:14 UTC+0000
Exited: 1970-01-01 00:00:00 UTC+0000
Owning Process: VBoxTray.exe
Attached Process: VBoxTray.exe
State: Waiting:Executive
BasePriority: 0x8
Priority: 0x8
TEB: 0x7fffffac000
StartAddress: 0x77cbc500 ntdll.dll
Win32Thread: 0x00000000
CrossThreadFlags: PS_CROSS_THREAD_FLAGS_DEADTHREAD
0x77cbc500 4883ec48         SUB RSP, 0x48
0x77cbc504 4c8bc9           MOV R9, RCX
0x77cbc507 488b0552da1000   MOV RAX, [RIP+0x10da52]
0x77cbc50e 4885c0           TEST RAX, RAX
0x77cbc511 0f84e3840300     JZ 0x77cf49fa
0x77cbc517 4c               DB 0x4c
------
ETHREAD: 0xfffffa8001ce2060 Pid: 484 Tid: 552
Tags: 
Created: 2019-12-11 13:41:39 UTC+0000
Exited: 2019-12-11 14:15:13 UTC+0000
Owning Process: services.exe
Attached Process: services.exe
State: Terminated
BasePriority: 0x9
Priority: 0x9
TEB: 0x00000000
StartAddress: 0x77cbc500 ntdll.dll
Win32Thread: 0x00000000
CrossThreadFlags: PS_CROSS_THREAD_FLAGS_DEADTHREAD, PS_CROSS_THREAD_FLAGS_TERMINATED
0x77cbc500 4883ec48         SUB RSP, 0x48
0x77cbc504 4c8bc9           MOV R9, RCX
0x77cbc507 488b0552da1000   MOV RAX, [RIP+0x10da52]
0x77cbc50e 4885c0           TEST RAX, RAX
0x77cbc511 0f84e3840300     JZ 0x77cf49fa
0x77cbc517 4c               DB 0x4c
------
ETHREAD: 0xfffffa8001032b60 Pid: 1512 Tid: 1712
Tags: 
Created: 2019-12-11 14:37:24 UTC+0000
Exited: 1970-01-01 00:00:00 UTC+0000
Owning Process: WinRAR.exe
Attached Process: WinRAR.exe
State: Waiting:UserRequest
BasePriority: 0x8
Priority: 0x8
TEB: 0x7fffffd3000
StartAddress: 0x77cbc500 ntdll.dll
Win32Thread: 0x00000000
CrossThreadFlags: PS_CROSS_THREAD_FLAGS_DEADTHREAD
0x77cbc500 4883ec48         SUB RSP, 0x48
0x77cbc504 4c8bc9           MOV R9, RCX
0x77cbc507 488b0552da1000   MOV RAX, [RIP+0x10da52]
0x77cbc50e 4885c0           TEST RAX, RAX
0x77cbc511 0f84e3840300     JZ 0x77cf49fa
0x77cbc517 4c               DB 0x4c
------
ETHREAD: 0xfffffa8000d35b60 Pid: 1856 Tid: 1848
Tags: 
Created: 2019-12-11 14:16:08 UTC+0000
Exited: 1970-01-01 00:00:00 UTC+0000
Owning Process: wmpnetwk.exe
Attached Process: wmpnetwk.exe
State: Waiting:UserRequest
BasePriority: 0x8
Priority: 0x9
TEB: 0x7fffffde000
StartAddress: 0x77cbc500 ntdll.dll
Win32Thread: 0xfffff900c1ac3c30
CrossThreadFlags: PS_CROSS_THREAD_FLAGS_DEADTHREAD
0x77cbc500 4883ec48         SUB RSP, 0x48
0x77cbc504 4c8bc9           MOV R9, RCX
0x77cbc507 488b0552da1000   MOV RAX, [RIP+0x10da52]
0x77cbc50e 4885c0           TEST RAX, RAX
0x77cbc511 0f84e3840300     JZ 0x77cf49fa
0x77cbc517 4c               DB 0x4c
------
ETHREAD: 0xfffffa8001415b60 Pid: 472 Tid: 664
Tags: 
Created: 2019-12-11 14:32:24 UTC+0000
Exited: 2019-12-11 14:35:28 UTC+0000
Owning Process: svchost.exe
Attached Process: svchost.exe
State: Terminated
BasePriority: 0x8
Priority: 0x8
TEB: 0x00000000
StartAddress: 0xfffffa8001415ee0 UNKNOWN
Win32Thread: 0x00000000
CrossThreadFlags: PS_CROSS_THREAD_FLAGS_DEADTHREAD, PS_CROSS_THREAD_FLAGS_TERMINATED
0xfffffa8001415ee0 e05e             LOOPNZ 0xfffffa8001415f40
0xfffffa8001415ee2 410180faffffe0   ADD [R8-0x1f000006], EAX
0xfffffa8001415ee9 5e               POP RSI
0xfffffa8001415eea 410180faffff00   ADD [R8+0xfffffa], EAX
0xfffffa8001415ef1 0000             ADD [RAX], AL
0xfffffa8001415ef3 0000             ADD [RAX], AL
0xfffffa8001415ef5 0000             ADD [RAX], AL
0xfffffa8001415ef7 00               DB 0x0
------
ETHREAD: 0xfffffa8000f76b60 Pid: 2504 Tid: 3060
Tags: 
Created: 2019-12-11 14:37:14 UTC+0000
Exited: 1970-01-01 00:00:00 UTC+0000
Owning Process: explorer.exe
Attached Process: explorer.exe
State: Waiting:WrQueue
BasePriority: 0x8
Priority: 0xa
TEB: 0x7fffffda000
StartAddress: 0x77cbc500 ntdll.dll
Win32Thread: 0xfffff900c223d5e0
CrossThreadFlags: PS_CROSS_THREAD_FLAGS_DEADTHREAD
0x77cbc500 4883ec48         SUB RSP, 0x48
0x77cbc504 4c8bc9           MOV R9, RCX
0x77cbc507 488b0552da1000   MOV RAX, [RIP+0x10da52]
0x77cbc50e 4885c0           TEST RAX, RAX
0x77cbc511 0f84e3840300     JZ 0x77cf49fa
0x77cbc517 4c               DB 0x4c
------
ETHREAD: 0xfffffa8001eb2580 Pid: 1372 Tid: 576
Tags: 
Created: 2019-12-11 14:16:12 UTC+0000
Exited: 2019-12-11 14:17:20 UTC+0000
Owning Process: svchost.exe
Attached Process: svchost.exe
State: Terminated
BasePriority: 0x8
Priority: 0x8
TEB: 0x00000000
StartAddress: 0x77cbc500 ntdll.dll
Win32Thread: 0x00000000
CrossThreadFlags: PS_CROSS_THREAD_FLAGS_DEADTHREAD, PS_CROSS_THREAD_FLAGS_TERMINATED
0x77cbc500 4883ec48         SUB RSP, 0x48
0x77cbc504 4c8bc9           MOV R9, RCX
0x77cbc507 488b0552da1000   MOV RAX, [RIP+0x10da52]
0x77cbc50e 4885c0           TEST RAX, RAX
0x77cbc511 0f84e3840300     JZ 0x77cf49fa
0x77cbc517 4c               DB 0x4c
------
ETHREAD: 0xfffffa8001505060 Pid: 948 Tid: 1116
Tags: 
Created: 2019-12-11 14:16:07 UTC+0000
Exited: 1970-01-01 00:00:00 UTC+0000
Owning Process: svchost.exe
Attached Process: svchost.exe
State: Waiting:WrQueue
BasePriority: 0x8
Priority: 0x9
TEB: 0x7fffffae000
StartAddress: 0xfffff8a001b48090 UNKNOWN
Win32Thread: 0x00000000
CrossThreadFlags: PS_CROSS_THREAD_FLAGS_DEADTHREAD
0xfffff8a001b48090 e053             LOOPNZ 0xfffff8a001b480e5
0xfffff8a001b48092 50               PUSH RAX
0xfffff8a001b48093 0180faffffe0     ADD [RAX-0x1f000006], EAX
0xfffff8a001b48099 5a               POP RDX
0xfffff8a001b4809a be01a0f8ff       MOV ESI, 0xfff8a001
0xfffff8a001b4809f ffa080b401a0     JMP QWORD [RAX-0x5ffe4b80]
0xfffff8a001b480a5 f8               CLC
0xfffff8a001b480a6 ff               DB 0xff
0xfffff8a001b480a7 ff               DB 0xff
------
ETHREAD: 0xfffffa8001c66060 Pid: 424 Tid: 444
Tags: 
Created: 2019-12-11 13:41:34 UTC+0000
Exited: 1970-01-01 00:00:00 UTC+0000
Owning Process: wininit.exe
Attached Process: wininit.exe
State: Waiting:WrQueue
BasePriority: 0xd
Priority: 0xd
TEB: 0x7fffffd9000
StartAddress: 0x77cbc500 ntdll.dll
Win32Thread: 0x00000000
CrossThreadFlags: PS_CROSS_THREAD_FLAGS_DEADTHREAD
0x77cbc500 4883ec48         SUB RSP, 0x48
0x77cbc504 4c8bc9           MOV R9, RCX
0x77cbc507 488b0552da1000   MOV RAX, [RIP+0x10da52]
0x77cbc50e 4885c0           TEST RAX, RAX
0x77cbc511 0f84e3840300     JZ 0x77cf49fa
0x77cbc517 4c               DB 0x4c
------
ETHREAD: 0xfffffa8001343040 Pid: 4 Tid: 200
Tags: 
Created: 2019-12-11 13:41:22 UTC+0000
Exited: 1970-01-01 00:00:00 UTC+0000
Owning Process: System
Attached Process: System
State: Waiting:Executive
BasePriority: 0x8
Priority: 0x8
TEB: 0x00000000
StartAddress: 0xfffff880018dd900 volsnap.sys
Win32Thread: 0x00000000
CrossThreadFlags: PS_CROSS_THREAD_FLAGS_DEADTHREAD
0xfffff880018dd900 48895c2408       MOV [RSP+0x8], RBX
0xfffff880018dd905 48896c2410       MOV [RSP+0x10], RBP
0xfffff880018dd90a 4889742418       MOV [RSP+0x18], RSI
0xfffff880018dd90f 57               PUSH RDI
0xfffff880018dd910 4883ec30         SUB RSP, 0x30
0xfffff880018dd914 488b7928         MOV RDI, [RCX+0x28]
------
ETHREAD: 0xfffffa8001d28060 Pid: 652 Tid: 672
Tags: 
Created: 2019-12-11 13:41:41 UTC+0000
Exited: 1970-01-01 00:00:00 UTC+0000
Owning Process: VBoxService.ex
Attached Process: VBoxService.ex
State: Waiting:UserRequest
BasePriority: 0x8
Priority: 0x8
TEB: 0x7fffffd5000
StartAddress: 0x77cbc500 ntdll.dll
Win32Thread: 0x00000000
CrossThreadFlags: PS_CROSS_THREAD_FLAGS_DEADTHREAD
0x77cbc500 4883ec48         SUB RSP, 0x48
0x77cbc504 4c8bc9           MOV R9, RCX
0x77cbc507 488b0552da1000   MOV RAX, [RIP+0x10da52]
0x77cbc50e 4885c0           TEST RAX, RAX
0x77cbc511 0f84e3840300     JZ 0x77cf49fa
0x77cbc517 4c               DB 0x4c
------
ETHREAD: 0xfffffa8000cb9b60 Pid: 4 Tid: 52
Tags: 
Created: 2019-12-11 13:41:22 UTC+0000
Exited: 1970-01-01 00:00:00 UTC+0000
Owning Process: System
Attached Process: System
State: Waiting:WrQueue
BasePriority: 0xc
Priority: 0xc
TEB: 0x00000000
StartAddress: 0xfffff800026a9910 ntoskrnl.exe
Win32Thread: 0x00000000
CrossThreadFlags: PS_CROSS_THREAD_FLAGS_DEADTHREAD
0xfffff800026a9910 4c8bdc           MOV R11, RSP
0xfffff800026a9913 49895b10         MOV [R11+0x10], RBX
0xfffff800026a9917 49896b18         MOV [R11+0x18], RBP
0xfffff800026a991b 49897320         MOV [R11+0x20], RSI
0xfffff800026a991f 57               PUSH RDI
0xfffff800026a9920 4154             PUSH R12
0xfffff800026a9922 4155             PUSH R13
0xfffff800026a9924 4156             PUSH R14
0xfffff800026a9926 4157             PUSH R15
------
ETHREAD: 0xfffffa8001e89060 Pid: 876 Tid: 1120
Tags: 
Created: 2019-12-11 13:41:48 UTC+0000
Exited: 1970-01-01 00:00:00 UTC+0000
Owning Process: svchost.exe
Attached Process: svchost.exe
State: Waiting:UserRequest
BasePriority: 0x8
Priority: 0x9
TEB: 0x7fffffa4000
StartAddress: 0xfffff8a0017ec320 UNKNOWN
Win32Thread: 0xfffff900c1ab3c30
CrossThreadFlags: PS_CROSS_THREAD_FLAGS_DEADTHREAD
0xfffff8a0017ec320 e093             LOOPNZ 0xfffff8a0017ec2b5
0xfffff8a0017ec322 e80180faff       CALL 0xfffff8a001794328
0xfffff8a0017ec327 ffe0             JMP RAX
0xfffff8a0017ec329 93               XCHG EBX, EAX
0xfffff8a0017ec32a e80180faff       CALL 0xfffff8a001794330
0xfffff8a0017ec32f ff30             PUSH QWORD [RAX]
0xfffff8a0017ec331 c3               RET
0xfffff8a0017ec332 7e01             JLE 0xfffff8a0017ec335
0xfffff8a0017ec334 a0               DB 0xa0
0xfffff8a0017ec335 f8               CLC
0xfffff8a0017ec336 ff               DB 0xff
0xfffff8a0017ec337 ff               DB 0xff
------
ETHREAD: 0xfffffa80021ea060 Pid: 876 Tid: 2140
Tags: Impersonation
Created: 2019-12-11 14:32:37 UTC+0000
Exited: 1970-01-01 00:00:00 UTC+0000
Owning Process: svchost.exe
Attached Process: svchost.exe
State: Waiting:DelayExecution
BasePriority: 0x8
Priority: 0x1b
TEB: 0x7fffff98000
StartAddress: 0x77cbc500 ntdll.dll
Win32Thread: 0x00000000
CrossThreadFlags: PS_CROSS_THREAD_FLAGS_DEADTHREAD, PS_CROSS_THREAD_FLAGS_IMPERSONATING
0x77cbc500 4883ec48         SUB RSP, 0x48
0x77cbc504 4c8bc9           MOV R9, RCX
0x77cbc507 488b0552da1000   MOV RAX, [RIP+0x10da52]
0x77cbc50e 4885c0           TEST RAX, RAX
0x77cbc511 0f84e3840300     JZ 0x77cf49fa
0x77cbc517 4c               DB 0x4c
------
ETHREAD: 0xfffffa8001dbcb60 Pid: 816 Tid: 1384
Tags: 
Created: 2019-12-11 14:16:10 UTC+0000
Exited: 1970-01-01 00:00:00 UTC+0000
Owning Process: svchost.exe
Attached Process: svchost.exe
State: Waiting:UserRequest
BasePriority: 0x8
Priority: 0xa
TEB: 0x7fffff94000
StartAddress: 0xfffff8a001b9c500 UNKNOWN
Win32Thread: 0x00000000
CrossThreadFlags: PS_CROSS_THREAD_FLAGS_DEADTHREAD
0xfffff8a001b9c500 e0ce             LOOPNZ 0xfffff8a001b9c4d0
0xfffff8a001b9c502 db01             FILD DWORD [RCX]
0xfffff8a001b9c504 80faff           CMP DL, 0xff
0xfffff8a001b9c507 ff5027           CALL QWORD [RAX+0x27]
0xfffff8a001b9c50a b701             MOV BH, 0x1
0xfffff8a001b9c50c a0f8ffff10c5b901a0 MOV AL, [0xa001b9c510fffff8]
0xfffff8a001b9c515 f8               CLC
0xfffff8a001b9c516 ff               DB 0xff
0xfffff8a001b9c517 ff               DB 0xff
------
ETHREAD: 0xfffffa8001d4b060 Pid: 2760 Tid: 2812
Tags: 
Created: 2019-12-11 14:37:05 UTC+0000
Exited: 1970-01-01 00:00:00 UTC+0000
Owning Process: csrss.exe
Attached Process: csrss.exe
State: Waiting:WrLpcReceive
BasePriority: 0xd
Priority: 0xe
TEB: 0x7fffffd4000
StartAddress: 0x77cbc500 ntdll.dll
Win32Thread: 0x00000000
CrossThreadFlags: PS_CROSS_THREAD_FLAGS_DEADTHREAD
0x77cbc500 4883ec48         SUB RSP, 0x48
0x77cbc504 4c8bc9           MOV R9, RCX
0x77cbc507 488b0552da1000   MOV RAX, [RIP+0x10da52]
0x77cbc50e 4885c0           TEST RAX, RAX
0x77cbc511 0f84e3840300     JZ 0x77cf49fa
0x77cbc517 4c               DB 0x4c
------
ETHREAD: 0xfffffa8001064aa0 Pid: 3004 Tid: 2736
Tags: 
Created: 2019-12-11 14:37:44 UTC+0000
Exited: 1970-01-01 00:00:00 UTC+0000
Owning Process: dwm.exe
Attached Process: dwm.exe
State: Waiting:WrQueue
BasePriority: 0x8
Priority: 0x8
TEB: 0x7fffffd4000
StartAddress: 0x77cbc500 ntdll.dll
Win32Thread: 0x00000000
CrossThreadFlags: PS_CROSS_THREAD_FLAGS_DEADTHREAD
0x77cbc500 4883ec48         SUB RSP, 0x48
0x77cbc504 4c8bc9           MOV R9, RCX
0x77cbc507 488b0552da1000   MOV RAX, [RIP+0x10da52]
0x77cbc50e 4885c0           TEST RAX, RAX
0x77cbc511 0f84e3840300     JZ 0x77cf49fa
0x77cbc517 4c               DB 0x4c
------
ETHREAD: 0xfffffa8000eac060 Pid: 2424 Tid: 2656
Tags: 
Created: 2019-12-11 14:35:14 UTC+0000
Exited: 1970-01-01 00:00:00 UTC+0000
Owning Process: mspaint.exe
Attached Process: mspaint.exe
State: Waiting:DelayExecution
BasePriority: 0x8
Priority: 0xa
TEB: 0x7fffffd3000
StartAddress: 0x77cbc500 ntdll.dll
Win32Thread: 0x00000000
CrossThreadFlags: PS_CROSS_THREAD_FLAGS_DEADTHREAD
0x77cbc500 4883ec48         SUB RSP, 0x48
0x77cbc504 4c8bc9           MOV R9, RCX
0x77cbc507 488b0552da1000   MOV RAX, [RIP+0x10da52]
0x77cbc50e 4885c0           TEST RAX, RAX
0x77cbc511 0f84e3840300     JZ 0x77cf49fa
0x77cbc517 4c               DB 0x4c
------
ETHREAD: 0xfffffa800107eb60 Pid: 604 Tid: 2688
Tags: 
Created: 2019-12-11 14:37:42 UTC+0000
Exited: 1970-01-01 00:00:00 UTC+0000
Owning Process: explorer.exe
Attached Process: explorer.exe
State: Waiting:WrQueue
BasePriority: 0x8
Priority: 0xb
TEB: 0x7fffff8a000
StartAddress: 0x77cbc500 ntdll.dll
Win32Thread: 0xfffff900c019a010
CrossThreadFlags: PS_CROSS_THREAD_FLAGS_DEADTHREAD
0x77cbc500 4883ec48         SUB RSP, 0x48
0x77cbc504 4c8bc9           MOV R9, RCX
0x77cbc507 488b0552da1000   MOV RAX, [RIP+0x10da52]
0x77cbc50e 4885c0           TEST RAX, RAX
0x77cbc511 0f84e3840300     JZ 0x77cf49fa
0x77cbc517 4c               DB 0x4c
------
ETHREAD: 0xfffffa8001ba7b60 Pid: 368 Tid: 384
Tags: 
Created: 2019-12-11 13:41:33 UTC+0000
Exited: 1970-01-01 00:00:00 UTC+0000
Owning Process: csrss.exe
Attached Process: csrss.exe
State: Waiting:WrLpcReply
BasePriority: 0xf
Priority: 0xf
TEB: 0x7fffffdc000
StartAddress: 0x77cbc500 ntdll.dll
Win32Thread: 0xfffff900c01fe4b0
CrossThreadFlags: PS_CROSS_THREAD_FLAGS_DEADTHREAD
0x77cbc500 4883ec48         SUB RSP, 0x48
0x77cbc504 4c8bc9           MOV R9, RCX
0x77cbc507 488b0552da1000   MOV RAX, [RIP+0x10da52]
0x77cbc50e 4885c0           TEST RAX, RAX
0x77cbc511 0f84e3840300     JZ 0x77cf49fa
0x77cbc517 4c               DB 0x4c
------
ETHREAD: 0xfffffa800220d060 Pid: 472 Tid: 2316
Tags: 
Created: 2019-12-11 14:32:50 UTC+0000
Exited: 1970-01-01 00:00:00 UTC+0000
Owning Process: svchost.exe
Attached Process: svchost.exe
State: Waiting:UserRequest
BasePriority: 0x8
Priority: 0x9
TEB: 0x7fffff9a000
StartAddress: 0x77cbc500 ntdll.dll
Win32Thread: 0x00000000
CrossThreadFlags: PS_CROSS_THREAD_FLAGS_DEADTHREAD
0x77cbc500 4883ec48         SUB RSP, 0x48
0x77cbc504 4c8bc9           MOV R9, RCX
0x77cbc507 488b0552da1000   MOV RAX, [RIP+0x10da52]
0x77cbc50e 4885c0           TEST RAX, RAX
0x77cbc511 0f84e3840300     JZ 0x77cf49fa
0x77cbc517 4c               DB 0x4c
------
ETHREAD: 0xfffffa80021dfb60 Pid: 2064 Tid: 2104
Tags: 
Created: 2019-12-11 14:32:37 UTC+0000
Exited: 1970-01-01 00:00:00 UTC+0000
Owning Process: audiodg.exe
Attached Process: audiodg.exe
State: Waiting:DelayExecution
BasePriority: 0x8
Priority: 0x9
TEB: 0x7fffffae000
StartAddress: 0x77cbc500 ntdll.dll
Win32Thread: 0x00000000
CrossThreadFlags: PS_CROSS_THREAD_FLAGS_DEADTHREAD
0x77cbc500 4883ec48         SUB RSP, 0x48
0x77cbc504 4c8bc9           MOV R9, RCX
0x77cbc507 488b0552da1000   MOV RAX, [RIP+0x10da52]
0x77cbc50e 4885c0           TEST RAX, RAX
0x77cbc511 0f84e3840300     JZ 0x77cf49fa
0x77cbc517 4c               DB 0x4c
------
ETHREAD: 0xfffffa8001d6e060 Pid: 604 Tid: 2236
Tags: 
Created: 2019-12-11 14:32:43 UTC+0000
Exited: 1970-01-01 00:00:00 UTC+0000
Owning Process: explorer.exe
Attached Process: explorer.exe
State: Waiting:UserRequest
BasePriority: 0x8
Priority: 0xb
TEB: 0x7fffff90000
StartAddress: 0x77cbc500 ntdll.dll
Win32Thread: 0xfffff900c1f0a440
CrossThreadFlags: PS_CROSS_THREAD_FLAGS_DEADTHREAD
0x77cbc500 4883ec48         SUB RSP, 0x48
0x77cbc504 4c8bc9           MOV R9, RCX
0x77cbc507 488b0552da1000   MOV RAX, [RIP+0x10da52]
0x77cbc50e 4885c0           TEST RAX, RAX
0x77cbc511 0f84e3840300     JZ 0x77cf49fa
0x77cbc517 4c               DB 0x4c
------
ETHREAD: 0xfffffa8000f4f850 Pid: 2908 Tid: 2000
Tags: 
Created: 2019-12-11 14:37:14 UTC+0000
Exited: 1970-01-01 00:00:00 UTC+0000
Owning Process: taskhost.exe
Attached Process: taskhost.exe
State: Waiting:WrQueue
BasePriority: 0x8
Priority: 0x8
TEB: 0x7fffffd7000
StartAddress: 0x77cbc500 ntdll.dll
Win32Thread: 0x00000000
CrossThreadFlags: PS_CROSS_THREAD_FLAGS_DEADTHREAD
0x77cbc500 4883ec48         SUB RSP, 0x48
0x77cbc504 4c8bc9           MOV R9, RCX
0x77cbc507 488b0552da1000   MOV RAX, [RIP+0x10da52]
0x77cbc50e 4885c0           TEST RAX, RAX
0x77cbc511 0f84e3840300     JZ 0x77cf49fa
0x77cbc517 4c               DB 0x4c
------
ETHREAD: 0xfffffa8002194060 Pid: 604 Tid: 332
Tags: 
Created: 2019-12-11 14:32:26 UTC+0000
Exited: 1970-01-01 00:00:00 UTC+0000
Owning Process: explorer.exe
Attached Process: explorer.exe
State: Waiting:UserRequest
BasePriority: 0x8
Priority: 0xc
TEB: 0x7fffffdc000
StartAddress: 0x77cbc500 ntdll.dll
Win32Thread: 0x00000000
CrossThreadFlags: PS_CROSS_THREAD_FLAGS_DEADTHREAD
0x77cbc500 4883ec48         SUB RSP, 0x48
0x77cbc504 4c8bc9           MOV R9, RCX
0x77cbc507 488b0552da1000   MOV RAX, [RIP+0x10da52]
0x77cbc50e 4885c0           TEST RAX, RAX
0x77cbc511 0f84e3840300     JZ 0x77cf49fa
0x77cbc517 4c               DB 0x4c
------
ETHREAD: 0xfffffa8000fb0890 Pid: 2304 Tid: 2232
Tags: 
Created: 2019-12-11 14:37:14 UTC+0000
Exited: 1970-01-01 00:00:00 UTC+0000
Owning Process: VBoxTray.exe
Attached Process: VBoxTray.exe
State: Waiting:Executive
BasePriority: 0x8
Priority: 0x8
TEB: 0x7fffffd6000
StartAddress: 0x77cbc500 ntdll.dll
Win32Thread: 0xfffff900c2283280
CrossThreadFlags: PS_CROSS_THREAD_FLAGS_DEADTHREAD
0x77cbc500 4883ec48         SUB RSP, 0x48
0x77cbc504 4c8bc9           MOV R9, RCX
0x77cbc507 488b0552da1000   MOV RAX, [RIP+0x10da52]
0x77cbc50e 4885c0           TEST RAX, RAX
0x77cbc511 0f84e3840300     JZ 0x77cf49fa
0x77cbc517 4c               DB 0x4c
------
ETHREAD: 0xfffffa8001030060 Pid: 1512 Tid: 2492
Tags: 
Created: 2019-12-11 14:37:23 UTC+0000
Exited: 1970-01-01 00:00:00 UTC+0000
Owning Process: WinRAR.exe
Attached Process: WinRAR.exe
State: Waiting:WrQueue
BasePriority: 0x8
Priority: 0x9
TEB: 0x7fffffdb000
StartAddress: 0x77cbc500 ntdll.dll
Win32Thread: 0x00000000
CrossThreadFlags: PS_CROSS_THREAD_FLAGS_DEADTHREAD
0x77cbc500 4883ec48         SUB RSP, 0x48
0x77cbc504 4c8bc9           MOV R9, RCX
0x77cbc507 488b0552da1000   MOV RAX, [RIP+0x10da52]
0x77cbc50e 4885c0           TEST RAX, RAX
0x77cbc511 0f84e3840300     JZ 0x77cf49fa
0x77cbc517 4c               DB 0x4c
------
ETHREAD: 0xfffffa8001d91060 Pid: 816 Tid: 836
Tags: 
Created: 2019-12-11 13:41:42 UTC+0000
Exited: 2019-12-11 13:41:44 UTC+0000
Owning Process: svchost.exe
Attached Process: svchost.exe
State: Terminated
BasePriority: 0x8
Priority: 0x8
TEB: 0x00000000
StartAddress: 0xfffffa8001d913e0 UNKNOWN
Win32Thread: 0x00000000
CrossThreadFlags: PS_CROSS_THREAD_FLAGS_DEADTHREAD, PS_CROSS_THREAD_FLAGS_TERMINATED
0xfffffa8001d913e0 e013             LOOPNZ 0xfffffa8001d913f5
0xfffffa8001d913e2 d901             FLD DWORD [RCX]
0xfffffa8001d913e4 80faff           CMP DL, 0xff
0xfffffa8001d913e7 ffe0             JMP RAX
0xfffffa8001d913e9 13d9             ADC EBX, ECX
0xfffffa8001d913eb 0180faffff00     ADD [RAX+0xfffffa], EAX
0xfffffa8001d913f1 0000             ADD [RAX], AL
0xfffffa8001d913f3 0000             ADD [RAX], AL
0xfffffa8001d913f5 0000             ADD [RAX], AL
0xfffffa8001d913f7 00               DB 0x0
------
ETHREAD: 0xfffffa8001ed95c0 Pid: 1208 Tid: 1244
Tags: 
Created: 2019-12-11 13:41:52 UTC+0000
Exited: 1970-01-01 00:00:00 UTC+0000
Owning Process: spoolsv.exe
Attached Process: spoolsv.exe
State: Waiting:UserRequest
BasePriority: 0x8
Priority: 0x9
TEB: 0x7fffffae000
StartAddress: 0xfffff8a0019d8c20 UNKNOWN
Win32Thread: 0xfffff900c1ab0c30
CrossThreadFlags: PS_CROSS_THREAD_FLAGS_DEADTHREAD
0xfffff8a0019d8c20 4099             CDQ
0xfffff8a0019d8c22 ed               IN EAX, DX
0xfffff8a0019d8c23 0180faffff90     ADD [RAX-0x6f000006], EAX
0xfffff8a0019d8c29 ed               IN EAX, DX
0xfffff8a0019d8c2a 93               XCHG EBX, EAX
0xfffff8a0019d8c2b 01a0f8ffff30     ADD [RAX+0x30fffff8], ESP
0xfffff8a0019d8c31 8c9d01a0f8ff     MOV [RBP-0x75fff], DS
0xfffff8a0019d8c37 ff               DB 0xff
------
ETHREAD: 0xfffffa8001cf2060 Pid: 1372 Tid: 536
Tags: 
Created: 2019-12-11 14:16:09 UTC+0000
Exited: 1970-01-01 00:00:00 UTC+0000
Owning Process: svchost.exe
Attached Process: svchost.exe
State: Waiting:UserRequest
BasePriority: 0x8
Priority: 0x8
TEB: 0x7fffffa2000
StartAddress: 0x77cbc500 ntdll.dll
Win32Thread: 0x00000000
CrossThreadFlags: PS_CROSS_THREAD_FLAGS_DEADTHREAD
0x77cbc500 4883ec48         SUB RSP, 0x48
0x77cbc504 4c8bc9           MOV R9, RCX
0x77cbc507 488b0552da1000   MOV RAX, [RIP+0x10da52]
0x77cbc50e 4885c0           TEST RAX, RAX
0x77cbc511 0f84e3840300     JZ 0x77cf49fa
0x77cbc517 4c               DB 0x4c
------
ETHREAD: 0xfffffa8001dc6b60 Pid: 376 Tid: 940
Tags: 
Created: 2019-12-11 13:41:43 UTC+0000
Exited: 1970-01-01 00:00:00 UTC+0000
Owning Process: psxss.exe
Attached Process: psxss.exe
State: Waiting:UserRequest
BasePriority: 0xd
Priority: 0xd
TEB: 0x7fffffae000
StartAddress: 0xfffff8a0016d0a20 UNKNOWN
Win32Thread: 0x00000000
CrossThreadFlags: PS_CROSS_THREAD_FLAGS_DEADTHREAD
0xfffff8a0016d0a20 e06e             LOOPNZ 0xfffff8a0016d0a90
0xfffff8a0016d0a22 dc01             FADD QWORD [RCX]
0xfffff8a0016d0a24 80faff           CMP DL, 0xff
0xfffff8a0016d0a27 ffe0             JMP RAX
0xfffff8a0016d0a29 6e               OUTS DX, BYTE [RSI]
0xfffff8a0016d0a2a dc01             FADD QWORD [RCX]
0xfffff8a0016d0a2c 80faff           CMP DL, 0xff
0xfffff8a0016d0a2f ff30             PUSH QWORD [RAX]
0xfffff8a0016d0a31 0a6d01           OR CH, [RBP+0x1]
0xfffff8a0016d0a34 a0               DB 0xa0
0xfffff8a0016d0a35 f8               CLC
0xfffff8a0016d0a36 ff               DB 0xff
0xfffff8a0016d0a37 ff               DB 0xff
------
ETHREAD: 0xfffffa8001c53060 Pid: 320 Tid: 404
Tags: 
Created: 2019-12-11 13:41:33 UTC+0000
Exited: 1970-01-01 00:00:00 UTC+0000
Owning Process: csrss.exe
Attached Process: csrss.exe
State: Waiting:WrLpcReceive
BasePriority: 0xd
Priority: 0xe
TEB: 0x7fffffde000
StartAddress: 0x77cbc500 ntdll.dll
Win32Thread: 0xfffff900c01c3c30
CrossThreadFlags: PS_CROSS_THREAD_FLAGS_DEADTHREAD
0x77cbc500 4883ec48         SUB RSP, 0x48
0x77cbc504 4c8bc9           MOV R9, RCX
0x77cbc507 488b0552da1000   MOV RAX, [RIP+0x10da52]
0x77cbc50e 4885c0           TEST RAX, RAX
0x77cbc511 0f84e3840300     JZ 0x77cf49fa
0x77cbc517 4c               DB 0x4c
------
ETHREAD: 0xfffffa8000fb4060 Pid: 2304 Tid: 2772
Tags: 
Created: 2019-12-11 14:37:14 UTC+0000
Exited: 1970-01-01 00:00:00 UTC+0000
Owning Process: VBoxTray.exe
Attached Process: VBoxTray.exe
State: Waiting:WrUserRequest
BasePriority: 0x9
Priority: 0xb
TEB: 0x7fffffa6000
StartAddress: 0x77cbc500 ntdll.dll
Win32Thread: 0xfffff900c2285850
CrossThreadFlags: PS_CROSS_THREAD_FLAGS_DEADTHREAD
0x77cbc500 4883ec48         SUB RSP, 0x48
0x77cbc504 4c8bc9           MOV R9, RCX
0x77cbc507 488b0552da1000   MOV RAX, [RIP+0x10da52]
0x77cbc50e 4885c0           TEST RAX, RAX
0x77cbc511 0f84e3840300     JZ 0x77cf49fa
0x77cbc517 4c               DB 0x4c
------
ETHREAD: 0xfffffa8002208940 Pid: 852 Tid: 2308
Tags: 
Created: 2019-12-11 14:32:50 UTC+0000
Exited: 2019-12-11 14:37:50 UTC+0000
Owning Process: svchost.exe
Attached Process: svchost.exe
State: Terminated
BasePriority: 0x8
Priority: 0x8
TEB: 0x00000000
StartAddress: 0x77cbc500 ntdll.dll
Win32Thread: 0x00000000
CrossThreadFlags: PS_CROSS_THREAD_FLAGS_DEADTHREAD, PS_CROSS_THREAD_FLAGS_TERMINATED
0x77cbc500 4883ec48         SUB RSP, 0x48
0x77cbc504 4c8bc9           MOV R9, RCX
0x77cbc507 488b0552da1000   MOV RAX, [RIP+0x10da52]
0x77cbc50e 4885c0           TEST RAX, RAX
0x77cbc511 0f84e3840300     JZ 0x77cf49fa
0x77cbc517 4c               DB 0x4c
------
ETHREAD: 0xfffffa8000ceeae0 Pid: 4 Tid: 152
Tags: 
Created: 2019-12-11 13:41:22 UTC+0000
Exited: 1970-01-01 00:00:00 UTC+0000
Owning Process: System
Attached Process: System
State: Waiting:Executive
BasePriority: 0x8
Priority: 0x8
TEB: 0x00000000
StartAddress: 0xfffff88000e1af7c ACPI.sys
Win32Thread: 0x00000000
CrossThreadFlags: PS_CROSS_THREAD_FLAGS_DEADTHREAD
0xfffff88000e1af7c 4c8bdc           MOV R11, RSP
0xfffff88000e1af7f 49895b08         MOV [R11+0x8], RBX
0xfffff88000e1af83 49896b10         MOV [R11+0x10], RBP
0xfffff88000e1af87 49897b18         MOV [R11+0x18], RDI
0xfffff88000e1af8b 4154             PUSH R12
0xfffff88000e1af8d 4883ec50         SUB RSP, 0x50
0xfffff88000e1af91 65               DB 0x65
0xfffff88000e1af92 48               DB 0x48
0xfffff88000e1af93 8b               DB 0x8b
------
ETHREAD: 0xfffffa8001e76060 Pid: 876 Tid: 284
Tags: 
Created: 2019-12-11 14:32:17 UTC+0000
Exited: 1970-01-01 00:00:00 UTC+0000
Owning Process: svchost.exe
Attached Process: svchost.exe
State: Waiting:UserRequest
BasePriority: 0x8
Priority: 0x9
TEB: 0x7fffffd7000
StartAddress: 0x77cbc500 ntdll.dll
Win32Thread: 0x00000000
CrossThreadFlags: PS_CROSS_THREAD_FLAGS_DEADTHREAD
0x77cbc500 4883ec48         SUB RSP, 0x48
0x77cbc504 4c8bc9           MOV R9, RCX
0x77cbc507 488b0552da1000   MOV RAX, [RIP+0x10da52]
0x77cbc50e 4885c0           TEST RAX, RAX
0x77cbc511 0f84e3840300     JZ 0x77cf49fa
0x77cbc517 4c               DB 0x4c
------
ETHREAD: 0xfffffa8001c48b60 Pid: 368 Tid: 392
Tags: 
Created: 2019-12-11 13:41:33 UTC+0000
Exited: 1970-01-01 00:00:00 UTC+0000
Owning Process: csrss.exe
Attached Process: csrss.exe
State: Waiting:WrLpcReceive
BasePriority: 0xd
Priority: 0xe
TEB: 0x7fffffd8000
StartAddress: 0x77cbc500 ntdll.dll
Win32Thread: 0xfffff900c00c6610
CrossThreadFlags: PS_CROSS_THREAD_FLAGS_DEADTHREAD
0x77cbc500 4883ec48         SUB RSP, 0x48
0x77cbc504 4c8bc9           MOV R9, RCX
0x77cbc507 488b0552da1000   MOV RAX, [RIP+0x10da52]
0x77cbc50e 4885c0           TEST RAX, RAX
0x77cbc511 0f84e3840300     JZ 0x77cf49fa
0x77cbc517 4c               DB 0x4c
------
ETHREAD: 0xfffffa8001dec060 Pid: 376 Tid: 1000
Tags: 
Created: 2019-12-11 13:41:45 UTC+0000
Exited: 1970-01-01 00:00:00 UTC+0000
Owning Process: psxss.exe
Attached Process: psxss.exe
State: Waiting:WrLpcReceive
BasePriority: 0xd
Priority: 0xd
TEB: 0x7fffffa6000
StartAddress: 0x77cbc500 ntdll.dll
Win32Thread: 0x00000000
CrossThreadFlags: PS_CROSS_THREAD_FLAGS_DEADTHREAD
0x77cbc500 4883ec48         SUB RSP, 0x48
0x77cbc504 4c8bc9           MOV R9, RCX
0x77cbc507 488b0552da1000   MOV RAX, [RIP+0x10da52]
0x77cbc50e 4885c0           TEST RAX, RAX
0x77cbc511 0f84e3840300     JZ 0x77cf49fa
0x77cbc517 4c               DB 0x4c
------
ETHREAD: 0xfffffa80021a9b60 Pid: 604 Tid: 1948
Tags: 
Created: 2019-12-11 14:32:29 UTC+0000
Exited: 1970-01-01 00:00:00 UTC+0000
Owning Process: explorer.exe
Attached Process: explorer.exe
State: Waiting:DelayExecution
BasePriority: 0x8
Priority: 0xa
TEB: 0x7fffffd5000
StartAddress: 0x77cbc500 ntdll.dll
Win32Thread: 0x00000000
CrossThreadFlags: PS_CROSS_THREAD_FLAGS_DEADTHREAD
0x77cbc500 4883ec48         SUB RSP, 0x48
0x77cbc504 4c8bc9           MOV R9, RCX
0x77cbc507 488b0552da1000   MOV RAX, [RIP+0x10da52]
0x77cbc50e 4885c0           TEST RAX, RAX
0x77cbc511 0f84e3840300     JZ 0x77cf49fa
0x77cbc517 4c               DB 0x4c
------
ETHREAD: 0xfffffa8001cea4f0 Pid: 1248 Tid: 2480
Tags: 
Created: 2019-12-11 14:36:43 UTC+0000
Exited: 1970-01-01 00:00:00 UTC+0000
Owning Process: svchost.exe
Attached Process: svchost.exe
State: Waiting:WrQueue
BasePriority: 0x8
Priority: 0x9
TEB: 0x7fffffda000
StartAddress: 0xfffff8a002275490 UNKNOWN
Win32Thread: 0x00000000
CrossThreadFlags: PS_CROSS_THREAD_FLAGS_DEADTHREAD
0xfffff8a002275490 70a8             JO 0xfffff8a00227543a
0xfffff8a002275492 ce               DB 0xce
0xfffff8a002275493 0180faffff70     ADD [RAX+0x70fffffa], EAX
0xfffff8a002275499 a8ce             TEST AL, 0xce
0xfffff8a00227549b 0180faffffa0     ADD [RAX-0x5f000006], EAX
0xfffff8a0022754a1 54               PUSH RSP
0xfffff8a0022754a2 27               DB 0x27
0xfffff8a0022754a3 02               DB 0x2
0xfffff8a0022754a4 a0               DB 0xa0
0xfffff8a0022754a5 f8               CLC
0xfffff8a0022754a6 ff               DB 0xff
0xfffff8a0022754a7 ff               DB 0xff
------
ETHREAD: 0xfffffa8001ffa950 Pid: 1248 Tid: 1164
Tags: 
Created: 2019-12-11 14:24:03 UTC+0000
Exited: 1970-01-01 00:00:00 UTC+0000
Owning Process: svchost.exe
Attached Process: svchost.exe
State: Waiting:UserRequest
BasePriority: 0x8
Priority: 0x9
TEB: 0x7fffffa8000
StartAddress: 0x77cbc500 ntdll.dll
Win32Thread: 0x00000000
CrossThreadFlags: PS_CROSS_THREAD_FLAGS_DEADTHREAD
0x77cbc500 4883ec48         SUB RSP, 0x48
0x77cbc504 4c8bc9           MOV R9, RCX
0x77cbc507 488b0552da1000   MOV RAX, [RIP+0x10da52]
0x77cbc50e 4885c0           TEST RAX, RAX
0x77cbc511 0f84e3840300     JZ 0x77cf49fa
0x77cbc517 4c               DB 0x4c
------
ETHREAD: 0x3fa99060 Pid: 2504 Tid: 2744
Tags: ScannerOnly
Created: 2019-12-11 14:37:22 UTC+0000
Exited: 1970-01-01 00:00:00 UTC+0000
Owning Process: explorer.exe
Attached Process: explorer.exe
State: Waiting:WrUserRequest
BasePriority: 0xa
Priority: 0xd
TEB: 0x7fffff76000
StartAddress: 0x77cbc500 ntdll.dll
Win32Thread: 0xfffff900c1abe5e0
CrossThreadFlags: PS_CROSS_THREAD_FLAGS_DEADTHREAD
0x77cbc500 4883ec48         SUB RSP, 0x48
0x77cbc504 4c8bc9           MOV R9, RCX
0x77cbc507 488b0552da1000   MOV RAX, [RIP+0x10da52]
0x77cbc50e 4885c0           TEST RAX, RAX
0x77cbc511 0f84e3840300     JZ 0x77cf49fa
0x77cbc517 4c               DB 0x4c
------
ETHREAD: 0xfffffa80020299c0 Pid: 4 Tid: 1548
Tags: 
Created: 2019-12-11 13:41:58 UTC+0000
Exited: 1970-01-01 00:00:00 UTC+0000
Owning Process: System
Attached Process: System
State: Waiting:WrQueue
BasePriority: 0x8
Priority: 0x8
TEB: 0x00000000
StartAddress: 0xfffff880029910e0 srv2.sys
Win32Thread: 0x00000000
CrossThreadFlags: PS_CROSS_THREAD_FLAGS_DEADTHREAD
0xfffff880029910e0 48895c2410       MOV [RSP+0x10], RBX
0xfffff880029910e5 48896c2418       MOV [RSP+0x18], RBP
0xfffff880029910ea 4889742420       MOV [RSP+0x20], RSI
0xfffff880029910ef 57               PUSH RDI
0xfffff880029910f0 4154             PUSH R12
0xfffff880029910f2 4155             PUSH R13
0xfffff880029910f4 4156             PUSH R14
0xfffff880029910f6 4157             PUSH R15
------
ETHREAD: 0xfffffa8000ffa060 Pid: 2064 Tid: 1304
Tags: 
Created: 2019-12-11 14:37:14 UTC+0000
Exited: 1970-01-01 00:00:00 UTC+0000
Owning Process: audiodg.exe
Attached Process: audiodg.exe
State: Waiting:WrQueue
BasePriority: 0x8
Priority: 0x8
TEB: 0x7fffffdc000
StartAddress: 0x77cbc500 ntdll.dll
Win32Thread: 0xfffff900c1ac5010
CrossThreadFlags: PS_CROSS_THREAD_FLAGS_DEADTHREAD
0x77cbc500 4883ec48         SUB RSP, 0x48
0x77cbc504 4c8bc9           MOV R9, RCX
0x77cbc507 488b0552da1000   MOV RAX, [RIP+0x10da52]
0x77cbc50e 4885c0           TEST RAX, RAX
0x77cbc511 0f84e3840300     JZ 0x77cf49fa
0x77cbc517 4c               DB 0x4c
------
ETHREAD: 0xfffffa8001d4ba40 Pid: 720 Tid: 752
Tags: 
Created: 2019-12-11 13:41:41 UTC+0000
Exited: 1970-01-01 00:00:00 UTC+0000
Owning Process: svchost.exe
Attached Process: svchost.exe
State: Waiting:WrQueue
BasePriority: 0x8
Priority: 0xa
TEB: 0x7fffffae000
StartAddress: 0x77cbc500 ntdll.dll
Win32Thread: 0x00000000
CrossThreadFlags: PS_CROSS_THREAD_FLAGS_DEADTHREAD
0x77cbc500 4883ec48         SUB RSP, 0x48
0x77cbc504 4c8bc9           MOV R9, RCX
0x77cbc507 488b0552da1000   MOV RAX, [RIP+0x10da52]
0x77cbc50e 4885c0           TEST RAX, RAX
0x77cbc511 0f84e3840300     JZ 0x77cf49fa
0x77cbc517 4c               DB 0x4c
------
ETHREAD: 0xfffffa8001de4260 Pid: 852 Tid: 980
Tags: 
Created: 2019-12-11 13:41:45 UTC+0000
Exited: 1970-01-01 00:00:00 UTC+0000
Owning Process: svchost.exe
Attached Process: svchost.exe
State: Waiting:WrQueue
BasePriority: 0x8
Priority: 0x8
TEB: 0x7fffffa8000
StartAddress: 0x77cbc500 ntdll.dll
Win32Thread: 0x00000000
CrossThreadFlags: PS_CROSS_THREAD_FLAGS_DEADTHREAD
0x77cbc500 4883ec48         SUB RSP, 0x48
0x77cbc504 4c8bc9           MOV R9, RCX
0x77cbc507 488b0552da1000   MOV RAX, [RIP+0x10da52]
0x77cbc50e 4885c0           TEST RAX, RAX
0x77cbc511 0f84e3840300     JZ 0x77cf49fa
0x77cbc517 4c               DB 0x4c
------
ETHREAD: 0xfffffa8001f5b060 Pid: 1372 Tid: 2056
Tags: 
Created: 2019-12-11 14:37:29 UTC+0000
Exited: 1970-01-01 00:00:00 UTC+0000
Owning Process: svchost.exe
Attached Process: svchost.exe
State: Waiting:UserRequest
BasePriority: 0x8
Priority: 0x8
TEB: 0x7fffff9a000
StartAddress: 0x77cbc500 ntdll.dll
Win32Thread: 0x00000000
CrossThreadFlags: PS_CROSS_THREAD_FLAGS_DEADTHREAD
0x77cbc500 4883ec48         SUB RSP, 0x48
0x77cbc504 4c8bc9           MOV R9, RCX
0x77cbc507 488b0552da1000   MOV RAX, [RIP+0x10da52]
0x77cbc50e 4885c0           TEST RAX, RAX
0x77cbc511 0f84e3840300     JZ 0x77cf49fa
0x77cbc517 4c               DB 0x4c
------
ETHREAD: 0xfffffa80022b65c0 Pid: 1856 Tid: 2136
Tags: 
Created: 2019-12-11 14:36:13 UTC+0000
Exited: 2019-12-11 14:36:22 UTC+0000
Owning Process: wmpnetwk.exe
Attached Process: wmpnetwk.exe
State: Terminated
BasePriority: 0x8
Priority: 0x9
TEB: 0x00000000
StartAddress: 0xfffffa80022b6940 UNKNOWN
Win32Thread: 0x00000000
CrossThreadFlags: PS_CROSS_THREAD_FLAGS_DEADTHREAD, PS_CROSS_THREAD_FLAGS_TERMINATED
0xfffffa80022b6940 40692b0280faff   IMUL EBP, [RBX], 0xfffa8002
0xfffffa80022b6947 ff4069           INC DWORD [RAX+0x69]
0xfffffa80022b694a 2b02             SUB EAX, [RDX]
0xfffffa80022b694c 80faff           CMP DL, 0xff
0xfffffa80022b694f ff00             INC DWORD [RAX]
0xfffffa80022b6951 0000             ADD [RAX], AL
0xfffffa80022b6953 0000             ADD [RAX], AL
0xfffffa80022b6955 0000             ADD [RAX], AL
0xfffffa80022b6957 00               DB 0x0
------
ETHREAD: 0xfffffa8001f5fb60 Pid: 1372 Tid: 1388
Tags: 
Created: 2019-12-11 13:41:54 UTC+0000
Exited: 1970-01-01 00:00:00 UTC+0000
Owning Process: svchost.exe
Attached Process: svchost.exe
State: Waiting:UserRequest
BasePriority: 0x8
Priority: 0x8
TEB: 0x7fffffd8000
StartAddress: 0xfffff8a001923590 UNKNOWN
Win32Thread: 0x00000000
CrossThreadFlags: PS_CROSS_THREAD_FLAGS_DEADTHREAD
0xfffff8a001923590 e0fe             LOOPNZ 0xfffff8a001923590
0xfffff8a001923592 f5               CMC
0xfffff8a001923593 0180faffffe0     ADD [RAX-0x1f000006], EAX
0xfffff8a001923599 fe               DB 0xfe
0xfffff8a00192359a f5               CMC
0xfffff8a00192359b 0180faffffa0     ADD [RAX-0x5f000006], EAX
0xfffff8a0019235a1 359201a0f8       XOR EAX, 0xf8a00192
0xfffff8a0019235a6 ff               DB 0xff
0xfffff8a0019235a7 ff               DB 0xff
------
ETHREAD: 0xfffffa8001e75590 Pid: 1044 Tid: 1904
Tags: 
Created: 2019-12-11 13:42:05 UTC+0000
Exited: 1970-01-01 00:00:00 UTC+0000
Owning Process: svchost.exe
Attached Process: svchost.exe
State: Waiting:UserRequest
BasePriority: 0x8
Priority: 0x8
TEB: 0x7fffffd6000
StartAddress: 0x77cbc500 ntdll.dll
Win32Thread: 0x00000000
CrossThreadFlags: PS_CROSS_THREAD_FLAGS_DEADTHREAD
0x77cbc500 4883ec48         SUB RSP, 0x48
0x77cbc504 4c8bc9           MOV R9, RCX
0x77cbc507 488b0552da1000   MOV RAX, [RIP+0x10da52]
0x77cbc50e 4885c0           TEST RAX, RAX
0x77cbc511 0f84e3840300     JZ 0x77cf49fa
0x77cbc517 4c               DB 0x4c
------
ETHREAD: 0xfffffa8001e1d060 Pid: 1856 Tid: 1756
Tags: 
Created: 2019-12-11 14:16:11 UTC+0000
Exited: 1970-01-01 00:00:00 UTC+0000
Owning Process: wmpnetwk.exe
Attached Process: wmpnetwk.exe
State: Waiting:UserRequest
BasePriority: 0x8
Priority: 0x8
TEB: 0x7fffffa0000
StartAddress: 0xfffff8a001970870 UNKNOWN
Win32Thread: 0xfffff900c1ad83a0
CrossThreadFlags: PS_CROSS_THREAD_FLAGS_DEADTHREAD
0xfffff8a001970870 e0d3             LOOPNZ 0xfffff8a001970845
0xfffff8a001970872 e101             LOOPZ 0xfffff8a001970875
0xfffff8a001970874 80faff           CMP DL, 0xff
0xfffff8a001970877 ffe0             JMP RAX
0xfffff8a001970879 d3e1             SHL ECX, CL
0xfffff8a00197087b 0180faffff80     ADD [RAX-0x7f000006], EAX
0xfffff8a001970881 089701a0f8ff     OR [RDI-0x75fff], DL
0xfffff8a001970887 ff               DB 0xff
------
ETHREAD: 0xfffffa8000f43780 Pid: 604 Tid: 2616
Tags: 
Created: 2019-12-11 14:37:42 UTC+0000
Exited: 1970-01-01 00:00:00 UTC+0000
Owning Process: explorer.exe
Attached Process: explorer.exe
State: Waiting:UserRequest
BasePriority: 0x8
Priority: 0xb
TEB: 0x7fffffa8000
StartAddress: 0x77cbc500 ntdll.dll
Win32Thread: 0xfffff900c0188c30
CrossThreadFlags: PS_CROSS_THREAD_FLAGS_DEADTHREAD
0x77cbc500 4883ec48         SUB RSP, 0x48
0x77cbc504 4c8bc9           MOV R9, RCX
0x77cbc507 488b0552da1000   MOV RAX, [RIP+0x10da52]
0x77cbc50e 4885c0           TEST RAX, RAX
0x77cbc511 0f84e3840300     JZ 0x77cf49fa
0x77cbc517 4c               DB 0x4c
------
ETHREAD: 0xfffffa8001d43b60 Pid: 588 Tid: 708
Tags: 
Created: 2019-12-11 13:41:41 UTC+0000
Exited: 1970-01-01 00:00:00 UTC+0000
Owning Process: svchost.exe
Attached Process: svchost.exe
State: Waiting:WrQueue
BasePriority: 0x8
Priority: 0x8
TEB: 0x7fffffa0000
StartAddress: 0xfffff8a0014df670 UNKNOWN
Win32Thread: 0x00000000
CrossThreadFlags: PS_CROSS_THREAD_FLAGS_DEADTHREAD
0xfffff8a0014df670 e03e             LOOPNZ 0xfffff8a0014df6b0
0xfffff8a0014df672 d4               DB 0xd4
0xfffff8a0014df673 0180faffff00     ADD [RAX+0xfffffa], EAX
0xfffff8a0014df679 dc5701           FCOM QWORD [RDI+0x1]
0xfffff8a0014df67c a0f8ffff80f64d01a0 MOV AL, [0xa0014df680fffff8]
0xfffff8a0014df685 f8               CLC
0xfffff8a0014df686 ff               DB 0xff
0xfffff8a0014df687 ff               DB 0xff
------
ETHREAD: 0xfffffa8000eb0060 Pid: 2760 Tid: 2712
Tags: 
Created: 2019-12-11 14:37:05 UTC+0000
Exited: 1970-01-01 00:00:00 UTC+0000
Owning Process: csrss.exe
Attached Process: csrss.exe
State: Waiting:WrUserRequest
BasePriority: 0xd
Priority: 0xd
TEB: 0x7fffffae000
StartAddress: 0x77cbc500 ntdll.dll
Win32Thread: 0xfffff900c0152090
CrossThreadFlags: PS_CROSS_THREAD_FLAGS_DEADTHREAD
0x77cbc500 4883ec48         SUB RSP, 0x48
0x77cbc504 4c8bc9           MOV R9, RCX
0x77cbc507 488b0552da1000   MOV RAX, [RIP+0x10da52]
0x77cbc50e 4885c0           TEST RAX, RAX
0x77cbc511 0f84e3840300     JZ 0x77cf49fa
0x77cbc517 4c               DB 0x4c
------
ETHREAD: 0xfffffa8001d24970 Pid: 588 Tid: 640
Tags: 
Created: 2019-12-11 13:41:40 UTC+0000
Exited: 1970-01-01 00:00:00 UTC+0000
Owning Process: svchost.exe
Attached Process: svchost.exe
State: Waiting:WrLpcReceive
BasePriority: 0x8
Priority: 0x9
TEB: 0x7fffffa4000
StartAddress: 0x77cbc500 ntdll.dll
Win32Thread: 0x00000000
CrossThreadFlags: PS_CROSS_THREAD_FLAGS_DEADTHREAD
0x77cbc500 4883ec48         SUB RSP, 0x48
0x77cbc504 4c8bc9           MOV R9, RCX
0x77cbc507 488b0552da1000   MOV RAX, [RIP+0x10da52]
0x77cbc50e 4885c0           TEST RAX, RAX
0x77cbc511 0f84e3840300     JZ 0x77cf49fa
0x77cbc517 4c               DB 0x4c
------
ETHREAD: 0xfffffa800219e9f0 Pid: 1988 Tid: 1876
Tags: 
Created: 2019-12-11 14:32:27 UTC+0000
Exited: 1970-01-01 00:00:00 UTC+0000
Owning Process: dwm.exe
Attached Process: dwm.exe
State: Waiting:UserRequest
BasePriority: 0x8
Priority: 0x8
TEB: 0x7fffffda000
StartAddress: 0x77cbc500 ntdll.dll
Win32Thread: 0x00000000
CrossThreadFlags: PS_CROSS_THREAD_FLAGS_DEADTHREAD
0x77cbc500 4883ec48         SUB RSP, 0x48
0x77cbc504 4c8bc9           MOV R9, RCX
0x77cbc507 488b0552da1000   MOV RAX, [RIP+0x10da52]
0x77cbc50e 4885c0           TEST RAX, RAX
0x77cbc511 0f84e3840300     JZ 0x77cf49fa
0x77cbc517 4c               DB 0x4c
------
ETHREAD: 0xfffffa800133ab60 Pid: 4 Tid: 192
Tags: 
Created: 2019-12-11 13:41:22 UTC+0000
Exited: 1970-01-01 00:00:00 UTC+0000
Owning Process: System
Attached Process: System
State: Waiting:Executive
BasePriority: 0x8
Priority: 0x8
TEB: 0x00000000
StartAddress: 0xfffff880018dd900 volsnap.sys
Win32Thread: 0x00000000
CrossThreadFlags: PS_CROSS_THREAD_FLAGS_DEADTHREAD
0xfffff880018dd900 48895c2408       MOV [RSP+0x8], RBX
0xfffff880018dd905 48896c2410       MOV [RSP+0x10], RBP
0xfffff880018dd90a 4889742418       MOV [RSP+0x18], RSI
0xfffff880018dd90f 57               PUSH RDI
0xfffff880018dd910 4883ec30         SUB RSP, 0x30
0xfffff880018dd914 488b7928         MOV RDI, [RCX+0x28]
------
ETHREAD: 0xfffffa8001e54660 Pid: 4 Tid: 1744
Tags: 
Created: 2019-12-11 14:16:58 UTC+0000
Exited: 1970-01-01 00:00:00 UTC+0000
Owning Process: System
Attached Process: System
State: Waiting:Executive
BasePriority: 0x8
Priority: 0x8
TEB: 0x00000000
StartAddress: 0xfffff8800247f010 HTTP.sys
Win32Thread: 0x00000000
CrossThreadFlags: PS_CROSS_THREAD_FLAGS_DEADTHREAD, PS_CROSS_THREAD_FLAGS_HARD_ERRORS_DISABLED
0xfffff8800247f010 48895c2410       MOV [RSP+0x10], RBX
0xfffff8800247f015 48896c2418       MOV [RSP+0x18], RBP
0xfffff8800247f01a 4889742420       MOV [RSP+0x20], RSI
0xfffff8800247f01f 57               PUSH RDI
0xfffff8800247f020 4154             PUSH R12
0xfffff8800247f022 4155             PUSH R13
0xfffff8800247f024 4156             PUSH R14
0xfffff8800247f026 4157             PUSH R15
------
ETHREAD: 0xfffffa8002263060 Pid: 2760 Tid: 2796
Tags: 
Created: 2019-12-11 14:37:05 UTC+0000
Exited: 1970-01-01 00:00:00 UTC+0000
Owning Process: csrss.exe
Attached Process: csrss.exe
State: Waiting:WrLpcReceive
BasePriority: 0xd
Priority: 0xe
TEB: 0x7fffffd6000
StartAddress: 0x77cbc500 ntdll.dll
Win32Thread: 0xfffff900c00c6c30
CrossThreadFlags: PS_CROSS_THREAD_FLAGS_DEADTHREAD
0x77cbc500 4883ec48         SUB RSP, 0x48
0x77cbc504 4c8bc9           MOV R9, RCX
0x77cbc507 488b0552da1000   MOV RAX, [RIP+0x10da52]
0x77cbc50e 4885c0           TEST RAX, RAX
0x77cbc511 0f84e3840300     JZ 0x77cf49fa
0x77cbc517 4c               DB 0x4c
------
ETHREAD: 0xfffffa8000f8a2d0 Pid: 2504 Tid: 2144
Tags: 
Created: 2019-12-11 14:37:14 UTC+0000
Exited: 1970-01-01 00:00:00 UTC+0000
Owning Process: explorer.exe
Attached Process: explorer.exe
State: Waiting:UserRequest
BasePriority: 0x8
Priority: 0xc
TEB: 0x7fffffac000
StartAddress: 0x77cbc500 ntdll.dll
Win32Thread: 0xfffff900c222b710
CrossThreadFlags: PS_CROSS_THREAD_FLAGS_DEADTHREAD
0x77cbc500 4883ec48         SUB RSP, 0x48
0x77cbc504 4c8bc9           MOV R9, RCX
0x77cbc507 488b0552da1000   MOV RAX, [RIP+0x10da52]
0x77cbc50e 4885c0           TEST RAX, RAX
0x77cbc511 0f84e3840300     JZ 0x77cf49fa
0x77cbc517 4c               DB 0x4c
------
ETHREAD: 0xfffffa80021c4060 Pid: 1208 Tid: 2544
Tags: 
Created: 2019-12-11 14:36:44 UTC+0000
Exited: 1970-01-01 00:00:00 UTC+0000
Owning Process: spoolsv.exe
Attached Process: spoolsv.exe
State: Waiting:WrQueue
BasePriority: 0x8
Priority: 0x9
TEB: 0x7fffffd8000
StartAddress: 0x77cbc500 ntdll.dll
Win32Thread: 0x00000000
CrossThreadFlags: PS_CROSS_THREAD_FLAGS_DEADTHREAD
0x77cbc500 4883ec48         SUB RSP, 0x48
0x77cbc504 4c8bc9           MOV R9, RCX
0x77cbc507 488b0552da1000   MOV RAX, [RIP+0x10da52]
0x77cbc50e 4885c0           TEST RAX, RAX
0x77cbc511 0f84e3840300     JZ 0x77cf49fa
0x77cbc517 4c               DB 0x4c
------
ETHREAD: 0xfffffa8001bad040 Pid: 4 Tid: 300
Tags: 
Created: 2019-12-11 13:41:29 UTC+0000
Exited: 1970-01-01 00:00:00 UTC+0000
Owning Process: System
Attached Process: System
State: Waiting:Executive
BasePriority: 0x8
Priority: 0x8
TEB: 0x00000000
StartAddress: 0xfffff88004b1d170 raspptp.sys
Win32Thread: 0x00000000
CrossThreadFlags: PS_CROSS_THREAD_FLAGS_DEADTHREAD
0xfffff88004b1d170 fff7             PUSH RDI
0xfffff88004b1d172 4883ec50         SUB RSP, 0x50
0xfffff88004b1d176 33ff             XOR EDI, EDI
0xfffff88004b1d178 488d05e1a30000   LEA RAX, [RIP+0xa3e1]
0xfffff88004b1d17f 488d542440       LEA RDX, [RSP+0x40]
0xfffff88004b1d184 48               DB 0x48
0xfffff88004b1d185 89               DB 0x89
0xfffff88004b1d186 7c24             JL 0xfffff88004b1d1ac
------
ETHREAD: 0xfffffa80021da7e0 Pid: 2064 Tid: 2068
Tags: 
Created: 2019-12-11 14:32:37 UTC+0000
Exited: 1970-01-01 00:00:00 UTC+0000
Owning Process: audiodg.exe
Attached Process: audiodg.exe
State: Waiting:UserRequest
BasePriority: 0x8
Priority: 0x9
TEB: 0x7fffffde000
StartAddress: 0x77cbc500 ntdll.dll
Win32Thread: 0xfffff900c1ae06e0
CrossThreadFlags: PS_CROSS_THREAD_FLAGS_DEADTHREAD
0x77cbc500 4883ec48         SUB RSP, 0x48
0x77cbc504 4c8bc9           MOV R9, RCX
0x77cbc507 488b0552da1000   MOV RAX, [RIP+0x10da52]
0x77cbc50e 4885c0           TEST RAX, RAX
0x77cbc511 0f84e3840300     JZ 0x77cf49fa
0x77cbc517 4c               DB 0x4c
------
ETHREAD: 0xfffffa8001e86060 Pid: 1856 Tid: 1264
Tags: 
Created: 2019-12-11 14:16:12 UTC+0000
Exited: 1970-01-01 00:00:00 UTC+0000
Owning Process: wmpnetwk.exe
Attached Process: wmpnetwk.exe
State: Waiting:UserRequest
BasePriority: 0x8
Priority: 0x8
TEB: 0x7fffff96000
StartAddress: 0x77cbc500 ntdll.dll
Win32Thread: 0x00000000
CrossThreadFlags: PS_CROSS_THREAD_FLAGS_DEADTHREAD
0x77cbc500 4883ec48         SUB RSP, 0x48
0x77cbc504 4c8bc9           MOV R9, RCX
0x77cbc507 488b0552da1000   MOV RAX, [RIP+0x10da52]
0x77cbc50e 4885c0           TEST RAX, RAX
0x77cbc511 0f84e3840300     JZ 0x77cf49fa
0x77cbc517 4c               DB 0x4c
------
ETHREAD: 0xfffffa8000cf5040 Pid: 4 Tid: 120
Tags: 
Created: 2019-12-11 13:41:22 UTC+0000
Exited: 1970-01-01 00:00:00 UTC+0000
Owning Process: System
Attached Process: System
State: Waiting:Executive
BasePriority: 0xf
Priority: 0xf
TEB: 0x00000000
StartAddress: 0xfffff800029bb064 ntoskrnl.exe
Win32Thread: 0x00000000
CrossThreadFlags: PS_CROSS_THREAD_FLAGS_DEADTHREAD
0xfffff800029bb064 48895c2410       MOV [RSP+0x10], RBX
0xfffff800029bb069 48896c2418       MOV [RSP+0x18], RBP
0xfffff800029bb06e 4889742420       MOV [RSP+0x20], RSI
0xfffff800029bb073 57               PUSH RDI
0xfffff800029bb074 4154             PUSH R12
0xfffff800029bb076 4155             PUSH R13
0xfffff800029bb078 4156             PUSH R14
0xfffff800029bb07a 4157             PUSH R15
------
ETHREAD: 0xfffffa8001c8e8e0 Pid: 948 Tid: 328
Tags: 
Created: 2019-12-11 14:17:08 UTC+0000
Exited: 1970-01-01 00:00:00 UTC+0000
Owning Process: svchost.exe
Attached Process: svchost.exe
State: Waiting:WrQueue
BasePriority: 0x8
Priority: 0x8
TEB: 0x7fffff9c000
StartAddress: 0x77cbc500 ntdll.dll
Win32Thread: 0x00000000
CrossThreadFlags: PS_CROSS_THREAD_FLAGS_DEADTHREAD
0x77cbc500 4883ec48         SUB RSP, 0x48
0x77cbc504 4c8bc9           MOV R9, RCX
0x77cbc507 488b0552da1000   MOV RAX, [RIP+0x10da52]
0x77cbc50e 4885c0           TEST RAX, RAX
0x77cbc511 0f84e3840300     JZ 0x77cf49fa
0x77cbc517 4c               DB 0x4c
------
ETHREAD: 0xfffffa8000faa190 Pid: 2304 Tid: 2012
Tags: 
Created: 2019-12-11 14:37:14 UTC+0000
Exited: 1970-01-01 00:00:00 UTC+0000
Owning Process: VBoxTray.exe
Attached Process: VBoxTray.exe
State: Waiting:UserRequest
BasePriority: 0x8
Priority: 0x8
TEB: 0x7fffffda000
StartAddress: 0x77cbc500 ntdll.dll
Win32Thread: 0x00000000
CrossThreadFlags: PS_CROSS_THREAD_FLAGS_DEADTHREAD
0x77cbc500 4883ec48         SUB RSP, 0x48
0x77cbc504 4c8bc9           MOV R9, RCX
0x77cbc507 488b0552da1000   MOV RAX, [RIP+0x10da52]
0x77cbc50e 4885c0           TEST RAX, RAX
0x77cbc511 0f84e3840300     JZ 0x77cf49fa
0x77cbc517 4c               DB 0x4c
------
ETHREAD: 0xfffffa8000ea9060 Pid: 876 Tid: 2932
Tags: 
Created: 2019-12-11 14:35:13 UTC+0000
Exited: 1970-01-01 00:00:00 UTC+0000
Owning Process: svchost.exe
Attached Process: svchost.exe
State: Waiting:WrQueue
BasePriority: 0x8
Priority: 0x8
TEB: 0x7fffff8e000
StartAddress: 0x77cbc500 ntdll.dll
Win32Thread: 0x00000000
CrossThreadFlags: PS_CROSS_THREAD_FLAGS_DEADTHREAD
0x77cbc500 4883ec48         SUB RSP, 0x48
0x77cbc504 4c8bc9           MOV R9, RCX
0x77cbc507 488b0552da1000   MOV RAX, [RIP+0x10da52]
0x77cbc50e 4885c0           TEST RAX, RAX
0x77cbc511 0f84e3840300     JZ 0x77cf49fa
0x77cbc517 4c               DB 0x4c
------
ETHREAD: 0xfffffa80010365d0 Pid: 2304 Tid: 260
Tags: 
Created: 2019-12-11 14:37:36 UTC+0000
Exited: 1970-01-01 00:00:00 UTC+0000
Owning Process: VBoxTray.exe
Attached Process: VBoxTray.exe
State: Waiting:WrQueue
BasePriority: 0x8
Priority: 0x8
TEB: 0x7fffff9e000
StartAddress: 0x77cbc500 ntdll.dll
Win32Thread: 0x00000000
CrossThreadFlags: PS_CROSS_THREAD_FLAGS_DEADTHREAD
0x77cbc500 4883ec48         SUB RSP, 0x48
0x77cbc504 4c8bc9           MOV R9, RCX
0x77cbc507 488b0552da1000   MOV RAX, [RIP+0x10da52]
0x77cbc50e 4885c0           TEST RAX, RAX
0x77cbc511 0f84e3840300     JZ 0x77cf49fa
0x77cbc517 4c               DB 0x4c
------
ETHREAD: 0xfffffa800100a060 Pid: 2524 Tid: 2476
Tags: 
Created: 2019-12-11 14:37:21 UTC+0000
Exited: 1970-01-01 00:00:00 UTC+0000
Owning Process: SearchProtocol
Attached Process: SearchProtocol
State: Waiting:WrQueue
BasePriority: 0x4
Priority: 0x4
TEB: 0x7fffffae000
StartAddress: 0x77cbc500 ntdll.dll
Win32Thread: 0xfffff900c1e01c30
CrossThreadFlags: PS_CROSS_THREAD_FLAGS_DEADTHREAD
0x77cbc500 4883ec48         SUB RSP, 0x48
0x77cbc504 4c8bc9           MOV R9, RCX
0x77cbc507 488b0552da1000   MOV RAX, [RIP+0x10da52]
0x77cbc50e 4885c0           TEST RAX, RAX
0x77cbc511 0f84e3840300     JZ 0x77cf49fa
0x77cbc517 4c               DB 0x4c
------
ETHREAD: 0xfffffa8001d3db60 Pid: 652 Tid: 680
Tags: 
Created: 2019-12-11 13:41:41 UTC+0000
Exited: 1970-01-01 00:00:00 UTC+0000
Owning Process: VBoxService.ex
Attached Process: VBoxService.ex
State: Waiting:UserRequest
BasePriority: 0x8
Priority: 0x8
TEB: 0x7fffffae000
StartAddress: 0x77cbc500 ntdll.dll
Win32Thread: 0x00000000
CrossThreadFlags: PS_CROSS_THREAD_FLAGS_DEADTHREAD
0x77cbc500 4883ec48         SUB RSP, 0x48
0x77cbc504 4c8bc9           MOV R9, RCX
0x77cbc507 488b0552da1000   MOV RAX, [RIP+0x10da52]
0x77cbc50e 4885c0           TEST RAX, RAX
0x77cbc511 0f84e3840300     JZ 0x77cf49fa
0x77cbc517 4c               DB 0x4c
------
ETHREAD: 0x3fb32620 Pid: 2868 Tid: 1136
Tags: ScannerOnly
Created: 2019-12-11 14:37:23 UTC+0000
Exited: 1970-01-01 00:00:00 UTC+0000
Owning Process: SearchProtocol
Attached Process: SearchProtocol
State: Waiting:WrQueue
BasePriority: 0x4
Priority: 0x5
TEB: 0x7fffffd3000
StartAddress: 0x77cbc500 ntdll.dll
Win32Thread: 0xfffff900c1aeb850
CrossThreadFlags: PS_CROSS_THREAD_FLAGS_DEADTHREAD
0x77cbc500 4883ec48         SUB RSP, 0x48
0x77cbc504 4c8bc9           MOV R9, RCX
0x77cbc507 488b0552da1000   MOV RAX, [RIP+0x10da52]
0x77cbc50e 4885c0           TEST RAX, RAX
0x77cbc511 0f84e3840300     JZ 0x77cf49fa
0x77cbc517 4c               DB 0x4c
------
ETHREAD: 0x3fb0b710 Pid: 1720 Tid: 3068
Tags: ScannerOnly
Created: 2019-12-11 14:37:21 UTC+0000
Exited: 1970-01-01 00:00:00 UTC+0000
Owning Process: SearchFilterHo
Attached Process: SearchFilterHo
State: Waiting:UserRequest
BasePriority: 0x4
Priority: 0x4
TEB: 0x7fffffde000
StartAddress: 0x77cbc500 ntdll.dll
Win32Thread: 0xfffff900c1addc30
CrossThreadFlags: PS_CROSS_THREAD_FLAGS_DEADTHREAD
0x77cbc500 4883ec48         SUB RSP, 0x48
0x77cbc504 4c8bc9           MOV R9, RCX
0x77cbc507 488b0552da1000   MOV RAX, [RIP+0x10da52]
0x77cbc50e 4885c0           TEST RAX, RAX
0x77cbc511 0f84e3840300     JZ 0x77cf49fa
0x77cbc517 4c               DB 0x4c
------
ETHREAD: 0xfffffa8001d539a0 Pid: 720 Tid: 748
Tags: 
Created: 2019-12-11 13:41:41 UTC+0000
Exited: 1970-01-01 00:00:00 UTC+0000
Owning Process: svchost.exe
Attached Process: svchost.exe
State: Waiting:DelayExecution
BasePriority: 0x8
Priority: 0x8
TEB: 0x7fffffd7000
StartAddress: 0xfffff8a00137e0e0 UNKNOWN
Win32Thread: 0xfffff900c1a91c30
CrossThreadFlags: PS_CROSS_THREAD_FLAGS_DEADTHREAD
0xfffff8a00137e0e0 203dd50180fa     AND [RIP-0x57ffe2b], BH
0xfffff8a00137e0e6 ff               DB 0xff
0xfffff8a00137e0e7 ff70d3           PUSH QWORD [RAX-0x2d]
0xfffff8a00137e0ea 56               PUSH RSI
0xfffff8a00137e0eb 01a0f8fffff0     ADD [RAX-0xf000008], ESP
0xfffff8a00137e0f1 e037             LOOPNZ 0xfffff8a00137e12a
0xfffff8a00137e0f3 01               DB 0x1
0xfffff8a00137e0f4 a0               DB 0xa0
0xfffff8a00137e0f5 f8               CLC
0xfffff8a00137e0f6 ff               DB 0xff
0xfffff8a00137e0f7 ff               DB 0xff
------
ETHREAD: 0xfffffa8000d19b60 Pid: 4 Tid: 136
Tags: 
Created: 2019-12-11 13:41:22 UTC+0000
Exited: 1970-01-01 00:00:00 UTC+0000
Owning Process: System
Attached Process: System
State: Waiting:Executive
BasePriority: 0xf
Priority: 0xf
TEB: 0x00000000
StartAddress: 0xfffff800029bb064 ntoskrnl.exe
Win32Thread: 0x00000000
CrossThreadFlags: PS_CROSS_THREAD_FLAGS_DEADTHREAD
0xfffff800029bb064 48895c2410       MOV [RSP+0x10], RBX
0xfffff800029bb069 48896c2418       MOV [RSP+0x18], RBP
0xfffff800029bb06e 4889742420       MOV [RSP+0x20], RSI
0xfffff800029bb073 57               PUSH RDI
0xfffff800029bb074 4154             PUSH R12
0xfffff800029bb076 4155             PUSH R13
0xfffff800029bb078 4156             PUSH R14
0xfffff800029bb07a 4157             PUSH R15
------
ETHREAD: 0xfffffa8000fffb60 Pid: 2504 Tid: 2576
Tags: 
Created: 2019-12-11 14:37:21 UTC+0000
Exited: 1970-01-01 00:00:00 UTC+0000
Owning Process: explorer.exe
Attached Process: explorer.exe
State: Waiting:UserRequest
BasePriority: 0x8
Priority: 0xb
TEB: 0x7fffff7c000
StartAddress: 0x77cbc500 ntdll.dll
Win32Thread: 0x00000000
CrossThreadFlags: PS_CROSS_THREAD_FLAGS_DEADTHREAD
0x77cbc500 4883ec48         SUB RSP, 0x48
0x77cbc504 4c8bc9           MOV R9, RCX
0x77cbc507 488b0552da1000   MOV RAX, [RIP+0x10da52]
0x77cbc50e 4885c0           TEST RAX, RAX
0x77cbc511 0f84e3840300     JZ 0x77cf49fa
0x77cbc517 4c               DB 0x4c
------
ETHREAD: 0xfffffa8001d8e060 Pid: 816 Tid: 824
Tags: 
Created: 2019-12-11 13:41:42 UTC+0000
Exited: 1970-01-01 00:00:00 UTC+0000
Owning Process: svchost.exe
Attached Process: svchost.exe
State: Waiting:UserRequest
BasePriority: 0x8
Priority: 0x8
TEB: 0x7fffffdc000
StartAddress: 0x77cbc500 ntdll.dll
Win32Thread: 0x00000000
CrossThreadFlags: PS_CROSS_THREAD_FLAGS_DEADTHREAD
0x77cbc500 4883ec48         SUB RSP, 0x48
0x77cbc504 4c8bc9           MOV R9, RCX
0x77cbc507 488b0552da1000   MOV RAX, [RIP+0x10da52]
0x77cbc50e 4885c0           TEST RAX, RAX
0x77cbc511 0f84e3840300     JZ 0x77cf49fa
0x77cbc517 4c               DB 0x4c
------
ETHREAD: 0xfffffa8002074440 Pid: 1248 Tid: 1736
Tags: 
Created: 2019-12-11 13:41:59 UTC+0000
Exited: 1970-01-01 00:00:00 UTC+0000
Owning Process: svchost.exe
Attached Process: svchost.exe
State: Waiting:UserRequest
BasePriority: 0x8
Priority: 0x8
TEB: 0x7fffff90000
StartAddress: 0xfffff8a0019ddb60 UNKNOWN
Win32Thread: 0x00000000
CrossThreadFlags: PS_CROSS_THREAD_FLAGS_DEADTHREAD
0xfffff8a0019ddb60 c0470702         ROL BYTE [RDI+0x7], 0x2
0xfffff8a0019ddb64 80faff           CMP DL, 0xff
0xfffff8a0019ddb67 ffc0             INC EAX
0xfffff8a0019ddb69 47               DB 0x47
0xfffff8a0019ddb6a 07               DB 0x7
0xfffff8a0019ddb6b 0280faffff70     ADD AL, [RAX+0x70fffffa]
0xfffff8a0019ddb71 db9d01a0f8ff     FISTP DWORD [RBP-0x75fff]
0xfffff8a0019ddb77 ff               DB 0xff
------
ETHREAD: 0xfffffa8000d30060 Pid: 1208 Tid: 1332
Tags: 
Created: 2019-12-11 14:15:59 UTC+0000
Exited: 1970-01-01 00:00:00 UTC+0000
Owning Process: spoolsv.exe
Attached Process: spoolsv.exe
State: Waiting:UserRequest
BasePriority: 0x8
Priority: 0x9
TEB: 0x7fffffa8000
StartAddress: 0x77cbc500 ntdll.dll
Win32Thread: 0x00000000
CrossThreadFlags: PS_CROSS_THREAD_FLAGS_DEADTHREAD
0x77cbc500 4883ec48         SUB RSP, 0x48
0x77cbc504 4c8bc9           MOV R9, RCX
0x77cbc507 488b0552da1000   MOV RAX, [RIP+0x10da52]
0x77cbc50e 4885c0           TEST RAX, RAX
0x77cbc511 0f84e3840300     JZ 0x77cf49fa
0x77cbc517 4c               DB 0x4c
------
ETHREAD: 0xfffffa8001d66b60 Pid: 500 Tid: 776
Tags: 
Created: 2019-12-11 13:41:41 UTC+0000
Exited: 2019-12-11 13:42:59 UTC+0000
Owning Process: lsm.exe
Attached Process: lsm.exe
State: Terminated
BasePriority: 0x8
Priority: 0x8
TEB: 0x00000000
StartAddress: 0x77cbc500 ntdll.dll
Win32Thread: 0x00000000
CrossThreadFlags: PS_CROSS_THREAD_FLAGS_DEADTHREAD, PS_CROSS_THREAD_FLAGS_TERMINATED
0x77cbc500 4883ec48         SUB RSP, 0x48
0x77cbc504 4c8bc9           MOV R9, RCX
0x77cbc507 488b0552da1000   MOV RAX, [RIP+0x10da52]
0x77cbc50e 4885c0           TEST RAX, RAX
0x77cbc511 0f84e3840300     JZ 0x77cf49fa
0x77cbc517 4c               DB 0x4c
------
ETHREAD: 0xfffffa8001e50060 Pid: 816 Tid: 1040
Tags: 
Created: 2019-12-11 13:41:48 UTC+0000
Exited: 1970-01-01 00:00:00 UTC+0000
Owning Process: svchost.exe
Attached Process: svchost.exe
State: Waiting:UserRequest
BasePriority: 0x8
Priority: 0x9
TEB: 0x7fffff9c000
StartAddress: 0x77cbc500 ntdll.dll
Win32Thread: 0x00000000
CrossThreadFlags: PS_CROSS_THREAD_FLAGS_DEADTHREAD
0x77cbc500 4883ec48         SUB RSP, 0x48
0x77cbc504 4c8bc9           MOV R9, RCX
0x77cbc507 488b0552da1000   MOV RAX, [RIP+0x10da52]
0x77cbc50e 4885c0           TEST RAX, RAX
0x77cbc511 0f84e3840300     JZ 0x77cf49fa
0x77cbc517 4c               DB 0x4c
------
ETHREAD: 0xfffffa8001d231b0 Pid: 588 Tid: 636
Tags: 
Created: 2019-12-11 13:41:40 UTC+0000
Exited: 1970-01-01 00:00:00 UTC+0000
Owning Process: svchost.exe
Attached Process: svchost.exe
State: Waiting:WrQueue
BasePriority: 0x8
Priority: 0x9
TEB: 0x7fffffa6000
StartAddress: 0x77cbc500 ntdll.dll
Win32Thread: 0x00000000
CrossThreadFlags: PS_CROSS_THREAD_FLAGS_DEADTHREAD
0x77cbc500 4883ec48         SUB RSP, 0x48
0x77cbc504 4c8bc9           MOV R9, RCX
0x77cbc507 488b0552da1000   MOV RAX, [RIP+0x10da52]
0x77cbc50e 4885c0           TEST RAX, RAX
0x77cbc511 0f84e3840300     JZ 0x77cf49fa
0x77cbc517 4c               DB 0x4c
------
ETHREAD: 0xfffffa8000fb1060 Pid: 2304 Tid: 2352
Tags: 
Created: 2019-12-11 14:37:14 UTC+0000
Exited: 1970-01-01 00:00:00 UTC+0000
Owning Process: VBoxTray.exe
Attached Process: VBoxTray.exe
State: Waiting:Executive
BasePriority: 0x8
Priority: 0x9
TEB: 0x7fffffd4000
StartAddress: 0x77cbc500 ntdll.dll
Win32Thread: 0xfffff900c2285c30
CrossThreadFlags: PS_CROSS_THREAD_FLAGS_DEADTHREAD
0x77cbc500 4883ec48         SUB RSP, 0x48
0x77cbc504 4c8bc9           MOV R9, RCX
0x77cbc507 488b0552da1000   MOV RAX, [RIP+0x10da52]
0x77cbc50e 4885c0           TEST RAX, RAX
0x77cbc511 0f84e3840300     JZ 0x77cf49fa
0x77cbc517 4c               DB 0x4c
------
ETHREAD: 0x3fb12060 Pid: 1720 Tid: 2188
Tags: ScannerOnly
Created: 2019-12-11 14:37:21 UTC+0000
Exited: 1970-01-01 00:00:00 UTC+0000
Owning Process: SearchFilterHo
Attached Process: SearchFilterHo
State: Waiting:WrQueue
BasePriority: 0x4
Priority: 0x4
TEB: 0x7fffffd7000
StartAddress: 0x77cbc500 ntdll.dll
Win32Thread: 0xfffff900c1adf010
CrossThreadFlags: PS_CROSS_THREAD_FLAGS_DEADTHREAD
0x77cbc500 4883ec48         SUB RSP, 0x48
0x77cbc504 4c8bc9           MOV R9, RCX
0x77cbc507 488b0552da1000   MOV RAX, [RIP+0x10da52]
0x77cbc50e 4885c0           TEST RAX, RAX
0x77cbc511 0f84e3840300     JZ 0x77cf49fa
0x77cbc517 4c               DB 0x4c
------
ETHREAD: 0x3fad3840 Pid: 796 Tid: 2800
Tags: ScannerOnly
Created: 2019-12-11 14:38:00 UTC+0000
Exited: 1970-01-01 00:00:00 UTC+0000
Owning Process: DumpIt.exe
Attached Process: DumpIt.exe
State: Waiting:UserRequest
BasePriority: 0x8
Priority: 0x8
TEB: 0x7efd8000
StartAddress: 0x77cbc500 ntdll.dll
Win32Thread: 0x00000000
CrossThreadFlags: PS_CROSS_THREAD_FLAGS_DEADTHREAD
0x77cbc500 4883ec48         SUB RSP, 0x48
0x77cbc504 4c8bc9           MOV R9, RCX
0x77cbc507 488b0552da1000   MOV RAX, [RIP+0x10da52]
0x77cbc50e 4885c0           TEST RAX, RAX
0x77cbc511 0f84e3840300     JZ 0x77cf49fa
0x77cbc517 4c               DB 0x4c
------
ETHREAD: 0xfffffa8001e5c640 Pid: 816 Tid: 1072
Tags: 
Created: 2019-12-11 13:41:48 UTC+0000
Exited: 1970-01-01 00:00:00 UTC+0000
Owning Process: svchost.exe
Attached Process: svchost.exe
State: Waiting:UserRequest
BasePriority: 0x8
Priority: 0x9
TEB: 0x7fffff98000
StartAddress: 0x77cbc500 ntdll.dll
Win32Thread: 0x00000000
CrossThreadFlags: PS_CROSS_THREAD_FLAGS_DEADTHREAD
0x77cbc500 4883ec48         SUB RSP, 0x48
0x77cbc504 4c8bc9           MOV R9, RCX
0x77cbc507 488b0552da1000   MOV RAX, [RIP+0x10da52]
0x77cbc50e 4885c0           TEST RAX, RAX
0x77cbc511 0f84e3840300     JZ 0x77cf49fa
0x77cbc517 4c               DB 0x4c
------
ETHREAD: 0xfffffa8000cbb040 Pid: 4 Tid: 72
Tags: 
Created: 2019-12-11 13:41:22 UTC+0000
Exited: 1970-01-01 00:00:00 UTC+0000
Owning Process: System
Attached Process: System
State: Waiting:WrQueue
BasePriority: 0xf
Priority: 0xf
TEB: 0x00000000
StartAddress: 0xfffff800026a9910 ntoskrnl.exe
Win32Thread: 0x00000000
CrossThreadFlags: PS_CROSS_THREAD_FLAGS_DEADTHREAD
0xfffff800026a9910 4c8bdc           MOV R11, RSP
0xfffff800026a9913 49895b10         MOV [R11+0x10], RBX
0xfffff800026a9917 49896b18         MOV [R11+0x18], RBP
0xfffff800026a991b 49897320         MOV [R11+0x20], RSI
0xfffff800026a991f 57               PUSH RDI
0xfffff800026a9920 4154             PUSH R12
0xfffff800026a9922 4155             PUSH R13
0xfffff800026a9924 4156             PUSH R14
0xfffff800026a9926 4157             PUSH R15
------
ETHREAD: 0x3fb1f700 Pid: 1856 Tid: 2768
Tags: ScannerOnly
Created: 2019-12-11 14:37:22 UTC+0000
Exited: 1970-01-01 00:00:00 UTC+0000
Owning Process: wmpnetwk.exe
Attached Process: wmpnetwk.exe
State: Waiting:WrQueue
BasePriority: 0x8
Priority: 0x8
TEB: 0x7fffffda000
StartAddress: 0x77cbc500 ntdll.dll
Win32Thread: 0x00000000
CrossThreadFlags: PS_CROSS_THREAD_FLAGS_DEADTHREAD
0x77cbc500 4883ec48         SUB RSP, 0x48
0x77cbc504 4c8bc9           MOV R9, RCX
0x77cbc507 488b0552da1000   MOV RAX, [RIP+0x10da52]
0x77cbc50e 4885c0           TEST RAX, RAX
0x77cbc511 0f84e3840300     JZ 0x77cf49fa
0x77cbc517 4c               DB 0x4c
------
ETHREAD: 0xfffffa8001ceb9c0 Pid: 484 Tid: 580
Tags: 
Created: 2019-12-11 13:41:39 UTC+0000
Exited: 1970-01-01 00:00:00 UTC+0000
Owning Process: services.exe
Attached Process: services.exe
State: Waiting:UserRequest
BasePriority: 0x9
Priority: 0x9
TEB: 0x7fffffae000
StartAddress: 0x77cbc500 ntdll.dll
Win32Thread: 0x00000000
CrossThreadFlags: PS_CROSS_THREAD_FLAGS_DEADTHREAD
0x77cbc500 4883ec48         SUB RSP, 0x48
0x77cbc504 4c8bc9           MOV R9, RCX
0x77cbc507 488b0552da1000   MOV RAX, [RIP+0x10da52]
0x77cbc50e 4885c0           TEST RAX, RAX
0x77cbc511 0f84e3840300     JZ 0x77cf49fa
0x77cbc517 4c               DB 0x4c
------
ETHREAD: 0xfffffa8000cc15a0 Pid: 4 Tid: 108
Tags: 
Created: 2019-12-11 13:41:22 UTC+0000
Exited: 1970-01-01 00:00:00 UTC+0000
Owning Process: System
Attached Process: System
State: Waiting:WrQueue
BasePriority: 0x8
Priority: 0x10
TEB: 0x00000000
StartAddress: 0xfffff800027add30 ntoskrnl.exe
Win32Thread: 0x00000000
CrossThreadFlags: PS_CROSS_THREAD_FLAGS_DEADTHREAD
0xfffff800027add30 48895c2410       MOV [RSP+0x10], RBX
0xfffff800027add35 57               PUSH RDI
0xfffff800027add36 4883ec30         SUB RSP, 0x30
0xfffff800027add3a 8bf9             MOV EDI, ECX
0xfffff800027add3c 8d5110           LEA EDX, [RCX+0x10]
0xfffff800027add3f 65488b0c2588010000 MOV RCX, [GS:0x188]
------
ETHREAD: 0xfffffa8001d35060 Pid: 948 Tid: 660
Tags: 
Created: 2019-12-11 14:16:09 UTC+0000
Exited: 1970-01-01 00:00:00 UTC+0000
Owning Process: svchost.exe
Attached Process: svchost.exe
State: Waiting:UserRequest
BasePriority: 0x8
Priority: 0x9
TEB: 0x7fffffa4000
StartAddress: 0x77cbc500 ntdll.dll
Win32Thread: 0x00000000
CrossThreadFlags: PS_CROSS_THREAD_FLAGS_DEADTHREAD
0x77cbc500 4883ec48         SUB RSP, 0x48
0x77cbc504 4c8bc9           MOV R9, RCX
0x77cbc507 488b0552da1000   MOV RAX, [RIP+0x10da52]
0x77cbc50e 4885c0           TEST RAX, RAX
0x77cbc511 0f84e3840300     JZ 0x77cf49fa
0x77cbc517 4c               DB 0x4c
------
ETHREAD: 0xfffffa8001003b60 Pid: 2524 Tid: 2884
Tags: 
Created: 2019-12-11 14:37:21 UTC+0000
Exited: 1970-01-01 00:00:00 UTC+0000
Owning Process: SearchProtocol
Attached Process: SearchProtocol
State: Waiting:UserRequest
BasePriority: 0x4
Priority: 0x4
TEB: 0x7fffffde000
StartAddress: 0x77cbc500 ntdll.dll
Win32Thread: 0xfffff900c22fbc30
CrossThreadFlags: PS_CROSS_THREAD_FLAGS_DEADTHREAD
0x77cbc500 4883ec48         SUB RSP, 0x48
0x77cbc504 4c8bc9           MOV R9, RCX
0x77cbc507 488b0552da1000   MOV RAX, [RIP+0x10da52]
0x77cbc50e 4885c0           TEST RAX, RAX
0x77cbc511 0f84e3840300     JZ 0x77cf49fa
0x77cbc517 4c               DB 0x4c
------
ETHREAD: 0xfffffa8001468b60 Pid: 4 Tid: 228
Tags: 
Created: 2019-12-11 13:41:25 UTC+0000
Exited: 1970-01-01 00:00:00 UTC+0000
Owning Process: System
Attached Process: System
State: Waiting:WrQueue
BasePriority: 0x8
Priority: 0x8
TEB: 0x00000000
StartAddress: 0xfffff88002c4ee50 VBoxSF.sys
Win32Thread: 0x00000000
CrossThreadFlags: PS_CROSS_THREAD_FLAGS_DEADTHREAD
0xfffff88002c4ee50 33d2             XOR EDX, EDX
0xfffff88002c4ee52 e9759afbff       JMP 0xfffff88002c088cc
0xfffff88002c4ee57 cc               INT 3
0xfffff88002c4ee58 48895c2410       MOV [RSP+0x10], RBX
0xfffff88002c4ee5d 48896c2418       MOV [RSP+0x18], RBP
0xfffff88002c4ee62 56               PUSH RSI
0xfffff88002c4ee63 57               PUSH RDI
0xfffff88002c4ee64 4154             PUSH R12
0xfffff88002c4ee66 48               DB 0x48
0xfffff88002c4ee67 81               DB 0x81
------
ETHREAD: 0xfffffa8000f3d060 Pid: 876 Tid: 2364
Tags: 
Created: 2019-12-11 14:37:13 UTC+0000
Exited: 2019-12-11 14:37:14 UTC+0000
Owning Process: svchost.exe
Attached Process: svchost.exe
State: Terminated
BasePriority: 0x8
Priority: 0x9
TEB: 0x00000000
StartAddress: 0x77cbc500 ntdll.dll
Win32Thread: 0x00000000
CrossThreadFlags: PS_CROSS_THREAD_FLAGS_DEADTHREAD, PS_CROSS_THREAD_FLAGS_TERMINATED
0x77cbc500 4883ec48         SUB RSP, 0x48
0x77cbc504 4c8bc9           MOV R9, RCX
0x77cbc507 488b0552da1000   MOV RAX, [RIP+0x10da52]
0x77cbc50e 4885c0           TEST RAX, RAX
0x77cbc511 0f84e3840300     JZ 0x77cf49fa
0x77cbc517 4c               DB 0x4c
------
ETHREAD: 0xfffffa8000eb4060 Pid: 2660 Tid: 1660
Tags: 
Created: 2019-12-11 14:35:14 UTC+0000
Exited: 1970-01-01 00:00:00 UTC+0000
Owning Process: svchost.exe
Attached Process: svchost.exe
State: Waiting:UserRequest
BasePriority: 0x8
Priority: 0x8
TEB: 0x7fffffd6000
StartAddress: 0x77cbc500 ntdll.dll
Win32Thread: 0x00000000
CrossThreadFlags: PS_CROSS_THREAD_FLAGS_DEADTHREAD
0x77cbc500 4883ec48         SUB RSP, 0x48
0x77cbc504 4c8bc9           MOV R9, RCX
0x77cbc507 488b0552da1000   MOV RAX, [RIP+0x10da52]
0x77cbc50e 4885c0           TEST RAX, RAX
0x77cbc511 0f84e3840300     JZ 0x77cf49fa
0x77cbc517 4c               DB 0x4c
------
ETHREAD: 0xfffffa8000d3a060 Pid: 604 Tid: 1476
Tags: 
Created: 2019-12-11 14:32:31 UTC+0000
Exited: 1970-01-01 00:00:00 UTC+0000
Owning Process: explorer.exe
Attached Process: explorer.exe
State: Waiting:UserRequest
BasePriority: 0x8
Priority: 0xc
TEB: 0x7fffffac000
StartAddress: 0x77cbc500 ntdll.dll
Win32Thread: 0xfffff900c1eda710
CrossThreadFlags: PS_CROSS_THREAD_FLAGS_DEADTHREAD
0x77cbc500 4883ec48         SUB RSP, 0x48
0x77cbc504 4c8bc9           MOV R9, RCX
0x77cbc507 488b0552da1000   MOV RAX, [RIP+0x10da52]
0x77cbc50e 4885c0           TEST RAX, RAX
0x77cbc511 0f84e3840300     JZ 0x77cf49fa
0x77cbc517 4c               DB 0x4c
------
ETHREAD: 0xfffffa8001c8bb60 Pid: 480 Tid: 1516
Tags: 
Created: 2019-12-11 14:16:26 UTC+0000
Exited: 1970-01-01 00:00:00 UTC+0000
Owning Process: SearchIndexer.
Attached Process: SearchIndexer.
State: Waiting:UserRequest
BasePriority: 0x7
Priority: 0x8
TEB: 0x7fffffa8000
StartAddress: 0x77cbc500 ntdll.dll
Win32Thread: 0xfffff900c1ae1010
CrossThreadFlags: PS_CROSS_THREAD_FLAGS_DEADTHREAD
0x77cbc500 4883ec48         SUB RSP, 0x48
0x77cbc504 4c8bc9           MOV R9, RCX
0x77cbc507 488b0552da1000   MOV RAX, [RIP+0x10da52]
0x77cbc50e 4885c0           TEST RAX, RAX
0x77cbc511 0f84e3840300     JZ 0x77cf49fa
0x77cbc517 4c               DB 0x4c
------
ETHREAD: 0xfffffa800202b040 Pid: 4 Tid: 1556
Tags: 
Created: 2019-12-11 13:41:58 UTC+0000
Exited: 1970-01-01 00:00:00 UTC+0000
Owning Process: System
Attached Process: System
State: Waiting:WrQueue
BasePriority: 0x8
Priority: 0x8
TEB: 0x00000000
StartAddress: 0xfffff880029910e0 srv2.sys
Win32Thread: 0x00000000
CrossThreadFlags: PS_CROSS_THREAD_FLAGS_DEADTHREAD
0xfffff880029910e0 48895c2410       MOV [RSP+0x10], RBX
0xfffff880029910e5 48896c2418       MOV [RSP+0x18], RBP
0xfffff880029910ea 4889742420       MOV [RSP+0x20], RSI
0xfffff880029910ef 57               PUSH RDI
0xfffff880029910f0 4154             PUSH R12
0xfffff880029910f2 4155             PUSH R13
0xfffff880029910f4 4156             PUSH R14
0xfffff880029910f6 4157             PUSH R15
------
ETHREAD: 0xfffffa8001010630 Pid: 1512 Tid: 584
Tags: 
Created: 2019-12-11 14:37:23 UTC+0000
Exited: 1970-01-01 00:00:00 UTC+0000
Owning Process: WinRAR.exe
Attached Process: WinRAR.exe
State: Waiting:WrUserRequest
BasePriority: 0x8
Priority: 0xa
TEB: 0x7fffffdd000
StartAddress: 0xfffff8a002275430 UNKNOWN
Win32Thread: 0xfffff900c21cfae0
CrossThreadFlags: PS_CROSS_THREAD_FLAGS_DEADTHREAD
0xfffff8a002275430 b009             MOV AL, 0x9
0xfffff8a002275432 0101             ADD [RCX], EAX
0xfffff8a002275434 80faff           CMP DL, 0xff
0xfffff8a002275437 ffb009010180     PUSH QWORD [RAX-0x7ffefef7]
0xfffff8a00227543d fa               CLI
0xfffff8a00227543e ff               DB 0xff
0xfffff8a00227543f ff4054           INC DWORD [RAX+0x54]
0xfffff8a002275442 27               DB 0x27
0xfffff8a002275443 02               DB 0x2
0xfffff8a002275444 a0               DB 0xa0
0xfffff8a002275445 f8               CLC
0xfffff8a002275446 ff               DB 0xff
0xfffff8a002275447 ff               DB 0xff
------
ETHREAD: 0xfffffa8001decb60 Pid: 376 Tid: 1004
Tags: 
Created: 2019-12-11 13:41:45 UTC+0000
Exited: 1970-01-01 00:00:00 UTC+0000
Owning Process: psxss.exe
Attached Process: psxss.exe
State: Waiting:UserRequest
BasePriority: 0xf
Priority: 0xf
TEB: 0x7fffffa4000
StartAddress: 0x77cbc500 ntdll.dll
Win32Thread: 0x00000000
CrossThreadFlags: PS_CROSS_THREAD_FLAGS_DEADTHREAD
0x77cbc500 4883ec48         SUB RSP, 0x48
0x77cbc504 4c8bc9           MOV R9, RCX
0x77cbc507 488b0552da1000   MOV RAX, [RIP+0x10da52]
0x77cbc50e 4885c0           TEST RAX, RAX
0x77cbc511 0f84e3840300     JZ 0x77cf49fa
0x77cbc517 4c               DB 0x4c
------
ETHREAD: 0xfffffa8001e46b60 Pid: 1856 Tid: 2132
Tags: 
Created: 2019-12-11 14:36:13 UTC+0000
Exited: 1970-01-01 00:00:00 UTC+0000
Owning Process: wmpnetwk.exe
Attached Process: wmpnetwk.exe
State: Waiting:WrQueue
BasePriority: 0x8
Priority: 0x9
TEB: 0x7fffff92000
StartAddress: 0x77cbc500 ntdll.dll
Win32Thread: 0xfffff900c1ac6010
CrossThreadFlags: PS_CROSS_THREAD_FLAGS_DEADTHREAD
0x77cbc500 4883ec48         SUB RSP, 0x48
0x77cbc504 4c8bc9           MOV R9, RCX
0x77cbc507 488b0552da1000   MOV RAX, [RIP+0x10da52]
0x77cbc50e 4885c0           TEST RAX, RAX
0x77cbc511 0f84e3840300     JZ 0x77cf49fa
0x77cbc517 4c               DB 0x4c
------
ETHREAD: 0xfffffa80020579e0 Pid: 472 Tid: 1684
Tags: 
Created: 2019-12-11 13:41:59 UTC+0000
Exited: 1970-01-01 00:00:00 UTC+0000
Owning Process: svchost.exe
Attached Process: svchost.exe
State: Waiting:UserRequest
BasePriority: 0x8
Priority: 0x9
TEB: 0x7fffffa8000
StartAddress: 0xfffff8a00124c800 UNKNOWN
Win32Thread: 0x00000000
CrossThreadFlags: PS_CROSS_THREAD_FLAGS_DEADTHREAD
0xfffff8a00124c800 60               DB 0x60
0xfffff8a00124c801 7d05             JGE 0xfffff8a00124c808
0xfffff8a00124c803 0280faffff60     ADD AL, [RAX+0x60fffffa]
0xfffff8a00124c809 7d05             JGE 0xfffff8a00124c810
0xfffff8a00124c80b 0280faffff10     ADD AL, [RAX+0x10fffffa]
0xfffff8a00124c811 c82401a0         ENTER 0x124, 0xa0
0xfffff8a00124c815 f8               CLC
0xfffff8a00124c816 ff               DB 0xff
0xfffff8a00124c817 ff               DB 0xff
------
ETHREAD: 0xfffffa8002099450 Pid: 1508 Tid: 1168
Tags: 
Created: 2019-12-11 14:16:06 UTC+0000
Exited: 1970-01-01 00:00:00 UTC+0000
Owning Process: sppsvc.exe
Attached Process: sppsvc.exe
State: Waiting:UserRequest
BasePriority: 0x8
Priority: 0x9
TEB: 0x7fffffde000
StartAddress: 0x77cbc500 ntdll.dll
Win32Thread: 0xfffff900c1abd010
CrossThreadFlags: PS_CROSS_THREAD_FLAGS_DEADTHREAD
0x77cbc500 4883ec48         SUB RSP, 0x48
0x77cbc504 4c8bc9           MOV R9, RCX
0x77cbc507 488b0552da1000   MOV RAX, [RIP+0x10da52]
0x77cbc50e 4885c0           TEST RAX, RAX
0x77cbc511 0f84e3840300     JZ 0x77cf49fa
0x77cbc517 4c               DB 0x4c
------
ETHREAD: 0xfffffa800143d060 Pid: 2368 Tid: 2272
Tags: 
Created: 2019-12-11 14:34:43 UTC+0000
Exited: 2019-12-11 14:38:05 UTC+0000
Owning Process: svchost.exe
Attached Process: svchost.exe
State: Terminated
BasePriority: 0x8
Priority: 0x8
TEB: 0x00000000
StartAddress: 0x77cbc500 ntdll.dll
Win32Thread: 0x00000000
CrossThreadFlags: PS_CROSS_THREAD_FLAGS_DEADTHREAD, PS_CROSS_THREAD_FLAGS_TERMINATED
0x77cbc500 4883ec48         SUB RSP, 0x48
0x77cbc504 4c8bc9           MOV R9, RCX
0x77cbc507 488b0552da1000   MOV RAX, [RIP+0x10da52]
0x77cbc50e 4885c0           TEST RAX, RAX
0x77cbc511 0f84e3840300     JZ 0x77cf49fa
0x77cbc517 4c               DB 0x4c
------
ETHREAD: 0xfffffa8001d9e060 Pid: 816 Tid: 844
Tags: 
Created: 2019-12-11 13:41:43 UTC+0000
Exited: 1970-01-01 00:00:00 UTC+0000
Owning Process: svchost.exe
Attached Process: svchost.exe
State: Waiting:UserRequest
BasePriority: 0x8
Priority: 0x9
TEB: 0x7fffffac000
StartAddress: 0xfffff8a0016cad50 UNKNOWN
Win32Thread: 0xfffff900c1aa3010
CrossThreadFlags: PS_CROSS_THREAD_FLAGS_DEADTHREAD
0xfffff8a0016cad50 e0e3             LOOPNZ 0xfffff8a0016cad35
0xfffff8a0016cad52 d901             FLD DWORD [RCX]
0xfffff8a0016cad54 80faff           CMP DL, 0xff
0xfffff8a0016cad57 ff407e           INC DWORD [RAX+0x7e]
0xfffff8a0016cad5a 6601a0f8ffff60   ADD [RAX+0x60fffff8], SP
0xfffff8a0016cad61 ad               LODSD
0xfffff8a0016cad62 6c               INS BYTE [RDI], DX
0xfffff8a0016cad63 01               DB 0x1
0xfffff8a0016cad64 a0               DB 0xa0
0xfffff8a0016cad65 f8               CLC
0xfffff8a0016cad66 ff               DB 0xff
0xfffff8a0016cad67 ff               DB 0xff
------
ETHREAD: 0xfffffa8002170b60 Pid: 720 Tid: 872
Tags: 
Created: 2019-12-11 14:32:05 UTC+0000
Exited: 1970-01-01 00:00:00 UTC+0000
Owning Process: svchost.exe
Attached Process: svchost.exe
State: Waiting:WrQueue
BasePriority: 0x8
Priority: 0x9
TEB: 0x7fffffdb000
StartAddress: 0xfffff8a0019c2aa0 UNKNOWN
Win32Thread: 0x00000000
CrossThreadFlags: PS_CROSS_THREAD_FLAGS_DEADTHREAD
0xfffff8a0019c2aa0 e00e             LOOPNZ 0xfffff8a0019c2ab0
0xfffff8a0019c2aa2 17               DB 0x17
0xfffff8a0019c2aa3 0280faffffe0     ADD AL, [RAX-0x1f000006]
0xfffff8a0019c2aa9 0e               DB 0xe
0xfffff8a0019c2aaa 17               DB 0x17
0xfffff8a0019c2aab 0280faffffb0     ADD AL, [RAX-0x4f000006]
0xfffff8a0019c2ab1 2a9c01a0f8ffff   SUB BL, [RCX+RAX-0x760]
------
ETHREAD: 0x3fb6f4e0 Pid: 1372 Tid: 2412
Tags: ScannerOnly
Created: 2019-12-11 14:37:56 UTC+0000
Exited: 1970-01-01 00:00:00 UTC+0000
Owning Process: svchost.exe
Attached Process: svchost.exe
State: Waiting:WrQueue
BasePriority: 0x8
Priority: 0x8
TEB: 0x7fffff98000
StartAddress: 0x77cbc500 ntdll.dll
Win32Thread: 0x00000000
CrossThreadFlags: PS_CROSS_THREAD_FLAGS_DEADTHREAD
0x77cbc500 4883ec48         SUB RSP, 0x48
0x77cbc504 4c8bc9           MOV R9, RCX
0x77cbc507 488b0552da1000   MOV RAX, [RIP+0x10da52]
0x77cbc50e 4885c0           TEST RAX, RAX
0x77cbc511 0f84e3840300     JZ 0x77cf49fa
0x77cbc517 4c               DB 0x4c
------
ETHREAD: 0xfffffa8001d6b740 Pid: 500 Tid: 784
Tags: 
Created: 2019-12-11 13:41:42 UTC+0000
Exited: 1970-01-01 00:00:00 UTC+0000
Owning Process: lsm.exe
Attached Process: lsm.exe
State: Waiting:UserRequest
BasePriority: 0x8
Priority: 0x9
TEB: 0x7fffffa8000
StartAddress: 0x77cbc500 ntdll.dll
Win32Thread: 0x00000000
CrossThreadFlags: PS_CROSS_THREAD_FLAGS_DEADTHREAD
0x77cbc500 4883ec48         SUB RSP, 0x48
0x77cbc504 4c8bc9           MOV R9, RCX
0x77cbc507 488b0552da1000   MOV RAX, [RIP+0x10da52]
0x77cbc50e 4885c0           TEST RAX, RAX
0x77cbc511 0f84e3840300     JZ 0x77cf49fa
0x77cbc517 4c               DB 0x4c
------
ETHREAD: 0xfffffa800223b9f0 Pid: 472 Tid: 2348
Tags: 
Created: 2019-12-11 14:37:05 UTC+0000
Exited: 1970-01-01 00:00:00 UTC+0000
Owning Process: svchost.exe
Attached Process: svchost.exe
State: Waiting:DelayExecution
BasePriority: 0x8
Priority: 0x9
TEB: 0x7fffffda000
StartAddress: 0x77cbc500 ntdll.dll
Win32Thread: 0x00000000
CrossThreadFlags: PS_CROSS_THREAD_FLAGS_DEADTHREAD
0x77cbc500 4883ec48         SUB RSP, 0x48
0x77cbc504 4c8bc9           MOV R9, RCX
0x77cbc507 488b0552da1000   MOV RAX, [RIP+0x10da52]
0x77cbc50e 4885c0           TEST RAX, RAX
0x77cbc511 0f84e3840300     JZ 0x77cf49fa
0x77cbc517 4c               DB 0x4c
------
ETHREAD: 0xfffffa8001e05660 Pid: 876 Tid: 372
Tags: 
Created: 2019-12-11 13:41:45 UTC+0000
Exited: 1970-01-01 00:00:00 UTC+0000
Owning Process: svchost.exe
Attached Process: svchost.exe
State: Waiting:WrLpcReceive
BasePriority: 0x8
Priority: 0x9
TEB: 0x7fffffaa000
StartAddress: 0x77cbc500 ntdll.dll
Win32Thread: 0x00000000
CrossThreadFlags: PS_CROSS_THREAD_FLAGS_DEADTHREAD
0x77cbc500 4883ec48         SUB RSP, 0x48
0x77cbc504 4c8bc9           MOV R9, RCX
0x77cbc507 488b0552da1000   MOV RAX, [RIP+0x10da52]
0x77cbc50e 4885c0           TEST RAX, RAX
0x77cbc511 0f84e3840300     JZ 0x77cf49fa
0x77cbc517 4c               DB 0x4c
------
ETHREAD: 0xfffffa8001cff9f0 Pid: 588 Tid: 608
Tags: 
Created: 2019-12-11 13:41:39 UTC+0000
Exited: 1970-01-01 00:00:00 UTC+0000
Owning Process: svchost.exe
Attached Process: svchost.exe
State: Waiting:UserRequest
BasePriority: 0x8
Priority: 0x8
TEB: 0x7fffffd6000
StartAddress: 0x77cbc500 ntdll.dll
Win32Thread: 0x00000000
CrossThreadFlags: PS_CROSS_THREAD_FLAGS_DEADTHREAD
0x77cbc500 4883ec48         SUB RSP, 0x48
0x77cbc504 4c8bc9           MOV R9, RCX
0x77cbc507 488b0552da1000   MOV RAX, [RIP+0x10da52]
0x77cbc50e 4885c0           TEST RAX, RAX
0x77cbc511 0f84e3840300     JZ 0x77cf49fa
0x77cbc517 4c               DB 0x4c
------
ETHREAD: 0x3fa8b880 Pid: 1720 Tid: 1216
Tags: ScannerOnly
Created: 2019-12-11 14:37:21 UTC+0000
Exited: 1970-01-01 00:00:00 UTC+0000
Owning Process: SearchFilterHo
Attached Process: SearchFilterHo
State: Waiting:UserRequest
BasePriority: 0x4
Priority: 0x4
TEB: 0x7fffffdb000
StartAddress: 0x77cbc500 ntdll.dll
Win32Thread: 0x00000000
CrossThreadFlags: PS_CROSS_THREAD_FLAGS_DEADTHREAD
0x77cbc500 4883ec48         SUB RSP, 0x48
0x77cbc504 4c8bc9           MOV R9, RCX
0x77cbc507 488b0552da1000   MOV RAX, [RIP+0x10da52]
0x77cbc50e 4885c0           TEST RAX, RAX
0x77cbc511 0f84e3840300     JZ 0x77cf49fa
0x77cbc517 4c               DB 0x4c
------
ETHREAD: 0xfffffa8000cf5b60 Pid: 4 Tid: 124
Tags: 
Created: 2019-12-11 13:41:22 UTC+0000
Exited: 1970-01-01 00:00:00 UTC+0000
Owning Process: System
Attached Process: System
State: Waiting:WrFreePage
BasePriority: 0x8
Priority: 0x11
TEB: 0x00000000
StartAddress: 0xfffff800026d9120 ntoskrnl.exe
Win32Thread: 0x00000000
CrossThreadFlags: PS_CROSS_THREAD_FLAGS_DEADTHREAD
0xfffff800026d9120 48895c2408       MOV [RSP+0x8], RBX
0xfffff800026d9125 48896c2410       MOV [RSP+0x10], RBP
0xfffff800026d912a 4889742418       MOV [RSP+0x18], RSI
0xfffff800026d912f 57               PUSH RDI
0xfffff800026d9130 4155             PUSH R13
0xfffff800026d9132 4157             PUSH R15
0xfffff800026d9134 48               DB 0x48
0xfffff800026d9135 81               DB 0x81
0xfffff800026d9136 ec               IN AL, DX
0xfffff800026d9137 d0               DB 0xd0
------
ETHREAD: 0xfffffa8001dc5660 Pid: 376 Tid: 932
Tags: 
Created: 2019-12-11 13:41:43 UTC+0000
Exited: 1970-01-01 00:00:00 UTC+0000
Owning Process: psxss.exe
Attached Process: psxss.exe
State: Waiting:UserRequest
BasePriority: 0xd
Priority: 0xd
TEB: 0x7fffffd6000
StartAddress: 0x77cbc500 ntdll.dll
Win32Thread: 0x00000000
CrossThreadFlags: PS_CROSS_THREAD_FLAGS_DEADTHREAD
0x77cbc500 4883ec48         SUB RSP, 0x48
0x77cbc504 4c8bc9           MOV R9, RCX
0x77cbc507 488b0552da1000   MOV RAX, [RIP+0x10da52]
0x77cbc50e 4885c0           TEST RAX, RAX
0x77cbc511 0f84e3840300     JZ 0x77cf49fa
0x77cbc517 4c               DB 0x4c
------
ETHREAD: 0xfffffa80021e66a0 Pid: 1984 Tid: 340
Tags: 
Created: 2019-12-11 14:34:54 UTC+0000
Exited: 1970-01-01 00:00:00 UTC+0000
Owning Process: cmd.exe
Attached Process: cmd.exe
State: Waiting:WrLpcReply
BasePriority: 0x8
Priority: 0xb
TEB: 0x7fffffdd000
StartAddress: 0x77cbc500 ntdll.dll
Win32Thread: 0xfffff900c1ebc270
CrossThreadFlags: PS_CROSS_THREAD_FLAGS_DEADTHREAD
0x77cbc500 4883ec48         SUB RSP, 0x48
0x77cbc504 4c8bc9           MOV R9, RCX
0x77cbc507 488b0552da1000   MOV RAX, [RIP+0x10da52]
0x77cbc50e 4885c0           TEST RAX, RAX
0x77cbc511 0f84e3840300     JZ 0x77cf49fa
0x77cbc517 4c               DB 0x4c
------
ETHREAD: 0x3fab83e0 Pid: 1512 Tid: 848
Tags: ScannerOnly
Created: 2019-12-11 14:37:23 UTC+0000
Exited: 1970-01-01 00:00:00 UTC+0000
Owning Process: WinRAR.exe
Attached Process: WinRAR.exe
State: Waiting:UserRequest
BasePriority: 0x8
Priority: 0xa
TEB: 0x7fffffd5000
StartAddress: 0x77cbc500 ntdll.dll
Win32Thread: 0xfffff900c1abec30
CrossThreadFlags: PS_CROSS_THREAD_FLAGS_DEADTHREAD
0x77cbc500 4883ec48         SUB RSP, 0x48
0x77cbc504 4c8bc9           MOV R9, RCX
0x77cbc507 488b0552da1000   MOV RAX, [RIP+0x10da52]
0x77cbc50e 4885c0           TEST RAX, RAX
0x77cbc511 0f84e3840300     JZ 0x77cf49fa
0x77cbc517 4c               DB 0x4c
------
ETHREAD: 0xfffffa80020f8b60 Pid: 1372 Tid: 1920
Tags: 
Created: 2019-12-11 14:16:15 UTC+0000
Exited: 1970-01-01 00:00:00 UTC+0000
Owning Process: svchost.exe
Attached Process: svchost.exe
State: Waiting:UserRequest
BasePriority: 0x8
Priority: 0x8
TEB: 0x7fffff8c000
StartAddress: 0x77cbc500 ntdll.dll
Win32Thread: 0x00000000
CrossThreadFlags: PS_CROSS_THREAD_FLAGS_DEADTHREAD
0x77cbc500 4883ec48         SUB RSP, 0x48
0x77cbc504 4c8bc9           MOV R9, RCX
0x77cbc507 488b0552da1000   MOV RAX, [RIP+0x10da52]
0x77cbc50e 4885c0           TEST RAX, RAX
0x77cbc511 0f84e3840300     JZ 0x77cf49fa
0x77cbc517 4c               DB 0x4c
------
ETHREAD: 0xfffffa8001f6da00 Pid: 472 Tid: 1760
Tags: 
Created: 2019-12-11 13:42:00 UTC+0000
Exited: 1970-01-01 00:00:00 UTC+0000
Owning Process: svchost.exe
Attached Process: svchost.exe
State: Waiting:WrUserRequest
BasePriority: 0x8
Priority: 0xa
TEB: 0x7fffff9e000
StartAddress: 0x77cbc500 ntdll.dll
Win32Thread: 0xfffff900c1ac4850
CrossThreadFlags: PS_CROSS_THREAD_FLAGS_DEADTHREAD
0x77cbc500 4883ec48         SUB RSP, 0x48
0x77cbc504 4c8bc9           MOV R9, RCX
0x77cbc507 488b0552da1000   MOV RAX, [RIP+0x10da52]
0x77cbc50e 4885c0           TEST RAX, RAX
0x77cbc511 0f84e3840300     JZ 0x77cf49fa
0x77cbc517 4c               DB 0x4c
------
ETHREAD: 0xfffffa8000f74b00 Pid: 2064 Tid: 1868
Tags: 
Created: 2019-12-11 14:37:14 UTC+0000
Exited: 1970-01-01 00:00:00 UTC+0000
Owning Process: audiodg.exe
Attached Process: audiodg.exe
State: Waiting:WrQueue
BasePriority: 0x8
Priority: 0x9
TEB: 0x7fffffd4000
StartAddress: 0x77cbc500 ntdll.dll
Win32Thread: 0xfffff900c1ae5010
CrossThreadFlags: PS_CROSS_THREAD_FLAGS_DEADTHREAD
0x77cbc500 4883ec48         SUB RSP, 0x48
0x77cbc504 4c8bc9           MOV R9, RCX
0x77cbc507 488b0552da1000   MOV RAX, [RIP+0x10da52]
0x77cbc50e 4885c0           TEST RAX, RAX
0x77cbc511 0f84e3840300     JZ 0x77cf49fa
0x77cbc517 4c               DB 0x4c
------
ETHREAD: 0x3fb52b60 Pid: 1988 Tid: 2984
Tags: ScannerOnly
Created: 2019-12-11 14:37:35 UTC+0000
Exited: 1970-01-01 00:00:00 UTC+0000
Owning Process: dwm.exe
Attached Process: dwm.exe
State: Waiting:WrQueue
BasePriority: 0x8
Priority: 0x8
TEB: 0x7fffffd8000
StartAddress: 0x77cbc500 ntdll.dll
Win32Thread: 0x00000000
CrossThreadFlags: PS_CROSS_THREAD_FLAGS_DEADTHREAD
0x77cbc500 4883ec48         SUB RSP, 0x48
0x77cbc504 4c8bc9           MOV R9, RCX
0x77cbc507 488b0552da1000   MOV RAX, [RIP+0x10da52]
0x77cbc50e 4885c0           TEST RAX, RAX
0x77cbc511 0f84e3840300     JZ 0x77cf49fa
0x77cbc517 4c               DB 0x4c
------
ETHREAD: 0xfffffa8000ea6060 Pid: 2424 Tid: 3028
Tags: 
Created: 2019-12-11 14:35:14 UTC+0000
Exited: 1970-01-01 00:00:00 UTC+0000
Owning Process: mspaint.exe
Attached Process: mspaint.exe
State: Waiting:UserRequest
BasePriority: 0x8
Priority: 0xa
TEB: 0x7fffffdb000
StartAddress: 0x77cbc500 ntdll.dll
Win32Thread: 0xfffff900c1eca410
CrossThreadFlags: PS_CROSS_THREAD_FLAGS_DEADTHREAD
0x77cbc500 4883ec48         SUB RSP, 0x48
0x77cbc504 4c8bc9           MOV R9, RCX
0x77cbc507 488b0552da1000   MOV RAX, [RIP+0x10da52]
0x77cbc50e 4885c0           TEST RAX, RAX
0x77cbc511 0f84e3840300     JZ 0x77cf49fa
0x77cbc517 4c               DB 0x4c
------
ETHREAD: 0xfffffa8001f05040 Pid: 4 Tid: 1288
Tags: 
Created: 2019-12-11 13:41:53 UTC+0000
Exited: 1970-01-01 00:00:00 UTC+0000
Owning Process: System
Attached Process: System
State: Waiting:WrQueue
BasePriority: 0x8
Priority: 0x8
TEB: 0x00000000
StartAddress: 0xfffff880011b2a14 rdbss.sys
Win32Thread: 0x00000000
CrossThreadFlags: PS_CROSS_THREAD_FLAGS_DEADTHREAD
0xfffff880011b2a14 0fb64103         MOVZX EAX, BYTE [RCX+0x3]
0xfffff880011b2a18 488d15c1ceffff   LEA RDX, [RIP-0x313f]
0xfffff880011b2a1f 488d14c2         LEA RDX, [RDX+RAX*8]
0xfffff880011b2a23 e9e815feff       JMP 0xfffff88001194010
0xfffff880011b2a28 90               NOP
0xfffff880011b2a29 90               NOP
0xfffff880011b2a2a 90               NOP
0xfffff880011b2a2b 90               NOP
------
ETHREAD: 0xfffffa8001ef8a10 Pid: 876 Tid: 1280
Tags: 
Created: 2019-12-11 13:41:52 UTC+0000
Exited: 1970-01-01 00:00:00 UTC+0000
Owning Process: svchost.exe
Attached Process: svchost.exe
State: Waiting:UserRequest
BasePriority: 0x1
Priority: 0x1
TEB: 0x7fffff94000
StartAddress: 0x77cbc500 ntdll.dll
Win32Thread: 0x00000000
CrossThreadFlags: PS_CROSS_THREAD_FLAGS_DEADTHREAD
0x77cbc500 4883ec48         SUB RSP, 0x48
0x77cbc504 4c8bc9           MOV R9, RCX
0x77cbc507 488b0552da1000   MOV RAX, [RIP+0x10da52]
0x77cbc50e 4885c0           TEST RAX, RAX
0x77cbc511 0f84e3840300     JZ 0x77cf49fa
0x77cbc517 4c               DB 0x4c
------
ETHREAD: 0xfffffa80020a6b60 Pid: 480 Tid: 1592
Tags: 
Created: 2019-12-11 14:16:15 UTC+0000
Exited: 1970-01-01 00:00:00 UTC+0000
Owning Process: SearchIndexer.
Attached Process: SearchIndexer.
State: Waiting:WrQueue
BasePriority: 0x8
Priority: 0x8
TEB: 0x7fffffac000
StartAddress: 0x77cbc500 ntdll.dll
Win32Thread: 0x00000000
CrossThreadFlags: PS_CROSS_THREAD_FLAGS_DEADTHREAD
0x77cbc500 4883ec48         SUB RSP, 0x48
0x77cbc504 4c8bc9           MOV R9, RCX
0x77cbc507 488b0552da1000   MOV RAX, [RIP+0x10da52]
0x77cbc50e 4885c0           TEST RAX, RAX
0x77cbc511 0f84e3840300     JZ 0x77cf49fa
0x77cbc517 4c               DB 0x4c
------
ETHREAD: 0xfffffa800218b060 Pid: 296 Tid: 1532
Tags: 
Created: 2019-12-11 14:32:25 UTC+0000
Exited: 1970-01-01 00:00:00 UTC+0000
Owning Process: taskhost.exe
Attached Process: taskhost.exe
State: Waiting:UserRequest
BasePriority: 0x8
Priority: 0x8
TEB: 0x7fffffa6000
StartAddress: 0x77cbc500 ntdll.dll
Win32Thread: 0x00000000
CrossThreadFlags: PS_CROSS_THREAD_FLAGS_DEADTHREAD
0x77cbc500 4883ec48         SUB RSP, 0x48
0x77cbc504 4c8bc9           MOV R9, RCX
0x77cbc507 488b0552da1000   MOV RAX, [RIP+0x10da52]
0x77cbc50e 4885c0           TEST RAX, RAX
0x77cbc511 0f84e3840300     JZ 0x77cf49fa
0x77cbc517 4c               DB 0x4c
------
ETHREAD: 0xfffffa8000f3f2c0 Pid: 2908 Tid: 1604
Tags: 
Created: 2019-12-11 14:37:13 UTC+0000
Exited: 1970-01-01 00:00:00 UTC+0000
Owning Process: taskhost.exe
Attached Process: taskhost.exe
State: Waiting:UserRequest
BasePriority: 0x8
Priority: 0x8
TEB: 0x7fffffdb000
StartAddress: 0x77cbc500 ntdll.dll
Win32Thread: 0x00000000
CrossThreadFlags: PS_CROSS_THREAD_FLAGS_DEADTHREAD
0x77cbc500 4883ec48         SUB RSP, 0x48
0x77cbc504 4c8bc9           MOV R9, RCX
0x77cbc507 488b0552da1000   MOV RAX, [RIP+0x10da52]
0x77cbc50e 4885c0           TEST RAX, RAX
0x77cbc511 0f84e3840300     JZ 0x77cf49fa
0x77cbc517 4c               DB 0x4c
------
ETHREAD: 0xfffffa800143c710 Pid: 948 Tid: 916
Tags: 
Created: 2019-12-11 14:16:07 UTC+0000
Exited: 1970-01-01 00:00:00 UTC+0000
Owning Process: svchost.exe
Attached Process: svchost.exe
State: Waiting:UserRequest
BasePriority: 0x8
Priority: 0x9
TEB: 0x7fffffde000
StartAddress: 0x77cbc500 ntdll.dll
Win32Thread: 0x00000000
CrossThreadFlags: PS_CROSS_THREAD_FLAGS_DEADTHREAD
0x77cbc500 4883ec48         SUB RSP, 0x48
0x77cbc504 4c8bc9           MOV R9, RCX
0x77cbc507 488b0552da1000   MOV RAX, [RIP+0x10da52]
0x77cbc50e 4885c0           TEST RAX, RAX
0x77cbc511 0f84e3840300     JZ 0x77cf49fa
0x77cbc517 4c               DB 0x4c
------
ETHREAD: 0xfffffa8000e644b0 Pid: 604 Tid: 2228
Tags: 
Created: 2019-12-11 14:32:43 UTC+0000
Exited: 1970-01-01 00:00:00 UTC+0000
Owning Process: explorer.exe
Attached Process: explorer.exe
State: Waiting:WrUserRequest
BasePriority: 0xf
Priority: 0xf
TEB: 0x7fffff94000
StartAddress: 0x77cbc500 ntdll.dll
Win32Thread: 0xfffff900c1ae9010
CrossThreadFlags: PS_CROSS_THREAD_FLAGS_DEADTHREAD
0x77cbc500 4883ec48         SUB RSP, 0x48
0x77cbc504 4c8bc9           MOV R9, RCX
0x77cbc507 488b0552da1000   MOV RAX, [RIP+0x10da52]
0x77cbc50e 4885c0           TEST RAX, RAX
0x77cbc511 0f84e3840300     JZ 0x77cf49fa
0x77cbc517 4c               DB 0x4c
------
ETHREAD: 0xfffffa8001d9ba20 Pid: 816 Tid: 1728
Tags: 
Created: 2019-12-11 14:16:10 UTC+0000
Exited: 1970-01-01 00:00:00 UTC+0000
Owning Process: svchost.exe
Attached Process: svchost.exe
State: Waiting:UserRequest
BasePriority: 0x8
Priority: 0x9
TEB: 0x7fffff96000
StartAddress: 0xfffff8a001b70b70 UNKNOWN
Win32Thread: 0x00000000
CrossThreadFlags: PS_CROSS_THREAD_FLAGS_DEADTHREAD
0xfffff8a001b70b70 a0bdd90180faffffa0 MOV AL, [0xa0fffffa8001d9bd]
0xfffff8a001b70b79 bdd90180fa       MOV EBP, 0xfa8001d9
0xfffff8a001b70b7e ff               DB 0xff
0xfffff8a001b70b7f ff800bb701a0     INC DWORD [RAX-0x5ffe48f5]
0xfffff8a001b70b85 f8               CLC
0xfffff8a001b70b86 ff               DB 0xff
0xfffff8a001b70b87 ff               DB 0xff
------
ETHREAD: 0xfffffa8000cbab60 Pid: 4 Tid: 64
Tags: 
Created: 2019-12-11 13:41:22 UTC+0000
Exited: 1970-01-01 00:00:00 UTC+0000
Owning Process: System
Attached Process: System
State: Waiting:WrQueue
BasePriority: 0xc
Priority: 0xd
TEB: 0x00000000
StartAddress: 0xfffff800026a9910 ntoskrnl.exe
Win32Thread: 0x00000000
CrossThreadFlags: PS_CROSS_THREAD_FLAGS_DEADTHREAD
0xfffff800026a9910 4c8bdc           MOV R11, RSP
0xfffff800026a9913 49895b10         MOV [R11+0x10], RBX
0xfffff800026a9917 49896b18         MOV [R11+0x18], RBP
0xfffff800026a991b 49897320         MOV [R11+0x20], RSI
0xfffff800026a991f 57               PUSH RDI
0xfffff800026a9920 4154             PUSH R12
0xfffff800026a9922 4155             PUSH R13
0xfffff800026a9924 4156             PUSH R14
0xfffff800026a9926 4157             PUSH R15
------
ETHREAD: 0xfffffa80021f1850 Pid: 604 Tid: 2180
Tags: 
Created: 2019-12-11 14:32:37 UTC+0000
Exited: 1970-01-01 00:00:00 UTC+0000
Owning Process: explorer.exe
Attached Process: explorer.exe
State: Waiting:WrUserRequest
BasePriority: 0x8
Priority: 0xc
TEB: 0x7fffff98000
StartAddress: 0x77cbc500 ntdll.dll
Win32Thread: 0xfffff900c1e687e0
CrossThreadFlags: PS_CROSS_THREAD_FLAGS_DEADTHREAD
0x77cbc500 4883ec48         SUB RSP, 0x48
0x77cbc504 4c8bc9           MOV R9, RCX
0x77cbc507 488b0552da1000   MOV RAX, [RIP+0x10da52]
0x77cbc50e 4885c0           TEST RAX, RAX
0x77cbc511 0f84e3840300     JZ 0x77cf49fa
0x77cbc517 4c               DB 0x4c
------
ETHREAD: 0xfffffa8001e42b60 Pid: 296 Tid: 1880
Tags: 
Created: 2019-12-11 14:32:24 UTC+0000
Exited: 1970-01-01 00:00:00 UTC+0000
Owning Process: taskhost.exe
Attached Process: taskhost.exe
State: Waiting:UserRequest
BasePriority: 0x8
Priority: 0x8
TEB: 0x7fffffdb000
StartAddress: 0x77cbc500 ntdll.dll
Win32Thread: 0x00000000
CrossThreadFlags: PS_CROSS_THREAD_FLAGS_DEADTHREAD
0x77cbc500 4883ec48         SUB RSP, 0x48
0x77cbc504 4c8bc9           MOV R9, RCX
0x77cbc507 488b0552da1000   MOV RAX, [RIP+0x10da52]
0x77cbc50e 4885c0           TEST RAX, RAX
0x77cbc511 0f84e3840300     JZ 0x77cf49fa
0x77cbc517 4c               DB 0x4c
------
ETHREAD: 0xfffffa8000f8b060 Pid: 2504 Tid: 800
Tags: 
Created: 2019-12-11 14:37:14 UTC+0000
Exited: 1970-01-01 00:00:00 UTC+0000
Owning Process: explorer.exe
Attached Process: explorer.exe
State: Waiting:WrQueue
BasePriority: 0x8
Priority: 0xa
TEB: 0x7fffffa8000
StartAddress: 0x77cbc500 ntdll.dll
Win32Thread: 0xfffff900c226f410
CrossThreadFlags: PS_CROSS_THREAD_FLAGS_DEADTHREAD
0x77cbc500 4883ec48         SUB RSP, 0x48
0x77cbc504 4c8bc9           MOV R9, RCX
0x77cbc507 488b0552da1000   MOV RAX, [RIP+0x10da52]
0x77cbc50e 4885c0           TEST RAX, RAX
0x77cbc511 0f84e3840300     JZ 0x77cf49fa
0x77cbc517 4c               DB 0x4c
------
ETHREAD: 0x3fb32060 Pid: 2868 Tid: 1820
Tags: ScannerOnly
Created: 2019-12-11 14:37:23 UTC+0000
Exited: 1970-01-01 00:00:00 UTC+0000
Owning Process: SearchProtocol
Attached Process: SearchProtocol
State: Waiting:WrQueue
BasePriority: 0x4
Priority: 0x4
TEB: 0x7fffffd5000
StartAddress: 0x77cbc500 ntdll.dll
Win32Thread: 0xfffff900c1aebc30
CrossThreadFlags: PS_CROSS_THREAD_FLAGS_DEADTHREAD
0x77cbc500 4883ec48         SUB RSP, 0x48
0x77cbc504 4c8bc9           MOV R9, RCX
0x77cbc507 488b0552da1000   MOV RAX, [RIP+0x10da52]
0x77cbc50e 4885c0           TEST RAX, RAX
0x77cbc511 0f84e3840300     JZ 0x77cf49fa
0x77cbc517 4c               DB 0x4c
------
ETHREAD: 0xfffffa8000cbf680 Pid: 4 Tid: 96
Tags: 
Created: 2019-12-11 13:41:22 UTC+0000
Exited: 1970-01-01 00:00:00 UTC+0000
Owning Process: System
Attached Process: System
State: Waiting:Executive
BasePriority: 0x8
Priority: 0x17
TEB: 0x00000000
StartAddress: 0xfffff800026d3d20 ntoskrnl.exe
Win32Thread: 0x00000000
CrossThreadFlags: PS_CROSS_THREAD_FLAGS_DEADTHREAD
0xfffff800026d3d20 fff3             PUSH RBX
0xfffff800026d3d22 4883ec30         SUB RSP, 0x30
0xfffff800026d3d26 65488b0c2588010000 MOV RCX, [GS:0x188]
0xfffff800026d3d2f ba17000000       MOV EDX, 0x17
0xfffff800026d3d34 e8               DB 0xe8
0xfffff800026d3d35 27               DB 0x27
0xfffff800026d3d36 3afb             CMP BH, BL
------
ETHREAD: 0xfffffa8000d2f760 Pid: 1208 Tid: 1296
Tags: 
Created: 2019-12-11 14:15:59 UTC+0000
Exited: 1970-01-01 00:00:00 UTC+0000
Owning Process: spoolsv.exe
Attached Process: spoolsv.exe
State: Waiting:WrUserRequest
BasePriority: 0x8
Priority: 0xa
TEB: 0x7fffffaa000
StartAddress: 0x77cbc500 ntdll.dll
Win32Thread: 0xfffff900c1ac5570
CrossThreadFlags: PS_CROSS_THREAD_FLAGS_DEADTHREAD
0x77cbc500 4883ec48         SUB RSP, 0x48
0x77cbc504 4c8bc9           MOV R9, RCX
0x77cbc507 488b0552da1000   MOV RAX, [RIP+0x10da52]
0x77cbc50e 4885c0           TEST RAX, RAX
0x77cbc511 0f84e3840300     JZ 0x77cf49fa
0x77cbc517 4c               DB 0x4c
------
ETHREAD: 0xfffffa8001e4ba40 Pid: 816 Tid: 1032
Tags: 
Created: 2019-12-11 13:41:48 UTC+0000
Exited: 1970-01-01 00:00:00 UTC+0000
Owning Process: svchost.exe
Attached Process: svchost.exe
State: Waiting:UserRequest
BasePriority: 0x8
Priority: 0x9
TEB: 0x7fffffa2000
StartAddress: 0xfffff8a00178b410 UNKNOWN
Win32Thread: 0x00000000
CrossThreadFlags: PS_CROSS_THREAD_FLAGS_DEADTHREAD
0xfffff8a00178b410 c0bde40180faff   SAR BYTE [RBP-0x57ffe1c], 0xff
0xfffff8a00178b417 ffc0             INC EAX
0xfffff8a00178b419 bde40180fa       MOV EBP, 0xfa8001e4
0xfffff8a00178b41e ff               DB 0xff
0xfffff8a00178b41f ff20             JMP QWORD [RAX]
0xfffff8a00178b421 b478             MOV AH, 0x78
0xfffff8a00178b423 01               DB 0x1
0xfffff8a00178b424 a0               DB 0xa0
0xfffff8a00178b425 f8               CLC
0xfffff8a00178b426 ff               DB 0xff
0xfffff8a00178b427 ff               DB 0xff
------
ETHREAD: 0xfffffa800220b060 Pid: 472 Tid: 2328
Tags: 
Created: 2019-12-11 14:32:50 UTC+0000
Exited: 1970-01-01 00:00:00 UTC+0000
Owning Process: svchost.exe
Attached Process: svchost.exe
State: Waiting:WrQueue
BasePriority: 0x8
Priority: 0xa
TEB: 0x7fffff94000
StartAddress: 0x77cbc500 ntdll.dll
Win32Thread: 0x00000000
CrossThreadFlags: PS_CROSS_THREAD_FLAGS_DEADTHREAD
0x77cbc500 4883ec48         SUB RSP, 0x48
0x77cbc504 4c8bc9           MOV R9, RCX
0x77cbc507 488b0552da1000   MOV RAX, [RIP+0x10da52]
0x77cbc50e 4885c0           TEST RAX, RAX
0x77cbc511 0f84e3840300     JZ 0x77cf49fa
0x77cbc517 4c               DB 0x4c
------
ETHREAD: 0x3fb55060 Pid: 2260 Tid: 1732
Tags: ScannerOnly
Created: 2019-12-11 14:37:54 UTC+0000
Exited: 1970-01-01 00:00:00 UTC+0000
Owning Process: conhost.exe
Attached Process: conhost.exe
State: Waiting:WrLpcReceive
BasePriority: 0x8
Priority: 0xb
TEB: 0x7fffffdc000
StartAddress: 0x77cbc500 ntdll.dll
Win32Thread: 0xfffff900c1cf4c30
CrossThreadFlags: PS_CROSS_THREAD_FLAGS_DEADTHREAD
0x77cbc500 4883ec48         SUB RSP, 0x48
0x77cbc504 4c8bc9           MOV R9, RCX
0x77cbc507 488b0552da1000   MOV RAX, [RIP+0x10da52]
0x77cbc50e 4885c0           TEST RAX, RAX
0x77cbc511 0f84e3840300     JZ 0x77cf49fa
0x77cbc517 4c               DB 0x4c
------
ETHREAD: 0xfffffa8000ec7380 Pid: 2504 Tid: 2564
Tags: 
Created: 2019-12-11 14:37:24 UTC+0000
Exited: 1970-01-01 00:00:00 UTC+0000
Owning Process: explorer.exe
Attached Process: explorer.exe
State: Waiting:UserRequest
BasePriority: 0x8
Priority: 0x8
TEB: 0x7fffff72000
StartAddress: 0xfffff8a0022adb50 UNKNOWN
Win32Thread: 0x00000000
CrossThreadFlags: PS_CROSS_THREAD_FLAGS_DEADTHREAD
0xfffff8a0022adb50 0077ec           ADD [RDI-0x14], DH
0xfffff8a0022adb53 0080faffff00     ADD [RAX+0xfffffa], AL
0xfffff8a0022adb59 77ec             JA 0xfffff8a0022adb47
0xfffff8a0022adb5b 0080faffff60     ADD [RAX+0x60fffffa], AL
0xfffff8a0022adb61 db2a             FLD TBYTE [RDX]
0xfffff8a0022adb63 02               DB 0x2
0xfffff8a0022adb64 a0               DB 0xa0
0xfffff8a0022adb65 f8               CLC
0xfffff8a0022adb66 ff               DB 0xff
0xfffff8a0022adb67 ff               DB 0xff
------
ETHREAD: 0x3fa88b60 Pid: 2524 Tid: 2884
Tags: ScannerOnly
Created: 2019-12-11 14:37:21 UTC+0000
Exited: 1970-01-01 00:00:00 UTC+0000
Owning Process: SearchProtocol
Attached Process: SearchProtocol
State: Waiting:UserRequest
BasePriority: 0x4
Priority: 0x4
TEB: 0x7fffffde000
StartAddress: 0x77cbc500 ntdll.dll
Win32Thread: 0xfffff900c22fbc30
CrossThreadFlags: PS_CROSS_THREAD_FLAGS_DEADTHREAD
0x77cbc500 4883ec48         SUB RSP, 0x48
0x77cbc504 4c8bc9           MOV R9, RCX
0x77cbc507 488b0552da1000   MOV RAX, [RIP+0x10da52]
0x77cbc50e 4885c0           TEST RAX, RAX
0x77cbc511 0f84e3840300     JZ 0x77cf49fa
0x77cbc517 4c               DB 0x4c
------
ETHREAD: 0xfffffa8001e6e060 Pid: 1044 Tid: 1096
Tags: 
Created: 2019-12-11 13:41:48 UTC+0000
Exited: 1970-01-01 00:00:00 UTC+0000
Owning Process: svchost.exe
Attached Process: svchost.exe
State: Waiting:UserRequest
BasePriority: 0x8
Priority: 0x9
TEB: 0x7fffffac000
StartAddress: 0xfffff8a0017aca00 UNKNOWN
Win32Thread: 0x00000000
CrossThreadFlags: PS_CROSS_THREAD_FLAGS_DEADTHREAD
0xfffff8a0017aca00 e0e3             LOOPNZ 0xfffff8a0017ac9e5
0xfffff8a0017aca02 e601             OUT 0x1, AL
0xfffff8a0017aca04 80faff           CMP DL, 0xff
0xfffff8a0017aca07 ffe0             JMP RAX
0xfffff8a0017aca09 e3e6             JRCXZ 0xfffff8a0017ac9f1
0xfffff8a0017aca0b 0180faffff10     ADD [RAX+0x10fffffa], EAX
0xfffff8a0017aca11 ca7a01           RETF 0x17a
0xfffff8a0017aca14 a0               DB 0xa0
0xfffff8a0017aca15 f8               CLC
0xfffff8a0017aca16 ff               DB 0xff
0xfffff8a0017aca17 ff               DB 0xff
------
ETHREAD: 0xfffffa8001e17060 Pid: 852 Tid: 316
Tags: 
Created: 2019-12-11 13:41:46 UTC+0000
Exited: 1970-01-01 00:00:00 UTC+0000
Owning Process: svchost.exe
Attached Process: svchost.exe
State: Waiting:UserRequest
BasePriority: 0x8
Priority: 0x9
TEB: 0x7fffffa4000
StartAddress: 0x77cbc500 ntdll.dll
Win32Thread: 0xfffff900c1aad010
CrossThreadFlags: PS_CROSS_THREAD_FLAGS_DEADTHREAD
0x77cbc500 4883ec48         SUB RSP, 0x48
0x77cbc504 4c8bc9           MOV R9, RCX
0x77cbc507 488b0552da1000   MOV RAX, [RIP+0x10da52]
0x77cbc50e 4885c0           TEST RAX, RAX
0x77cbc511 0f84e3840300     JZ 0x77cf49fa
0x77cbc517 4c               DB 0x4c
------
ETHREAD: 0x3fb1d060 Pid: 480 Tid: 2840
Tags: ScannerOnly
Created: 2019-12-11 14:37:21 UTC+0000
Exited: 1970-01-01 00:00:00 UTC+0000
Owning Process: SearchIndexer.
Attached Process: SearchIndexer.
State: Waiting:WrQueue
BasePriority: 0x8
Priority: 0x8
TEB: 0x7fffff9e000
StartAddress: 0x77cbc500 ntdll.dll
Win32Thread: 0x00000000
CrossThreadFlags: PS_CROSS_THREAD_FLAGS_DEADTHREAD
0x77cbc500 4883ec48         SUB RSP, 0x48
0x77cbc504 4c8bc9           MOV R9, RCX
0x77cbc507 488b0552da1000   MOV RAX, [RIP+0x10da52]
0x77cbc50e 4885c0           TEST RAX, RAX
0x77cbc511 0f84e3840300     JZ 0x77cf49fa
0x77cbc517 4c               DB 0x4c
------
ETHREAD: 0xfffffa8001f43a50 Pid: 1248 Tid: 1340
Tags: 
Created: 2019-12-11 13:41:54 UTC+0000
Exited: 1970-01-01 00:00:00 UTC+0000
Owning Process: svchost.exe
Attached Process: svchost.exe
State: Waiting:WrQueue
BasePriority: 0x8
Priority: 0x9
TEB: 0x7fffffa4000
StartAddress: 0xfffff8a0000eb5c0 UNKNOWN
Win32Thread: 0x00000000
CrossThreadFlags: PS_CROSS_THREAD_FLAGS_DEADTHREAD
0xfffff8a0000eb5c0 d03df40180fa     SAR BYTE [RIP-0x57ffe0c], 0x1
0xfffff8a0000eb5c6 ff               DB 0xff
0xfffff8a0000eb5c7 ffd0             CALL RAX
0xfffff8a0000eb5c9 3df40180fa       CMP EAX, 0xfa8001f4
0xfffff8a0000eb5ce ff               DB 0xff
0xfffff8a0000eb5cf ffd0             CALL RAX
0xfffff8a0000eb5d1 b50e             MOV CH, 0xe
0xfffff8a0000eb5d3 00               DB 0x0
0xfffff8a0000eb5d4 a0               DB 0xa0
0xfffff8a0000eb5d5 f8               CLC
0xfffff8a0000eb5d6 ff               DB 0xff
0xfffff8a0000eb5d7 ff               DB 0xff
------
ETHREAD: 0xfffffa80021e2160 Pid: 1844 Tid: 2112
Tags: 
Created: 2019-12-11 14:32:37 UTC+0000
Exited: 1970-01-01 00:00:00 UTC+0000
Owning Process: VBoxTray.exe
Attached Process: VBoxTray.exe
State: Waiting:UserRequest
BasePriority: 0x8
Priority: 0xa
TEB: 0x7fffffaa000
StartAddress: 0x77cbc500 ntdll.dll
Win32Thread: 0x00000000
CrossThreadFlags: PS_CROSS_THREAD_FLAGS_DEADTHREAD
0x77cbc500 4883ec48         SUB RSP, 0x48
0x77cbc504 4c8bc9           MOV R9, RCX
0x77cbc507 488b0552da1000   MOV RAX, [RIP+0x10da52]
0x77cbc50e 4885c0           TEST RAX, RAX
0x77cbc511 0f84e3840300     JZ 0x77cf49fa
0x77cbc517 4c               DB 0x4c
------
ETHREAD: 0xfffffa8000eabb60 Pid: 2424 Tid: 3036
Tags: 
Created: 2019-12-11 14:35:14 UTC+0000
Exited: 1970-01-01 00:00:00 UTC+0000
Owning Process: mspaint.exe
Attached Process: mspaint.exe
State: Waiting:WrQueue
BasePriority: 0x8
Priority: 0xa
TEB: 0x7fffffd5000
StartAddress: 0x77cbc500 ntdll.dll
Win32Thread: 0x00000000
CrossThreadFlags: PS_CROSS_THREAD_FLAGS_DEADTHREAD
0x77cbc500 4883ec48         SUB RSP, 0x48
0x77cbc504 4c8bc9           MOV R9, RCX
0x77cbc507 488b0552da1000   MOV RAX, [RIP+0x10da52]
0x77cbc50e 4885c0           TEST RAX, RAX
0x77cbc511 0f84e3840300     JZ 0x77cf49fa
0x77cbc517 4c               DB 0x4c
------
ETHREAD: 0xfffffa80021dc770 Pid: 1844 Tid: 2088
Tags: 
Created: 2019-12-11 14:32:37 UTC+0000
Exited: 2019-12-11 14:37:14 UTC+0000
Owning Process: VBoxTray.exe
Attached Process: VBoxTray.exe
State: Terminated
BasePriority: 0x8
Priority: 0x9
TEB: 0x00000000
StartAddress: 0x77cbc500 ntdll.dll
Win32Thread: 0x00000000
CrossThreadFlags: PS_CROSS_THREAD_FLAGS_DEADTHREAD, PS_CROSS_THREAD_FLAGS_TERMINATED
0x77cbc500 4883ec48         SUB RSP, 0x48
0x77cbc504 4c8bc9           MOV R9, RCX
0x77cbc507 488b0552da1000   MOV RAX, [RIP+0x10da52]
0x77cbc50e 4885c0           TEST RAX, RAX
0x77cbc511 0f84e3840300     JZ 0x77cf49fa
0x77cbc517 4c               DB 0x4c
------
ETHREAD: 0xfffffa8000f9b060 Pid: 2504 Tid: 2876
Tags: 
Created: 2019-12-11 14:37:14 UTC+0000
Exited: 1970-01-01 00:00:00 UTC+0000
Owning Process: explorer.exe
Attached Process: explorer.exe
State: Waiting:WrUserRequest
BasePriority: 0x8
Priority: 0xc
TEB: 0x7fffffaa000
StartAddress: 0x77cbc500 ntdll.dll
Win32Thread: 0xfffff900c226f850
CrossThreadFlags: PS_CROSS_THREAD_FLAGS_DEADTHREAD
0x77cbc500 4883ec48         SUB RSP, 0x48
0x77cbc504 4c8bc9           MOV R9, RCX
0x77cbc507 488b0552da1000   MOV RAX, [RIP+0x10da52]
0x77cbc50e 4885c0           TEST RAX, RAX
0x77cbc511 0f84e3840300     JZ 0x77cf49fa
0x77cbc517 4c               DB 0x4c
------
ETHREAD: 0xfffffa8000d3b950 Pid: 1372 Tid: 1528
Tags: 
Created: 2019-12-11 14:16:06 UTC+0000
Exited: 1970-01-01 00:00:00 UTC+0000
Owning Process: svchost.exe
Attached Process: svchost.exe
State: Waiting:WrLpcReceive
BasePriority: 0x8
Priority: 0x8
TEB: 0x7fffffda000
StartAddress: 0x77cbc500 ntdll.dll
Win32Thread: 0x00000000
CrossThreadFlags: PS_CROSS_THREAD_FLAGS_DEADTHREAD
0x77cbc500 4883ec48         SUB RSP, 0x48
0x77cbc504 4c8bc9           MOV R9, RCX
0x77cbc507 488b0552da1000   MOV RAX, [RIP+0x10da52]
0x77cbc50e 4885c0           TEST RAX, RAX
0x77cbc511 0f84e3840300     JZ 0x77cf49fa
0x77cbc517 4c               DB 0x4c
------
ETHREAD: 0xfffffa8000efc060 Pid: 2504 Tid: 1524
Tags: 
Created: 2019-12-11 14:37:19 UTC+0000
Exited: 1970-01-01 00:00:00 UTC+0000
Owning Process: explorer.exe
Attached Process: explorer.exe
State: Waiting:UserRequest
BasePriority: 0x8
Priority: 0xb
TEB: 0x7fffff96000
StartAddress: 0xfffff8a002063c10 UNKNOWN
Win32Thread: 0xfffff900c2173c30
CrossThreadFlags: PS_CROSS_THREAD_FLAGS_DEADTHREAD
0xfffff8a002063c10 e0c3             LOOPNZ 0xfffff8a002063bd5
0xfffff8a002063c12 ef               OUT DX, EAX
0xfffff8a002063c13 0080faffffe0     ADD [RAX-0x1f000006], AL
0xfffff8a002063c19 c3               RET
0xfffff8a002063c1a ef               OUT DX, EAX
0xfffff8a002063c1b 0080faffff20     ADD [RAX+0x20fffffa], AL
0xfffff8a002063c21 3c06             CMP AL, 0x6
0xfffff8a002063c23 02               DB 0x2
0xfffff8a002063c24 a0               DB 0xa0
0xfffff8a002063c25 f8               CLC
0xfffff8a002063c26 ff               DB 0xff
0xfffff8a002063c27 ff               DB 0xff
------
ETHREAD: 0xfffffa8001d65a60 Pid: 500 Tid: 764
Tags: 
Created: 2019-12-11 13:41:41 UTC+0000
Exited: 1970-01-01 00:00:00 UTC+0000
Owning Process: lsm.exe
Attached Process: lsm.exe
State: Waiting:WrLpcReceive
BasePriority: 0x8
Priority: 0x9
TEB: 0x7fffffd4000
StartAddress: 0x77cbc500 ntdll.dll
Win32Thread: 0x00000000
CrossThreadFlags: PS_CROSS_THREAD_FLAGS_DEADTHREAD
0x77cbc500 4883ec48         SUB RSP, 0x48
0x77cbc504 4c8bc9           MOV R9, RCX
0x77cbc507 488b0552da1000   MOV RAX, [RIP+0x10da52]
0x77cbc50e 4885c0           TEST RAX, RAX
0x77cbc511 0f84e3840300     JZ 0x77cf49fa
0x77cbc517 4c               DB 0x4c
------
ETHREAD: 0xfffffa80022b3710 Pid: 500 Tid: 2644
Tags: 
Created: 2019-12-11 14:37:05 UTC+0000
Exited: 1970-01-01 00:00:00 UTC+0000
Owning Process: lsm.exe
Attached Process: lsm.exe
State: Waiting:WrQueue
BasePriority: 0x8
Priority: 0x9
TEB: 0x7fffffa4000
StartAddress: 0x77cbc500 ntdll.dll
Win32Thread: 0x00000000
CrossThreadFlags: PS_CROSS_THREAD_FLAGS_DEADTHREAD
0x77cbc500 4883ec48         SUB RSP, 0x48
0x77cbc504 4c8bc9           MOV R9, RCX
0x77cbc507 488b0552da1000   MOV RAX, [RIP+0x10da52]
0x77cbc50e 4885c0           TEST RAX, RAX
0x77cbc511 0f84e3840300     JZ 0x77cf49fa
0x77cbc517 4c               DB 0x4c
------
ETHREAD: 0xfffffa8001f4cb60 Pid: 296 Tid: 596
Tags: 
Created: 2019-12-11 14:32:24 UTC+0000
Exited: 1970-01-01 00:00:00 UTC+0000
Owning Process: taskhost.exe
Attached Process: taskhost.exe
State: Waiting:UserRequest
BasePriority: 0x8
Priority: 0xa
TEB: 0x7fffffd9000
StartAddress: 0xfffff8a0000b67d0 UNKNOWN
Win32Thread: 0xfffff900c21963b0
CrossThreadFlags: PS_CROSS_THREAD_FLAGS_DEADTHREAD
0xfffff8a0000b67d0 e0ce             LOOPNZ 0xfffff8a0000b67a0
0xfffff8a0000b67d2 f4               HLT
0xfffff8a0000b67d3 0180faffffe0     ADD [RAX-0x1f000006], EAX
0xfffff8a0000b67d9 ce               DB 0xce
0xfffff8a0000b67da f4               HLT
0xfffff8a0000b67db 0180faffffe0     ADD [RAX-0x1f000006], EAX
0xfffff8a0000b67e1 670b00           OR EAX, [EAX]
0xfffff8a0000b67e4 a0               DB 0xa0
0xfffff8a0000b67e5 f8               CLC
0xfffff8a0000b67e6 ff               DB 0xff
0xfffff8a0000b67e7 ff               DB 0xff
------
ETHREAD: 0xfffffa800101e840 Pid: 2868 Tid: 1156
Tags: 
Created: 2019-12-11 14:37:23 UTC+0000
Exited: 1970-01-01 00:00:00 UTC+0000
Owning Process: SearchProtocol
Attached Process: SearchProtocol
State: Waiting:UserRequest
BasePriority: 0x4
Priority: 0x4
TEB: 0x7fffffde000
StartAddress: 0x77cbc500 ntdll.dll
Win32Thread: 0xfffff900c1ae7010
CrossThreadFlags: PS_CROSS_THREAD_FLAGS_DEADTHREAD
0x77cbc500 4883ec48         SUB RSP, 0x48
0x77cbc504 4c8bc9           MOV R9, RCX
0x77cbc507 488b0552da1000   MOV RAX, [RIP+0x10da52]
0x77cbc50e 4885c0           TEST RAX, RAX
0x77cbc511 0f84e3840300     JZ 0x77cf49fa
0x77cbc517 4c               DB 0x4c
------
ETHREAD: 0xfffffa8002190b60 Pid: 2504 Tid: 2920
Tags: 
Created: 2019-12-11 14:37:19 UTC+0000
Exited: 1970-01-01 00:00:00 UTC+0000
Owning Process: explorer.exe
Attached Process: explorer.exe
State: Waiting:UserRequest
BasePriority: 0x8
Priority: 0xb
TEB: 0x7fffff8a000
StartAddress: 0x77cbc500 ntdll.dll
Win32Thread: 0xfffff900c22e9c30
CrossThreadFlags: PS_CROSS_THREAD_FLAGS_DEADTHREAD
0x77cbc500 4883ec48         SUB RSP, 0x48
0x77cbc504 4c8bc9           MOV R9, RCX
0x77cbc507 488b0552da1000   MOV RAX, [RIP+0x10da52]
0x77cbc50e 4885c0           TEST RAX, RAX
0x77cbc511 0f84e3840300     JZ 0x77cf49fa
0x77cbc517 4c               DB 0x4c
------
ETHREAD: 0x3faef060 Pid: 1844 Tid: 2996
Tags: ScannerOnly
Created: 2019-12-11 14:38:12 UTC+0000
Exited: 2019-12-11 14:38:12 UTC+0000
Owning Process: VBoxTray.exe
Attached Process: VBoxTray.exe
State: Terminated
BasePriority: 0x8
Priority: 0x8
TEB: 0x00000000
StartAddress: 0x77cbc500 ntdll.dll
Win32Thread: 0x00000000
CrossThreadFlags: PS_CROSS_THREAD_FLAGS_DEADTHREAD, PS_CROSS_THREAD_FLAGS_TERMINATED
0x77cbc500 4883ec48         SUB RSP, 0x48
0x77cbc504 4c8bc9           MOV R9, RCX
0x77cbc507 488b0552da1000   MOV RAX, [RIP+0x10da52]
0x77cbc50e 4885c0           TEST RAX, RAX
0x77cbc511 0f84e3840300     JZ 0x77cf49fa
0x77cbc517 4c               DB 0x4c
------
ETHREAD: 0xfffffa8001cf1b60 Pid: 1044 Tid: 400
Tags: 
Created: 2019-12-11 14:16:09 UTC+0000
Exited: 1970-01-01 00:00:00 UTC+0000
Owning Process: svchost.exe
Attached Process: svchost.exe
State: Waiting:WrLpcReply
BasePriority: 0x8
Priority: 0x8
TEB: 0x7fffffd8000
StartAddress: 0x77cbc500 ntdll.dll
Win32Thread: 0x00000000
CrossThreadFlags: PS_CROSS_THREAD_FLAGS_DEADTHREAD
0x77cbc500 4883ec48         SUB RSP, 0x48
0x77cbc504 4c8bc9           MOV R9, RCX
0x77cbc507 488b0552da1000   MOV RAX, [RIP+0x10da52]
0x77cbc50e 4885c0           TEST RAX, RAX
0x77cbc511 0f84e3840300     JZ 0x77cf49fa
0x77cbc517 4c               DB 0x4c
------
ETHREAD: 0xfffffa8000fb3b60 Pid: 2304 Tid: 2452
Tags: 
Created: 2019-12-11 14:37:14 UTC+0000
Exited: 1970-01-01 00:00:00 UTC+0000
Owning Process: VBoxTray.exe
Attached Process: VBoxTray.exe
State: Waiting:DelayExecution
BasePriority: 0x8
Priority: 0x9
TEB: 0x7fffffa8000
StartAddress: 0x77cbc500 ntdll.dll
Win32Thread: 0x00000000
CrossThreadFlags: PS_CROSS_THREAD_FLAGS_DEADTHREAD
0x77cbc500 4883ec48         SUB RSP, 0x48
0x77cbc504 4c8bc9           MOV R9, RCX
0x77cbc507 488b0552da1000   MOV RAX, [RIP+0x10da52]
0x77cbc50e 4885c0           TEST RAX, RAX
0x77cbc511 0f84e3840300     JZ 0x77cf49fa
0x77cbc517 4c               DB 0x4c
------
ETHREAD: 0xfffffa8001f42060 Pid: 1248 Tid: 1336
Tags: 
Created: 2019-12-11 13:41:54 UTC+0000
Exited: 1970-01-01 00:00:00 UTC+0000
Owning Process: svchost.exe
Attached Process: svchost.exe
State: Waiting:UserRequest
BasePriority: 0x8
Priority: 0x9
TEB: 0x7fffffa6000
StartAddress: 0xfffff8a001976020 UNKNOWN
Win32Thread: 0x00000000
CrossThreadFlags: PS_CROSS_THREAD_FLAGS_DEADTHREAD
0xfffff8a001976020 e023             LOOPNZ 0xfffff8a001976045
0xfffff8a001976022 f4               HLT
0xfffff8a001976023 0180faffffe0     ADD [RAX-0x1f000006], EAX
0xfffff8a001976029 23f4             AND ESI, ESP
0xfffff8a00197602b 0180faffff30     ADD [RAX+0x30fffffa], EAX
0xfffff8a001976031 60               DB 0x60
0xfffff8a001976032 97               XCHG EDI, EAX
0xfffff8a001976033 01               DB 0x1
0xfffff8a001976034 a0               DB 0xa0
0xfffff8a001976035 f8               CLC
0xfffff8a001976036 ff               DB 0xff
0xfffff8a001976037 ff               DB 0xff
------
ETHREAD: 0xfffffa8001c61a80 Pid: 484 Tid: 488
Tags: 
Created: 2019-12-11 13:41:35 UTC+0000
Exited: 2019-12-11 13:42:28 UTC+0000
Owning Process: services.exe
Attached Process: services.exe
State: Terminated
BasePriority: 0x7
Priority: 0x7
TEB: 0x00000000
StartAddress: 0xfffffa8001c61e00 UNKNOWN
Win32Thread: 0x00000000
CrossThreadFlags: PS_CROSS_THREAD_FLAGS_DEADTHREAD, PS_CROSS_THREAD_FLAGS_TERMINATED
0xfffffa8001c61e00 001e             ADD [RSI], BL
0xfffffa8001c61e02 c60180           MOV BYTE [RCX], 0x80
0xfffffa8001c61e05 fa               CLI
0xfffffa8001c61e06 ff               DB 0xff
0xfffffa8001c61e07 ff00             INC DWORD [RAX]
0xfffffa8001c61e09 1e               DB 0x1e
0xfffffa8001c61e0a c60180           MOV BYTE [RCX], 0x80
0xfffffa8001c61e0d fa               CLI
0xfffffa8001c61e0e ff               DB 0xff
0xfffffa8001c61e0f ff00             INC DWORD [RAX]
0xfffffa8001c61e11 0000             ADD [RAX], AL
0xfffffa8001c61e13 0000             ADD [RAX], AL
0xfffffa8001c61e15 0000             ADD [RAX], AL
0xfffffa8001c61e17 00               DB 0x0
------
ETHREAD: 0xfffffa8001e181c0 Pid: 852 Tid: 276
Tags: 
Created: 2019-12-11 13:41:47 UTC+0000
Exited: 2019-12-11 14:17:14 UTC+0000
Owning Process: svchost.exe
Attached Process: svchost.exe
State: Terminated
BasePriority: 0x8
Priority: 0x8
TEB: 0x00000000
StartAddress: 0x77cbc500 ntdll.dll
Win32Thread: 0x00000000
CrossThreadFlags: PS_CROSS_THREAD_FLAGS_DEADTHREAD, PS_CROSS_THREAD_FLAGS_TERMINATED
0x77cbc500 4883ec48         SUB RSP, 0x48
0x77cbc504 4c8bc9           MOV R9, RCX
0x77cbc507 488b0552da1000   MOV RAX, [RIP+0x10da52]
0x77cbc50e 4885c0           TEST RAX, RAX
0x77cbc511 0f84e3840300     JZ 0x77cf49fa
0x77cbc517 4c               DB 0x4c
------
ETHREAD: 0xfffffa800204f390 Pid: 876 Tid: 1644
Tags: 
Created: 2019-12-11 13:41:59 UTC+0000
Exited: 1970-01-01 00:00:00 UTC+0000
Owning Process: svchost.exe
Attached Process: svchost.exe
State: Waiting:UserRequest
BasePriority: 0x8
Priority: 0x8
TEB: 0x7fffff84000
StartAddress: 0x77cbc500 ntdll.dll
Win32Thread: 0x00000000
CrossThreadFlags: PS_CROSS_THREAD_FLAGS_DEADTHREAD
0x77cbc500 4883ec48         SUB RSP, 0x48
0x77cbc504 4c8bc9           MOV R9, RCX
0x77cbc507 488b0552da1000   MOV RAX, [RIP+0x10da52]
0x77cbc50e 4885c0           TEST RAX, RAX
0x77cbc511 0f84e3840300     JZ 0x77cf49fa
0x77cbc517 4c               DB 0x4c
------
ETHREAD: 0xfffffa8000cb8b60 Pid: 4 Tid: 40
Tags: 
Created: 2019-12-11 13:41:22 UTC+0000
Exited: 1970-01-01 00:00:00 UTC+0000
Owning Process: System
Attached Process: System
State: Waiting:WrQueue
BasePriority: 0xd
Priority: 0xd
TEB: 0x00000000
StartAddress: 0xfffff800026a9910 ntoskrnl.exe
Win32Thread: 0x00000000
CrossThreadFlags: PS_CROSS_THREAD_FLAGS_DEADTHREAD
0xfffff800026a9910 4c8bdc           MOV R11, RSP
0xfffff800026a9913 49895b10         MOV [R11+0x10], RBX
0xfffff800026a9917 49896b18         MOV [R11+0x18], RBP
0xfffff800026a991b 49897320         MOV [R11+0x20], RSI
0xfffff800026a991f 57               PUSH RDI
0xfffff800026a9920 4154             PUSH R12
0xfffff800026a9922 4155             PUSH R13
0xfffff800026a9924 4156             PUSH R14
0xfffff800026a9926 4157             PUSH R15
------
ETHREAD: 0xfffffa8001fc6040 Pid: 4 Tid: 1452
Tags: 
Created: 2019-12-11 13:41:56 UTC+0000
Exited: 1970-01-01 00:00:00 UTC+0000
Owning Process: System
Attached Process: System
State: Waiting:Executive
BasePriority: 0x8
Priority: 0x8
TEB: 0x00000000
StartAddress: 0xfffff8800247f010 HTTP.sys
Win32Thread: 0x00000000
CrossThreadFlags: PS_CROSS_THREAD_FLAGS_DEADTHREAD, PS_CROSS_THREAD_FLAGS_HARD_ERRORS_DISABLED
0xfffff8800247f010 48895c2410       MOV [RSP+0x10], RBX
0xfffff8800247f015 48896c2418       MOV [RSP+0x18], RBP
0xfffff8800247f01a 4889742420       MOV [RSP+0x20], RSI
0xfffff8800247f01f 57               PUSH RDI
0xfffff8800247f020 4154             PUSH R12
0xfffff8800247f022 4155             PUSH R13
0xfffff8800247f024 4156             PUSH R14
0xfffff8800247f026 4157             PUSH R15
------
ETHREAD: 0xfffffa8001027060 Pid: 2868 Tid: 2268
Tags: 
Created: 2019-12-11 14:37:23 UTC+0000
Exited: 1970-01-01 00:00:00 UTC+0000
Owning Process: SearchProtocol
Attached Process: SearchProtocol
State: Waiting:UserRequest
BasePriority: 0x4
Priority: 0x4
TEB: 0x7fffffd7000
StartAddress: 0xfffff8a0022326f0 UNKNOWN
Win32Thread: 0xfffff900c1aeb010
CrossThreadFlags: PS_CROSS_THREAD_FLAGS_DEADTHREAD
0xfffff8a0022326f0 e073             LOOPNZ 0xfffff8a002232765
0xfffff8a0022326f2 0201             ADD AL, [RCX]
0xfffff8a0022326f4 80faff           CMP DL, 0xff
0xfffff8a0022326f7 ffe0             JMP RAX
0xfffff8a0022326f9 7302             JAE 0xfffff8a0022326fd
0xfffff8a0022326fb 0180faffff00     ADD [RAX+0xfffffa], EAX
0xfffff8a002232701 27               DB 0x27
0xfffff8a002232702 2302             AND EAX, [RDX]
0xfffff8a002232704 a0               DB 0xa0
0xfffff8a002232705 f8               CLC
0xfffff8a002232706 ff               DB 0xff
0xfffff8a002232707 ff               DB 0xff
------
ETHREAD: 0xfffffa8002273a90 Pid: 2368 Tid: 2708
Tags: 
Created: 2019-12-11 14:33:03 UTC+0000
Exited: 1970-01-01 00:00:00 UTC+0000
Owning Process: svchost.exe
Attached Process: svchost.exe
State: Waiting:WrQueue
BasePriority: 0x8
Priority: 0x9
TEB: 0x7fffffac000
StartAddress: 0xfffff8a002133a50 UNKNOWN
Win32Thread: 0x00000000
CrossThreadFlags: PS_CROSS_THREAD_FLAGS_DEADTHREAD
0xfffff8a002133a50 103e             ADC [RSI], BH
0xfffff8a002133a52 27               DB 0x27
0xfffff8a002133a53 0280faffff50     ADD AL, [RAX+0x50fffffa]
0xfffff8a002133a59 7622             JBE 0xfffff8a002133a7d
0xfffff8a002133a5b 02a0f8ffff60     ADD AH, [RAX+0x60fffff8]
0xfffff8a002133a61 3a13             CMP DL, [RBX]
0xfffff8a002133a63 02               DB 0x2
0xfffff8a002133a64 a0               DB 0xa0
0xfffff8a002133a65 f8               CLC
0xfffff8a002133a66 ff               DB 0xff
0xfffff8a002133a67 ff               DB 0xff
------
ETHREAD: 0xfffffa8000cfb040 Pid: 4 Tid: 128
Tags: 
Created: 2019-12-11 13:41:22 UTC+0000
Exited: 1970-01-01 00:00:00 UTC+0000
Owning Process: System
Attached Process: System
State: Waiting:Executive
BasePriority: 0xf
Priority: 0xf
TEB: 0x00000000
StartAddress: 0xfffff800029bb064 ntoskrnl.exe
Win32Thread: 0x00000000
CrossThreadFlags: PS_CROSS_THREAD_FLAGS_DEADTHREAD
0xfffff800029bb064 48895c2410       MOV [RSP+0x10], RBX
0xfffff800029bb069 48896c2418       MOV [RSP+0x18], RBP
0xfffff800029bb06e 4889742420       MOV [RSP+0x20], RSI
0xfffff800029bb073 57               PUSH RDI
0xfffff800029bb074 4154             PUSH R12
0xfffff800029bb076 4155             PUSH R13
0xfffff800029bb078 4156             PUSH R14
0xfffff800029bb07a 4157             PUSH R15
------
ETHREAD: 0xfffffa8001ce9060 Pid: 500 Tid: 568
Tags: 
Created: 2019-12-11 13:41:39 UTC+0000
Exited: 1970-01-01 00:00:00 UTC+0000
Owning Process: lsm.exe
Attached Process: lsm.exe
State: Waiting:UserRequest
BasePriority: 0x8
Priority: 0x9
TEB: 0x7fffffda000
StartAddress: 0x77cbc500 ntdll.dll
Win32Thread: 0x00000000
CrossThreadFlags: PS_CROSS_THREAD_FLAGS_DEADTHREAD
0x77cbc500 4883ec48         SUB RSP, 0x48
0x77cbc504 4c8bc9           MOV R9, RCX
0x77cbc507 488b0552da1000   MOV RAX, [RIP+0x10da52]
0x77cbc50e 4885c0           TEST RAX, RAX
0x77cbc511 0f84e3840300     JZ 0x77cf49fa
0x77cbc517 4c               DB 0x4c
------
ETHREAD: 0xfffffa8001ebbb60 Pid: 4 Tid: 1200
Tags: 
Created: 2019-12-11 13:41:51 UTC+0000
Exited: 1970-01-01 00:00:00 UTC+0000
Owning Process: System
Attached Process: System
State: Waiting:Executive
BasePriority: 0xb
Priority: 0xb
TEB: 0x00000000
StartAddress: 0xfffff8800247f010 HTTP.sys
Win32Thread: 0x00000000
CrossThreadFlags: PS_CROSS_THREAD_FLAGS_DEADTHREAD, PS_CROSS_THREAD_FLAGS_HARD_ERRORS_DISABLED
0xfffff8800247f010 48895c2410       MOV [RSP+0x10], RBX
0xfffff8800247f015 48896c2418       MOV [RSP+0x18], RBP
0xfffff8800247f01a 4889742420       MOV [RSP+0x20], RSI
0xfffff8800247f01f 57               PUSH RDI
0xfffff8800247f020 4154             PUSH R12
0xfffff8800247f022 4155             PUSH R13
0xfffff8800247f024 4156             PUSH R14
0xfffff8800247f026 4157             PUSH R15
------
ETHREAD: 0xfffffa8001f449e0 Pid: 1248 Tid: 1344
Tags: 
Created: 2019-12-11 13:41:54 UTC+0000
Exited: 1970-01-01 00:00:00 UTC+0000
Owning Process: svchost.exe
Attached Process: svchost.exe
State: Waiting:UserRequest
BasePriority: 0x8
Priority: 0x9
TEB: 0x7fffffa2000
StartAddress: 0x77cbc500 ntdll.dll
Win32Thread: 0x00000000
CrossThreadFlags: PS_CROSS_THREAD_FLAGS_DEADTHREAD
0x77cbc500 4883ec48         SUB RSP, 0x48
0x77cbc504 4c8bc9           MOV R9, RCX
0x77cbc507 488b0552da1000   MOV RAX, [RIP+0x10da52]
0x77cbc50e 4885c0           TEST RAX, RAX
0x77cbc511 0f84e3840300     JZ 0x77cf49fa
0x77cbc517 4c               DB 0x4c
------
ETHREAD: 0xfffffa8001f0c060 Pid: 948 Tid: 1968
Tags: 
Created: 2019-12-11 14:17:08 UTC+0000
Exited: 1970-01-01 00:00:00 UTC+0000
Owning Process: svchost.exe
Attached Process: svchost.exe
State: Waiting:WrQueue
BasePriority: 0x8
Priority: 0x8
TEB: 0x7fffffa2000
StartAddress: 0x77cbc500 ntdll.dll
Win32Thread: 0x00000000
CrossThreadFlags: PS_CROSS_THREAD_FLAGS_DEADTHREAD
0x77cbc500 4883ec48         SUB RSP, 0x48
0x77cbc504 4c8bc9           MOV R9, RCX
0x77cbc507 488b0552da1000   MOV RAX, [RIP+0x10da52]
0x77cbc50e 4885c0           TEST RAX, RAX
0x77cbc511 0f84e3840300     JZ 0x77cf49fa
0x77cbc517 4c               DB 0x4c
------
ETHREAD: 0xfffffa8000ef62a0 Pid: 604 Tid: 1852
Tags: 
Created: 2019-12-11 14:37:06 UTC+0000
Exited: 1970-01-01 00:00:00 UTC+0000
Owning Process: explorer.exe
Attached Process: explorer.exe
State: Waiting:UserRequest
BasePriority: 0x8
Priority: 0xa
TEB: 0x7fffffda000
StartAddress: 0x77cbc500 ntdll.dll
Win32Thread: 0xfffff900c018fc30
CrossThreadFlags: PS_CROSS_THREAD_FLAGS_DEADTHREAD
0x77cbc500 4883ec48         SUB RSP, 0x48
0x77cbc504 4c8bc9           MOV R9, RCX
0x77cbc507 488b0552da1000   MOV RAX, [RIP+0x10da52]
0x77cbc50e 4885c0           TEST RAX, RAX
0x77cbc511 0f84e3840300     JZ 0x77cf49fa
0x77cbc517 4c               DB 0x4c
------
ETHREAD: 0xfffffa8000cbbb60 Pid: 4 Tid: 76
Tags: 
Created: 2019-12-11 13:41:22 UTC+0000
Exited: 1970-01-01 00:00:00 UTC+0000
Owning Process: System
Attached Process: System
State: Waiting:Executive
BasePriority: 0xe
Priority: 0xe
TEB: 0x00000000
StartAddress: 0xfffff80002987e88 ntoskrnl.exe
Win32Thread: 0x00000000
CrossThreadFlags: PS_CROSS_THREAD_FLAGS_DEADTHREAD
0xfffff80002987e88 4881eca8000000   SUB RSP, 0xa8
0xfffff80002987e8f 65488b0c2588010000 MOV RCX, [GS:0x188]
0xfffff80002987e98 ba0e000000       MOV EDX, 0xe
0xfffff80002987e9d e8               DB 0xe8
0xfffff80002987e9e 66               DB 0x66
0xfffff80002987e9f 73               DB 0x73
------
ETHREAD: 0xfffffa800106d060 Pid: 604 Tid: 2072
Tags: 
Created: 2019-12-11 14:37:52 UTC+0000
Exited: 1970-01-01 00:00:00 UTC+0000
Owning Process: explorer.exe
Attached Process: explorer.exe
State: Waiting:WrQueue
BasePriority: 0x8
Priority: 0xa
TEB: 0x7fffff72000
StartAddress: 0x77cbc500 ntdll.dll
Win32Thread: 0x00000000
CrossThreadFlags: PS_CROSS_THREAD_FLAGS_DEADTHREAD
0x77cbc500 4883ec48         SUB RSP, 0x48
0x77cbc504 4c8bc9           MOV R9, RCX
0x77cbc507 488b0552da1000   MOV RAX, [RIP+0x10da52]
0x77cbc50e 4885c0           TEST RAX, RAX
0x77cbc511 0f84e3840300     JZ 0x77cf49fa
0x77cbc517 4c               DB 0x4c
------
ETHREAD: 0xfffffa80021ddae0 Pid: 1844 Tid: 2092
Tags: 
Created: 2019-12-11 14:32:37 UTC+0000
Exited: 1970-01-01 00:00:00 UTC+0000
Owning Process: VBoxTray.exe
Attached Process: VBoxTray.exe
State: Waiting:Executive
BasePriority: 0x8
Priority: 0x8
TEB: 0x7fffffae000
StartAddress: 0x77cbc500 ntdll.dll
Win32Thread: 0xfffff900c1f0a820
CrossThreadFlags: PS_CROSS_THREAD_FLAGS_DEADTHREAD
0x77cbc500 4883ec48         SUB RSP, 0x48
0x77cbc504 4c8bc9           MOV R9, RCX
0x77cbc507 488b0552da1000   MOV RAX, [RIP+0x10da52]
0x77cbc50e 4885c0           TEST RAX, RAX
0x77cbc511 0f84e3840300     JZ 0x77cf49fa
0x77cbc517 4c               DB 0x4c
------
ETHREAD: 0xfffffa8001fce060 Pid: 1044 Tid: 1460
Tags: 
Created: 2019-12-11 13:41:56 UTC+0000
Exited: 2019-12-11 14:15:29 UTC+0000
Owning Process: svchost.exe
Attached Process: svchost.exe
State: Terminated
BasePriority: 0x6
Priority: 0x6
TEB: 0x00000000
StartAddress: 0x77cbc500 ntdll.dll
Win32Thread: 0x00000000
CrossThreadFlags: PS_CROSS_THREAD_FLAGS_DEADTHREAD, PS_CROSS_THREAD_FLAGS_TERMINATED
0x77cbc500 4883ec48         SUB RSP, 0x48
0x77cbc504 4c8bc9           MOV R9, RCX
0x77cbc507 488b0552da1000   MOV RAX, [RIP+0x10da52]
0x77cbc50e 4885c0           TEST RAX, RAX
0x77cbc511 0f84e3840300     JZ 0x77cf49fa
0x77cbc517 4c               DB 0x4c
------
ETHREAD: 0xfffffa8000cbfb60 Pid: 4 Tid: 92
Tags: 
Created: 2019-12-11 13:41:22 UTC+0000
Exited: 1970-01-01 00:00:00 UTC+0000
Owning Process: System
Attached Process: System
State: Waiting:Executive
BasePriority: 0x8
Priority: 0x10
TEB: 0x00000000
StartAddress: 0xfffff8000268a500 ntoskrnl.exe
Win32Thread: 0x00000000
CrossThreadFlags: PS_CROSS_THREAD_FLAGS_DEADTHREAD
0xfffff8000268a500 488bc4           MOV RAX, RSP
0xfffff8000268a503 48895808         MOV [RAX+0x8], RBX
0xfffff8000268a507 48896810         MOV [RAX+0x10], RBP
0xfffff8000268a50b 48897018         MOV [RAX+0x18], RSI
0xfffff8000268a50f 48897820         MOV [RAX+0x20], RDI
0xfffff8000268a513 4155             PUSH R13
0xfffff8000268a515 48               DB 0x48
0xfffff8000268a516 81               DB 0x81
0xfffff8000268a517 ec               IN AL, DX
------
ETHREAD: 0xfffffa80012ce2b0 Pid: 1248 Tid: 1328
Tags: 
Created: 2019-12-11 13:41:54 UTC+0000
Exited: 2019-12-11 14:24:01 UTC+0000
Owning Process: svchost.exe
Attached Process: svchost.exe
State: Terminated
BasePriority: 0x8
Priority: 0x8
TEB: 0x00000000
StartAddress: 0xfffffa80012ce630 UNKNOWN
Win32Thread: 0x00000000
CrossThreadFlags: PS_CROSS_THREAD_FLAGS_DEADTHREAD, PS_CROSS_THREAD_FLAGS_TERMINATED
0xfffffa80012ce630 30e6             XOR DH, AH
0xfffffa80012ce632 2c01             SUB AL, 0x1
0xfffffa80012ce634 80faff           CMP DL, 0xff
0xfffffa80012ce637 ff30             PUSH QWORD [RAX]
0xfffffa80012ce639 e62c             OUT 0x2c, AL
0xfffffa80012ce63b 0180faffff00     ADD [RAX+0xfffffa], EAX
0xfffffa80012ce641 0000             ADD [RAX], AL
0xfffffa80012ce643 0000             ADD [RAX], AL
0xfffffa80012ce645 0000             ADD [RAX], AL
0xfffffa80012ce647 00               DB 0x0
------
ETHREAD: 0xfffffa800220c5c0 Pid: 472 Tid: 2312
Tags: 
Created: 2019-12-11 14:32:50 UTC+0000
Exited: 1970-01-01 00:00:00 UTC+0000
Owning Process: svchost.exe
Attached Process: svchost.exe
State: Waiting:UserRequest
BasePriority: 0x8
Priority: 0x9
TEB: 0x7fffffa0000
StartAddress: 0x77cbc500 ntdll.dll
Win32Thread: 0x00000000
CrossThreadFlags: PS_CROSS_THREAD_FLAGS_DEADTHREAD
0x77cbc500 4883ec48         SUB RSP, 0x48
0x77cbc504 4c8bc9           MOV R9, RCX
0x77cbc507 488b0552da1000   MOV RAX, [RIP+0x10da52]
0x77cbc50e 4885c0           TEST RAX, RAX
0x77cbc511 0f84e3840300     JZ 0x77cf49fa
0x77cbc517 4c               DB 0x4c
------
ETHREAD: 0xfffffa8001d99a10 Pid: 1856 Tid: 1228
Tags: 
Created: 2019-12-11 14:16:09 UTC+0000
Exited: 2019-12-11 14:16:48 UTC+0000
Owning Process: wmpnetwk.exe
Attached Process: wmpnetwk.exe
State: Terminated
BasePriority: 0x8
Priority: 0x8
TEB: 0x00000000
StartAddress: 0xfffffa8001d99d90 UNKNOWN
Win32Thread: 0x00000000
CrossThreadFlags: PS_CROSS_THREAD_FLAGS_DEADTHREAD, PS_CROSS_THREAD_FLAGS_TERMINATED
0xfffffa8001d99d90 90               NOP
0xfffffa8001d99d91 9d               POPF
0xfffffa8001d99d92 d901             FLD DWORD [RCX]
0xfffffa8001d99d94 80faff           CMP DL, 0xff
0xfffffa8001d99d97 ff909dd90180     CALL QWORD [RAX-0x7ffe2663]
0xfffffa8001d99d9d fa               CLI
0xfffffa8001d99d9e ff               DB 0xff
0xfffffa8001d99d9f ff00             INC DWORD [RAX]
0xfffffa8001d99da1 0000             ADD [RAX], AL
0xfffffa8001d99da3 0000             ADD [RAX], AL
0xfffffa8001d99da5 0000             ADD [RAX], AL
0xfffffa8001d99da7 00               DB 0x0
------
ETHREAD: 0xfffffa8000fb3060 Pid: 2304 Tid: 2448
Tags: 
Created: 2019-12-11 14:37:14 UTC+0000
Exited: 1970-01-01 00:00:00 UTC+0000
Owning Process: VBoxTray.exe
Attached Process: VBoxTray.exe
State: Waiting:UserRequest
BasePriority: 0x8
Priority: 0xa
TEB: 0x7fffffaa000
StartAddress: 0x77cbc500 ntdll.dll
Win32Thread: 0x00000000
CrossThreadFlags: PS_CROSS_THREAD_FLAGS_DEADTHREAD
0x77cbc500 4883ec48         SUB RSP, 0x48
0x77cbc504 4c8bc9           MOV R9, RCX
0x77cbc507 488b0552da1000   MOV RAX, [RIP+0x10da52]
0x77cbc50e 4885c0           TEST RAX, RAX
0x77cbc511 0f84e3840300     JZ 0x77cf49fa
0x77cbc517 4c               DB 0x4c
------
ETHREAD: 0x3fae06c0 Pid: 652 Tid: 2516
Tags: ScannerOnly
Created: 2019-12-11 14:37:36 UTC+0000
Exited: 1970-01-01 00:00:00 UTC+0000
Owning Process: VBoxService.ex
Attached Process: VBoxService.ex
State: Waiting:WrQueue
BasePriority: 0x8
Priority: 0x8
TEB: 0x7fffffd9000
StartAddress: 0x77cbc500 ntdll.dll
Win32Thread: 0x00000000
CrossThreadFlags: PS_CROSS_THREAD_FLAGS_DEADTHREAD
0x77cbc500 4883ec48         SUB RSP, 0x48
0x77cbc504 4c8bc9           MOV R9, RCX
0x77cbc507 488b0552da1000   MOV RAX, [RIP+0x10da52]
0x77cbc50e 4885c0           TEST RAX, RAX
0x77cbc511 0f84e3840300     JZ 0x77cf49fa
0x77cbc517 4c               DB 0x4c
------
ETHREAD: 0xfffffa8001425040 Pid: 4 Tid: 216
Tags: 
Created: 2019-12-11 13:41:25 UTC+0000
Exited: 1970-01-01 00:00:00 UTC+0000
Owning Process: System
Attached Process: System
State: Waiting:Executive
BasePriority: 0x8
Priority: 0x8
TEB: 0x00000000
StartAddress: 0xfffff880014bf5c4 watchdog.sys
Win32Thread: 0x00000000
CrossThreadFlags: PS_CROSS_THREAD_FLAGS_DEADTHREAD
0xfffff880014bf5c4 48895c2408       MOV [RSP+0x8], RBX
0xfffff880014bf5c9 48896c2410       MOV [RSP+0x10], RBP
0xfffff880014bf5ce 4889742418       MOV [RSP+0x18], RSI
0xfffff880014bf5d3 57               PUSH RDI
0xfffff880014bf5d4 4154             PUSH R12
0xfffff880014bf5d6 4156             PUSH R14
0xfffff880014bf5d8 4883ec60         SUB RSP, 0x60
------
ETHREAD: 0xfffffa8001014060 Pid: 2504 Tid: 2744
Tags: 
Created: 2019-12-11 14:37:22 UTC+0000
Exited: 1970-01-01 00:00:00 UTC+0000
Owning Process: explorer.exe
Attached Process: explorer.exe
State: Waiting:WrUserRequest
BasePriority: 0xa
Priority: 0xd
TEB: 0x7fffff76000
StartAddress: 0x77cbc500 ntdll.dll
Win32Thread: 0xfffff900c1abe5e0
CrossThreadFlags: PS_CROSS_THREAD_FLAGS_DEADTHREAD
0x77cbc500 4883ec48         SUB RSP, 0x48
0x77cbc504 4c8bc9           MOV R9, RCX
0x77cbc507 488b0552da1000   MOV RAX, [RIP+0x10da52]
0x77cbc50e 4885c0           TEST RAX, RAX
0x77cbc511 0f84e3840300     JZ 0x77cf49fa
0x77cbc517 4c               DB 0x4c
------
ETHREAD: 0xfffffa8000ffaac0 Pid: 816 Tid: 2076
Tags: 
Created: 2019-12-11 14:37:14 UTC+0000
Exited: 1970-01-01 00:00:00 UTC+0000
Owning Process: svchost.exe
Attached Process: svchost.exe
State: Waiting:DelayExecution
BasePriority: 0x8
Priority: 0x9
TEB: 0x7fffffaa000
StartAddress: 0x77cbc500 ntdll.dll
Win32Thread: 0x00000000
CrossThreadFlags: PS_CROSS_THREAD_FLAGS_DEADTHREAD
0x77cbc500 4883ec48         SUB RSP, 0x48
0x77cbc504 4c8bc9           MOV R9, RCX
0x77cbc507 488b0552da1000   MOV RAX, [RIP+0x10da52]
0x77cbc50e 4885c0           TEST RAX, RAX
0x77cbc511 0f84e3840300     JZ 0x77cf49fa
0x77cbc517 4c               DB 0x4c
------
ETHREAD: 0xfffffa8000d04720 Pid: 4 Tid: 12
Tags: 
Created: 1970-01-01 00:00:00 UTC+0000
Exited: 1970-01-01 00:00:00 UTC+0000
Owning Process: System
Attached Process: System
State: Waiting:Executive
BasePriority: 0xd
Priority: 0xf
TEB: 0x00000000
StartAddress: 0xfffff800027b24e0 ntoskrnl.exe
Win32Thread: 0x00000000
CrossThreadFlags: PS_CROSS_THREAD_FLAGS_DEADTHREAD
0xfffff800027b24e0 48895c2408       MOV [RSP+0x8], RBX
0xfffff800027b24e5 56               PUSH RSI
0xfffff800027b24e6 4883ec30         SUB RSP, 0x30
0xfffff800027b24ea be01000000       MOV ESI, 0x1
0xfffff800027b24ef 488364242000     AND QWORD [RSP+0x20], 0x0
0xfffff800027b24f5 48               DB 0x48
0xfffff800027b24f6 8d               DB 0x8d
0xfffff800027b24f7 0d               DB 0xd
------
ETHREAD: 0xfffffa8001ea3780 Pid: 876 Tid: 1180
Tags: 
Created: 2019-12-11 13:41:50 UTC+0000
Exited: 1970-01-01 00:00:00 UTC+0000
Owning Process: svchost.exe
Attached Process: svchost.exe
State: Waiting:UserRequest
BasePriority: 0x8
Priority: 0x8
TEB: 0x7fffff9a000
StartAddress: 0x77cbc500 ntdll.dll
Win32Thread: 0x00000000
CrossThreadFlags: PS_CROSS_THREAD_FLAGS_DEADTHREAD
0x77cbc500 4883ec48         SUB RSP, 0x48
0x77cbc504 4c8bc9           MOV R9, RCX
0x77cbc507 488b0552da1000   MOV RAX, [RIP+0x10da52]
0x77cbc50e 4885c0           TEST RAX, RAX
0x77cbc511 0f84e3840300     JZ 0x77cf49fa
0x77cbc517 4c               DB 0x4c
------
ETHREAD: 0xfffffa8001ed6060 Pid: 1208 Tid: 1240
Tags: 
Created: 2019-12-11 13:41:52 UTC+0000
Exited: 1970-01-01 00:00:00 UTC+0000
Owning Process: spoolsv.exe
Attached Process: spoolsv.exe
State: Waiting:UserRequest
BasePriority: 0x8
Priority: 0x9
TEB: 0x7fffffd4000
StartAddress: 0x77cbc500 ntdll.dll
Win32Thread: 0x00000000
CrossThreadFlags: PS_CROSS_THREAD_FLAGS_DEADTHREAD
0x77cbc500 4883ec48         SUB RSP, 0x48
0x77cbc504 4c8bc9           MOV R9, RCX
0x77cbc507 488b0552da1000   MOV RAX, [RIP+0x10da52]
0x77cbc50e 4885c0           TEST RAX, RAX
0x77cbc511 0f84e3840300     JZ 0x77cf49fa
0x77cbc517 4c               DB 0x4c
------
ETHREAD: 0xfffffa800209f060 Pid: 876 Tid: 1772
Tags: 
Created: 2019-12-11 13:42:00 UTC+0000
Exited: 2019-12-11 14:15:28 UTC+0000
Owning Process: svchost.exe
Attached Process: svchost.exe
State: Terminated
BasePriority: 0x8
Priority: 0x9
TEB: 0x00000000
StartAddress: 0x77cbc500 ntdll.dll
Win32Thread: 0x00000000
CrossThreadFlags: PS_CROSS_THREAD_FLAGS_DEADTHREAD, PS_CROSS_THREAD_FLAGS_TERMINATED
0x77cbc500 4883ec48         SUB RSP, 0x48
0x77cbc504 4c8bc9           MOV R9, RCX
0x77cbc507 488b0552da1000   MOV RAX, [RIP+0x10da52]
0x77cbc50e 4885c0           TEST RAX, RAX
0x77cbc511 0f84e3840300     JZ 0x77cf49fa
0x77cbc517 4c               DB 0x4c
------
ETHREAD: 0xfffffa8001009b60 Pid: 2524 Tid: 2668
Tags: 
Created: 2019-12-11 14:37:21 UTC+0000
Exited: 1970-01-01 00:00:00 UTC+0000
Owning Process: SearchProtocol
Attached Process: SearchProtocol
State: Waiting:WrQueue
BasePriority: 0x4
Priority: 0x4
TEB: 0x7fffffd4000
StartAddress: 0x77cbc500 ntdll.dll
Win32Thread: 0xfffff900c2301c30
CrossThreadFlags: PS_CROSS_THREAD_FLAGS_DEADTHREAD
0x77cbc500 4883ec48         SUB RSP, 0x48
0x77cbc504 4c8bc9           MOV R9, RCX
0x77cbc507 488b0552da1000   MOV RAX, [RIP+0x10da52]
0x77cbc50e 4885c0           TEST RAX, RAX
0x77cbc511 0f84e3840300     JZ 0x77cf49fa
0x77cbc517 4c               DB 0x4c
------
ETHREAD: 0xfffffa8001ca7ad0 Pid: 492 Tid: 508
Tags: 
Created: 2019-12-11 13:41:35 UTC+0000
Exited: 1970-01-01 00:00:00 UTC+0000
Owning Process: lsass.exe
Attached Process: lsass.exe
State: Waiting:WrLpcReceive
BasePriority: 0x9
Priority: 0xa
TEB: 0x7fffffdb000
StartAddress: 0x77cbc500 ntdll.dll
Win32Thread: 0x00000000
CrossThreadFlags: PS_CROSS_THREAD_FLAGS_DEADTHREAD
0x77cbc500 4883ec48         SUB RSP, 0x48
0x77cbc504 4c8bc9           MOV R9, RCX
0x77cbc507 488b0552da1000   MOV RAX, [RIP+0x10da52]
0x77cbc50e 4885c0           TEST RAX, RAX
0x77cbc511 0f84e3840300     JZ 0x77cf49fa
0x77cbc517 4c               DB 0x4c
------
ETHREAD: 0xfffffa800205a060 Pid: 588 Tid: 2588
Tags: 
Created: 2019-12-11 14:37:04 UTC+0000
Exited: 1970-01-01 00:00:00 UTC+0000
Owning Process: svchost.exe
Attached Process: svchost.exe
State: Waiting:WrQueue
BasePriority: 0x8
Priority: 0x9
TEB: 0x7fffffdc000
StartAddress: 0x77cbc500 ntdll.dll
Win32Thread: 0x00000000
CrossThreadFlags: PS_CROSS_THREAD_FLAGS_DEADTHREAD
0x77cbc500 4883ec48         SUB RSP, 0x48
0x77cbc504 4c8bc9           MOV R9, RCX
0x77cbc507 488b0552da1000   MOV RAX, [RIP+0x10da52]
0x77cbc50e 4885c0           TEST RAX, RAX
0x77cbc511 0f84e3840300     JZ 0x77cf49fa
0x77cbc517 4c               DB 0x4c
------
ETHREAD: 0xfffffa8001f0ea40 Pid: 876 Tid: 1300
Tags: 
Created: 2019-12-11 14:32:24 UTC+0000
Exited: 2019-12-11 14:32:24 UTC+0000
Owning Process: svchost.exe
Attached Process: svchost.exe
State: Terminated
BasePriority: 0x8
Priority: 0x8
TEB: 0x00000000
StartAddress: 0x77cbc500 ntdll.dll
Win32Thread: 0x00000000
CrossThreadFlags: PS_CROSS_THREAD_FLAGS_DEADTHREAD, PS_CROSS_THREAD_FLAGS_TERMINATED
0x77cbc500 4883ec48         SUB RSP, 0x48
0x77cbc504 4c8bc9           MOV R9, RCX
0x77cbc507 488b0552da1000   MOV RAX, [RIP+0x10da52]
0x77cbc50e 4885c0           TEST RAX, RAX
0x77cbc511 0f84e3840300     JZ 0x77cf49fa
0x77cbc517 4c               DB 0x4c
------
ETHREAD: 0xfffffa8001ed3670 Pid: 1856 Tid: 1924
Tags: 
Created: 2019-12-11 14:16:18 UTC+0000
Exited: 1970-01-01 00:00:00 UTC+0000
Owning Process: wmpnetwk.exe
Attached Process: wmpnetwk.exe
State: Waiting:WrLpcReply
BasePriority: 0x8
Priority: 0x8
TEB: 0x7fffffa6000
StartAddress: 0x77cbc500 ntdll.dll
Win32Thread: 0x00000000
CrossThreadFlags: PS_CROSS_THREAD_FLAGS_DEADTHREAD
0x77cbc500 4883ec48         SUB RSP, 0x48
0x77cbc504 4c8bc9           MOV R9, RCX
0x77cbc507 488b0552da1000   MOV RAX, [RIP+0x10da52]
0x77cbc50e 4885c0           TEST RAX, RAX
0x77cbc511 0f84e3840300     JZ 0x77cf49fa
0x77cbc517 4c               DB 0x4c
------
ETHREAD: 0xfffffa8001dbb060 Pid: 484 Tid: 2596
Tags: 
Created: 2019-12-11 14:37:05 UTC+0000
Exited: 1970-01-01 00:00:00 UTC+0000
Owning Process: services.exe
Attached Process: services.exe
State: Waiting:WrQueue
BasePriority: 0x9
Priority: 0xa
TEB: 0x7fffffd8000
StartAddress: 0x77cbc500 ntdll.dll
Win32Thread: 0x00000000
CrossThreadFlags: PS_CROSS_THREAD_FLAGS_DEADTHREAD
0x77cbc500 4883ec48         SUB RSP, 0x48
0x77cbc504 4c8bc9           MOV R9, RCX
0x77cbc507 488b0552da1000   MOV RAX, [RIP+0x10da52]
0x77cbc50e 4885c0           TEST RAX, RAX
0x77cbc511 0f84e3840300     JZ 0x77cf49fa
0x77cbc517 4c               DB 0x4c
------
ETHREAD: 0xfffffa8001fefae0 Pid: 1044 Tid: 1488
Tags: 
Created: 2019-12-11 13:41:56 UTC+0000
Exited: 2019-12-11 14:19:04 UTC+0000
Owning Process: svchost.exe
Attached Process: svchost.exe
State: Terminated
BasePriority: 0x8
Priority: 0x8
TEB: 0x00000000
StartAddress: 0x77cbc500 ntdll.dll
Win32Thread: 0x00000000
CrossThreadFlags: PS_CROSS_THREAD_FLAGS_DEADTHREAD, PS_CROSS_THREAD_FLAGS_TERMINATED
0x77cbc500 4883ec48         SUB RSP, 0x48
0x77cbc504 4c8bc9           MOV R9, RCX
0x77cbc507 488b0552da1000   MOV RAX, [RIP+0x10da52]
0x77cbc50e 4885c0           TEST RAX, RAX
0x77cbc511 0f84e3840300     JZ 0x77cf49fa
0x77cbc517 4c               DB 0x4c
------
ETHREAD: 0xfffffa8001c5e5d0 Pid: 424 Tid: 436
Tags: 
Created: 2019-12-11 13:41:34 UTC+0000
Exited: 2019-12-11 13:42:51 UTC+0000
Owning Process: wininit.exe
Attached Process: wininit.exe
State: Terminated
BasePriority: 0xd
Priority: 0xd
TEB: 0x00000000
StartAddress: 0x77cbc500 ntdll.dll
Win32Thread: 0x00000000
CrossThreadFlags: PS_CROSS_THREAD_FLAGS_DEADTHREAD, PS_CROSS_THREAD_FLAGS_TERMINATED
0x77cbc500 4883ec48         SUB RSP, 0x48
0x77cbc504 4c8bc9           MOV R9, RCX
0x77cbc507 488b0552da1000   MOV RAX, [RIP+0x10da52]
0x77cbc50e 4885c0           TEST RAX, RAX
0x77cbc511 0f84e3840300     JZ 0x77cf49fa
0x77cbc517 4c               DB 0x4c
------
ETHREAD: 0x3fb3d3e0 Pid: 1512 Tid: 848
Tags: ScannerOnly
Created: 2019-12-11 14:37:23 UTC+0000
Exited: 1970-01-01 00:00:00 UTC+0000
Owning Process: WinRAR.exe
Attached Process: WinRAR.exe
State: Waiting:UserRequest
BasePriority: 0x8
Priority: 0xa
TEB: 0x7fffffd5000
StartAddress: 0x77cbc500 ntdll.dll
Win32Thread: 0xfffff900c1abec30
CrossThreadFlags: PS_CROSS_THREAD_FLAGS_DEADTHREAD
0x77cbc500 4883ec48         SUB RSP, 0x48
0x77cbc504 4c8bc9           MOV R9, RCX
0x77cbc507 488b0552da1000   MOV RAX, [RIP+0x10da52]
0x77cbc50e 4885c0           TEST RAX, RAX
0x77cbc511 0f84e3840300     JZ 0x77cf49fa
0x77cbc517 4c               DB 0x4c
------
ETHREAD: 0xfffffa8001f11b60 Pid: 1844 Tid: 2728
Tags: 
Created: 2019-12-11 14:33:06 UTC+0000
Exited: 1970-01-01 00:00:00 UTC+0000
Owning Process: VBoxTray.exe
Attached Process: VBoxTray.exe
State: Waiting:WrQueue
BasePriority: 0x8
Priority: 0x8
TEB: 0x7fffff9e000
StartAddress: 0x77cbc500 ntdll.dll
Win32Thread: 0x00000000
CrossThreadFlags: PS_CROSS_THREAD_FLAGS_DEADTHREAD
0x77cbc500 4883ec48         SUB RSP, 0x48
0x77cbc504 4c8bc9           MOV R9, RCX
0x77cbc507 488b0552da1000   MOV RAX, [RIP+0x10da52]
0x77cbc50e 4885c0           TEST RAX, RAX
0x77cbc511 0f84e3840300     JZ 0x77cf49fa
0x77cbc517 4c               DB 0x4c
------
ETHREAD: 0xfffffa8001005b60 Pid: 2524 Tid: 2496
Tags: 
Created: 2019-12-11 14:37:21 UTC+0000
Exited: 1970-01-01 00:00:00 UTC+0000
Owning Process: SearchProtocol
Attached Process: SearchProtocol
State: Waiting:UserRequest
BasePriority: 0x4
Priority: 0x4
TEB: 0x7fffffd6000
StartAddress: 0x77cbc500 ntdll.dll
Win32Thread: 0xfffff900c2303c30
CrossThreadFlags: PS_CROSS_THREAD_FLAGS_DEADTHREAD
0x77cbc500 4883ec48         SUB RSP, 0x48
0x77cbc504 4c8bc9           MOV R9, RCX
0x77cbc507 488b0552da1000   MOV RAX, [RIP+0x10da52]
0x77cbc50e 4885c0           TEST RAX, RAX
0x77cbc511 0f84e3840300     JZ 0x77cf49fa
0x77cbc517 4c               DB 0x4c
------
ETHREAD: 0xfffffa80022a0060 Pid: 2368 Tid: 2716
Tags: 
Created: 2019-12-11 14:33:03 UTC+0000
Exited: 1970-01-01 00:00:00 UTC+0000
Owning Process: svchost.exe
Attached Process: svchost.exe
State: Waiting:UserRequest
BasePriority: 0x8
Priority: 0x9
TEB: 0x7fffffa8000
StartAddress: 0x77cbc500 ntdll.dll
Win32Thread: 0x00000000
CrossThreadFlags: PS_CROSS_THREAD_FLAGS_DEADTHREAD
0x77cbc500 4883ec48         SUB RSP, 0x48
0x77cbc504 4c8bc9           MOV R9, RCX
0x77cbc507 488b0552da1000   MOV RAX, [RIP+0x10da52]
0x77cbc50e 4885c0           TEST RAX, RAX
0x77cbc511 0f84e3840300     JZ 0x77cf49fa
0x77cbc517 4c               DB 0x4c
------
ETHREAD: 0xfffffa8000d73b60 Pid: 4 Tid: 140
Tags: 
Created: 2019-12-11 13:41:22 UTC+0000
Exited: 1970-01-01 00:00:00 UTC+0000
Owning Process: System
Attached Process: System
State: Waiting:Executive
BasePriority: 0xf
Priority: 0xf
TEB: 0x00000000
StartAddress: 0xfffff800029bb064 ntoskrnl.exe
Win32Thread: 0x00000000
CrossThreadFlags: PS_CROSS_THREAD_FLAGS_DEADTHREAD
0xfffff800029bb064 48895c2410       MOV [RSP+0x10], RBX
0xfffff800029bb069 48896c2418       MOV [RSP+0x18], RBP
0xfffff800029bb06e 4889742420       MOV [RSP+0x20], RSI
0xfffff800029bb073 57               PUSH RDI
0xfffff800029bb074 4154             PUSH R12
0xfffff800029bb076 4155             PUSH R13
0xfffff800029bb078 4156             PUSH R14
0xfffff800029bb07a 4157             PUSH R15
------
ETHREAD: 0xfffffa8001f709b0 Pid: 852 Tid: 1412
Tags: 
Created: 2019-12-11 13:41:55 UTC+0000
Exited: 1970-01-01 00:00:00 UTC+0000
Owning Process: svchost.exe
Attached Process: svchost.exe
State: Waiting:WrQueue
BasePriority: 0x8
Priority: 0x8
TEB: 0x7fffff94000
StartAddress: 0xfffff8a001624980 UNKNOWN
Win32Thread: 0x00000000
CrossThreadFlags: PS_CROSS_THREAD_FLAGS_DEADTHREAD
0xfffff8a001624980 300df70180fa     XOR [RIP-0x57ffe09], CL
0xfffff8a001624986 ff               DB 0xff
0xfffff8a001624987 ff30             PUSH QWORD [RAX]
0xfffff8a001624989 0df70180fa       OR EAX, 0xfa8001f7
0xfffff8a00162498e ff               DB 0xff
0xfffff8a00162498f ff90496201a0     CALL QWORD [RAX-0x5ffe9db7]
0xfffff8a001624995 f8               CLC
0xfffff8a001624996 ff               DB 0xff
0xfffff8a001624997 ff               DB 0xff
------
ETHREAD: 0x3fb619f0 Pid: 604 Tid: 2988
Tags: ScannerOnly
Created: 2019-12-11 14:37:42 UTC+0000
Exited: 1970-01-01 00:00:00 UTC+0000
Owning Process: explorer.exe
Attached Process: explorer.exe
State: Waiting:WrQueue
BasePriority: 0x8
Priority: 0x9
TEB: 0x7fffff82000
StartAddress: 0x77cbc500 ntdll.dll
Win32Thread: 0xfffff900c1f1f010
CrossThreadFlags: PS_CROSS_THREAD_FLAGS_DEADTHREAD
0x77cbc500 4883ec48         SUB RSP, 0x48
0x77cbc504 4c8bc9           MOV R9, RCX
0x77cbc507 488b0552da1000   MOV RAX, [RIP+0x10da52]
0x77cbc50e 4885c0           TEST RAX, RAX
0x77cbc511 0f84e3840300     JZ 0x77cf49fa
0x77cbc517 4c               DB 0x4c
------
ETHREAD: 0xfffffa8000ca3060 Pid: 320 Tid: 356
Tags: 
Created: 2019-12-11 13:41:33 UTC+0000
Exited: 1970-01-01 00:00:00 UTC+0000
Owning Process: csrss.exe
Attached Process: csrss.exe
State: Waiting:WrLpcReceive
BasePriority: 0xd
Priority: 0xe
TEB: 0x7fffffd4000
StartAddress: 0x77cbc500 ntdll.dll
Win32Thread: 0x00000000
CrossThreadFlags: PS_CROSS_THREAD_FLAGS_DEADTHREAD
0x77cbc500 4883ec48         SUB RSP, 0x48
0x77cbc504 4c8bc9           MOV R9, RCX
0x77cbc507 488b0552da1000   MOV RAX, [RIP+0x10da52]
0x77cbc50e 4885c0           TEST RAX, RAX
0x77cbc511 0f84e3840300     JZ 0x77cf49fa
0x77cbc517 4c               DB 0x4c
------
ETHREAD: 0xfffffa8001f34b60 Pid: 1248 Tid: 1324
Tags: 
Created: 2019-12-11 13:41:54 UTC+0000
Exited: 1970-01-01 00:00:00 UTC+0000
Owning Process: svchost.exe
Attached Process: svchost.exe
State: Waiting:UserRequest
BasePriority: 0x8
Priority: 0x8
TEB: 0x7fffffd6000
StartAddress: 0x77cbc500 ntdll.dll
Win32Thread: 0x00000000
CrossThreadFlags: PS_CROSS_THREAD_FLAGS_DEADTHREAD
0x77cbc500 4883ec48         SUB RSP, 0x48
0x77cbc504 4c8bc9           MOV R9, RCX
0x77cbc507 488b0552da1000   MOV RAX, [RIP+0x10da52]
0x77cbc50e 4885c0           TEST RAX, RAX
0x77cbc511 0f84e3840300     JZ 0x77cf49fa
0x77cbc517 4c               DB 0x4c
------
ETHREAD: 0xfffffa8001ba7660 Pid: 368 Tid: 388
Tags: 
Created: 2019-12-11 13:41:33 UTC+0000
Exited: 1970-01-01 00:00:00 UTC+0000
Owning Process: csrss.exe
Attached Process: csrss.exe
State: Waiting:UserRequest
BasePriority: 0xd
Priority: 0xe
TEB: 0x7fffffda000
StartAddress: 0xfffff8a00138ddc0 UNKNOWN
Win32Thread: 0xfffff900c01d7010
CrossThreadFlags: PS_CROSS_THREAD_FLAGS_DEADTHREAD
0xfffff8a00138ddc0 e079             LOOPNZ 0xfffff8a00138de3b
0xfffff8a00138ddc2 ba0180faff       MOV EDX, 0xfffa8001
0xfffff8a00138ddc7 ff703e           PUSH QWORD [RAX+0x3e]
0xfffff8a00138ddca c4               DB 0xc4
0xfffff8a00138ddcb 01a0f8ffffd0     ADD [RAX-0x2f000008], ESP
0xfffff8a00138ddd1 dd38             FNSTSW WORD [RAX]
0xfffff8a00138ddd3 01               DB 0x1
0xfffff8a00138ddd4 a0               DB 0xa0
0xfffff8a00138ddd5 f8               CLC
0xfffff8a00138ddd6 ff               DB 0xff
0xfffff8a00138ddd7 ff               DB 0xff
------
ETHREAD: 0xfffffa8002035040 Pid: 4 Tid: 1572
Tags: 
Created: 2019-12-11 13:41:58 UTC+0000
Exited: 1970-01-01 00:00:00 UTC+0000
Owning Process: System
Attached Process: System
State: Waiting:WrQueue
BasePriority: 0x9
Priority: 0x9
TEB: 0x00000000
StartAddress: 0xfffff88002a726b0 srv.sys
Win32Thread: 0x00000000
CrossThreadFlags: PS_CROSS_THREAD_FLAGS_DEADTHREAD, PS_CROSS_THREAD_FLAGS_HARD_ERRORS_DISABLED
0xfffff88002a726b0 48895c2410       MOV [RSP+0x10], RBX
0xfffff88002a726b5 48896c2418       MOV [RSP+0x18], RBP
0xfffff88002a726ba 4889742420       MOV [RSP+0x20], RSI
0xfffff88002a726bf 57               PUSH RDI
0xfffff88002a726c0 4154             PUSH R12
0xfffff88002a726c2 4155             PUSH R13
0xfffff88002a726c4 4156             PUSH R14
0xfffff88002a726c6 4157             PUSH R15
------
ETHREAD: 0xfffffa80012c7300 Pid: 4 Tid: 168
Tags: 
Created: 2019-12-11 13:41:22 UTC+0000
Exited: 1970-01-01 00:00:00 UTC+0000
Owning Process: System
Attached Process: System
State: Waiting:WrQueue
BasePriority: 0x8
Priority: 0x8
TEB: 0x00000000
StartAddress: 0xfffff880014f9970 ndis.sys
Win32Thread: 0x00000000
CrossThreadFlags: PS_CROSS_THREAD_FLAGS_DEADTHREAD
0xfffff880014f9970 48895c2408       MOV [RSP+0x8], RBX
0xfffff880014f9975 4889742410       MOV [RSP+0x10], RSI
0xfffff880014f997a 57               PUSH RDI
0xfffff880014f997b 4883ec20         SUB RSP, 0x20
0xfffff880014f997f 488d358a270500   LEA RSI, [RIP+0x5278a]
0xfffff880014f9986 48               DB 0x48
0xfffff880014f9987 8d               DB 0x8d
------
ETHREAD: 0xfffffa8001dab760 Pid: 876 Tid: 880
Tags: 
Created: 2019-12-11 13:41:43 UTC+0000
Exited: 1970-01-01 00:00:00 UTC+0000
Owning Process: svchost.exe
Attached Process: svchost.exe
State: Waiting:UserRequest
BasePriority: 0x8
Priority: 0x9
TEB: 0x7fffffdd000
StartAddress: 0x77cbc500 ntdll.dll
Win32Thread: 0xfffff900c1aa6c30
CrossThreadFlags: PS_CROSS_THREAD_FLAGS_DEADTHREAD
0x77cbc500 4883ec48         SUB RSP, 0x48
0x77cbc504 4c8bc9           MOV R9, RCX
0x77cbc507 488b0552da1000   MOV RAX, [RIP+0x10da52]
0x77cbc50e 4885c0           TEST RAX, RAX
0x77cbc511 0f84e3840300     JZ 0x77cf49fa
0x77cbc517 4c               DB 0x4c
------
ETHREAD: 0xfffffa8001f85060 Pid: 876 Tid: 1808
Tags: 
Created: 2019-12-11 14:37:05 UTC+0000
Exited: 1970-01-01 00:00:00 UTC+0000
Owning Process: svchost.exe
Attached Process: svchost.exe
State: Waiting:DelayExecution
BasePriority: 0x8
Priority: 0x9
TEB: 0x7fffffd3000
StartAddress: 0x77cbc500 ntdll.dll
Win32Thread: 0x00000000
CrossThreadFlags: PS_CROSS_THREAD_FLAGS_DEADTHREAD
0x77cbc500 4883ec48         SUB RSP, 0x48
0x77cbc504 4c8bc9           MOV R9, RCX
0x77cbc507 488b0552da1000   MOV RAX, [RIP+0x10da52]
0x77cbc50e 4885c0           TEST RAX, RAX
0x77cbc511 0f84e3840300     JZ 0x77cf49fa
0x77cbc517 4c               DB 0x4c
------
ETHREAD: 0xfffffa8000cb8040 Pid: 4 Tid: 36
Tags: 
Created: 2019-12-11 13:41:22 UTC+0000
Exited: 1970-01-01 00:00:00 UTC+0000
Owning Process: System
Attached Process: System
State: Waiting:WrQueue
BasePriority: 0xd
Priority: 0xd
TEB: 0x00000000
StartAddress: 0xfffff800026a9910 ntoskrnl.exe
Win32Thread: 0x00000000
CrossThreadFlags: PS_CROSS_THREAD_FLAGS_DEADTHREAD
0xfffff800026a9910 4c8bdc           MOV R11, RSP
0xfffff800026a9913 49895b10         MOV [R11+0x10], RBX
0xfffff800026a9917 49896b18         MOV [R11+0x18], RBP
0xfffff800026a991b 49897320         MOV [R11+0x20], RSI
0xfffff800026a991f 57               PUSH RDI
0xfffff800026a9920 4154             PUSH R12
0xfffff800026a9922 4155             PUSH R13
0xfffff800026a9924 4156             PUSH R14
0xfffff800026a9926 4157             PUSH R15
------
ETHREAD: 0x3fb2f860 Pid: 2868 Tid: 736
Tags: ScannerOnly
Created: 2019-12-11 14:37:23 UTC+0000
Exited: 1970-01-01 00:00:00 UTC+0000
Owning Process: SearchProtocol
Attached Process: SearchProtocol
State: Waiting:UserRequest
BasePriority: 0x4
Priority: 0x4
TEB: 0x7fffffdc000
StartAddress: 0x77cbc500 ntdll.dll
Win32Thread: 0x00000000
CrossThreadFlags: PS_CROSS_THREAD_FLAGS_DEADTHREAD
0x77cbc500 4883ec48         SUB RSP, 0x48
0x77cbc504 4c8bc9           MOV R9, RCX
0x77cbc507 488b0552da1000   MOV RAX, [RIP+0x10da52]
0x77cbc50e 4885c0           TEST RAX, RAX
0x77cbc511 0f84e3840300     JZ 0x77cf49fa
0x77cbc517 4c               DB 0x4c
------
ETHREAD: 0xfffffa8001e47060 Pid: 876 Tid: 1104
Tags: 
Created: 2019-12-11 14:32:24 UTC+0000
Exited: 1970-01-01 00:00:00 UTC+0000
Owning Process: svchost.exe
Attached Process: svchost.exe
State: Waiting:UserRequest
BasePriority: 0x1
Priority: 0x1
TEB: 0x7fffffa0000
StartAddress: 0x77cbc500 ntdll.dll
Win32Thread: 0x00000000
CrossThreadFlags: PS_CROSS_THREAD_FLAGS_DEADTHREAD
0x77cbc500 4883ec48         SUB RSP, 0x48
0x77cbc504 4c8bc9           MOV R9, RCX
0x77cbc507 488b0552da1000   MOV RAX, [RIP+0x10da52]
0x77cbc50e 4885c0           TEST RAX, RAX
0x77cbc511 0f84e3840300     JZ 0x77cf49fa
0x77cbc517 4c               DB 0x4c
------
ETHREAD: 0xfffffa8001dec660 Pid: 376 Tid: 1008
Tags: 
Created: 2019-12-11 13:41:45 UTC+0000
Exited: 1970-01-01 00:00:00 UTC+0000
Owning Process: psxss.exe
Attached Process: psxss.exe
State: Waiting:WrLpcReceive
BasePriority: 0xd
Priority: 0xd
TEB: 0x7fffffa2000
StartAddress: 0x77cbc500 ntdll.dll
Win32Thread: 0x00000000
CrossThreadFlags: PS_CROSS_THREAD_FLAGS_DEADTHREAD
0x77cbc500 4883ec48         SUB RSP, 0x48
0x77cbc504 4c8bc9           MOV R9, RCX
0x77cbc507 488b0552da1000   MOV RAX, [RIP+0x10da52]
0x77cbc50e 4885c0           TEST RAX, RAX
0x77cbc511 0f84e3840300     JZ 0x77cf49fa
0x77cbc517 4c               DB 0x4c
------
ETHREAD: 0xfffffa8000caab10 Pid: 320 Tid: 344
Tags: 
Created: 2019-12-11 13:41:32 UTC+0000
Exited: 1970-01-01 00:00:00 UTC+0000
Owning Process: csrss.exe
Attached Process: csrss.exe
State: Waiting:WrLpcReply
BasePriority: 0xf
Priority: 0xf
TEB: 0x7fffffda000
StartAddress: 0x77cbc500 ntdll.dll
Win32Thread: 0xfffff900c1ab0010
CrossThreadFlags: PS_CROSS_THREAD_FLAGS_DEADTHREAD
0x77cbc500 4883ec48         SUB RSP, 0x48
0x77cbc504 4c8bc9           MOV R9, RCX
0x77cbc507 488b0552da1000   MOV RAX, [RIP+0x10da52]
0x77cbc50e 4885c0           TEST RAX, RAX
0x77cbc511 0f84e3840300     JZ 0x77cf49fa
0x77cbc517 4c               DB 0x4c
------
ETHREAD: 0x3fa6a060 Pid: 1844 Tid: 2996
Tags: ScannerOnly
Created: 2019-12-11 14:38:12 UTC+0000
Exited: 2019-12-11 14:38:12 UTC+0000
Owning Process: VBoxTray.exe
Attached Process: VBoxTray.exe
State: Terminated
BasePriority: 0x8
Priority: 0x8
TEB: 0x00000000
StartAddress: 0x77cbc500 ntdll.dll
Win32Thread: 0x00000000
CrossThreadFlags: PS_CROSS_THREAD_FLAGS_DEADTHREAD, PS_CROSS_THREAD_FLAGS_TERMINATED
0x77cbc500 4883ec48         SUB RSP, 0x48
0x77cbc504 4c8bc9           MOV R9, RCX
0x77cbc507 488b0552da1000   MOV RAX, [RIP+0x10da52]
0x77cbc50e 4885c0           TEST RAX, RAX
0x77cbc511 0f84e3840300     JZ 0x77cf49fa
0x77cbc517 4c               DB 0x4c
------
ETHREAD: 0xfffffa8001d2c060 Pid: 948 Tid: 2684
Tags: 
Created: 2019-12-11 14:37:05 UTC+0000
Exited: 1970-01-01 00:00:00 UTC+0000
Owning Process: svchost.exe
Attached Process: svchost.exe
State: Waiting:WrQueue
BasePriority: 0x8
Priority: 0x8
TEB: 0x7fffffac000
StartAddress: 0x77cbc500 ntdll.dll
Win32Thread: 0x00000000
CrossThreadFlags: PS_CROSS_THREAD_FLAGS_DEADTHREAD
0x77cbc500 4883ec48         SUB RSP, 0x48
0x77cbc504 4c8bc9           MOV R9, RCX
0x77cbc507 488b0552da1000   MOV RAX, [RIP+0x10da52]
0x77cbc50e 4885c0           TEST RAX, RAX
0x77cbc511 0f84e3840300     JZ 0x77cf49fa
0x77cbc517 4c               DB 0x4c
------
ETHREAD: 0xfffffa8001079320 Pid: 604 Tid: 2212
Tags: 
Created: 2019-12-11 14:37:42 UTC+0000
Exited: 1970-01-01 00:00:00 UTC+0000
Owning Process: explorer.exe
Attached Process: explorer.exe
State: Waiting:UserRequest
BasePriority: 0x8
Priority: 0xa
TEB: 0x7fffffa4000
StartAddress: 0x77cbc500 ntdll.dll
Win32Thread: 0xfffff900c1e01c30
CrossThreadFlags: PS_CROSS_THREAD_FLAGS_DEADTHREAD
0x77cbc500 4883ec48         SUB RSP, 0x48
0x77cbc504 4c8bc9           MOV R9, RCX
0x77cbc507 488b0552da1000   MOV RAX, [RIP+0x10da52]
0x77cbc50e 4885c0           TEST RAX, RAX
0x77cbc511 0f84e3840300     JZ 0x77cf49fa
0x77cbc517 4c               DB 0x4c
------
ETHREAD: 0xfffffa8001dcbb60 Pid: 876 Tid: 1640
Tags: 
Created: 2019-12-11 13:41:59 UTC+0000
Exited: 1970-01-01 00:00:00 UTC+0000
Owning Process: svchost.exe
Attached Process: svchost.exe
State: Waiting:UserRequest
BasePriority: 0x8
Priority: 0x9
TEB: 0x7fffff86000
StartAddress: 0x77cbc500 ntdll.dll
Win32Thread: 0x00000000
CrossThreadFlags: PS_CROSS_THREAD_FLAGS_DEADTHREAD
0x77cbc500 4883ec48         SUB RSP, 0x48
0x77cbc504 4c8bc9           MOV R9, RCX
0x77cbc507 488b0552da1000   MOV RAX, [RIP+0x10da52]
0x77cbc50e 4885c0           TEST RAX, RAX
0x77cbc511 0f84e3840300     JZ 0x77cf49fa
0x77cbc517 4c               DB 0x4c
------
ETHREAD: 0x3fa8d060 Pid: 1720 Tid: 2188
Tags: ScannerOnly
Created: 2019-12-11 14:37:21 UTC+0000
Exited: 1970-01-01 00:00:00 UTC+0000
Owning Process: SearchFilterHo
Attached Process: SearchFilterHo
State: Waiting:WrQueue
BasePriority: 0x4
Priority: 0x4
TEB: 0x7fffffd7000
StartAddress: 0x77cbc500 ntdll.dll
Win32Thread: 0xfffff900c1adf010
CrossThreadFlags: PS_CROSS_THREAD_FLAGS_DEADTHREAD
0x77cbc500 4883ec48         SUB RSP, 0x48
0x77cbc504 4c8bc9           MOV R9, RCX
0x77cbc507 488b0552da1000   MOV RAX, [RIP+0x10da52]
0x77cbc50e 4885c0           TEST RAX, RAX
0x77cbc511 0f84e3840300     JZ 0x77cf49fa
0x77cbc517 4c               DB 0x4c
------
ETHREAD: 0xfffffa800104e840 Pid: 796 Tid: 2800
Tags: 
Created: 2019-12-11 14:38:00 UTC+0000
Exited: 1970-01-01 00:00:00 UTC+0000
Owning Process: DumpIt.exe
Attached Process: DumpIt.exe
State: Waiting:UserRequest
BasePriority: 0x8
Priority: 0x8
TEB: 0x7efd8000
StartAddress: 0x77cbc500 ntdll.dll
Win32Thread: 0x00000000
CrossThreadFlags: PS_CROSS_THREAD_FLAGS_DEADTHREAD
0x77cbc500 4883ec48         SUB RSP, 0x48
0x77cbc504 4c8bc9           MOV R9, RCX
0x77cbc507 488b0552da1000   MOV RAX, [RIP+0x10da52]
0x77cbc50e 4885c0           TEST RAX, RAX
0x77cbc511 0f84e3840300     JZ 0x77cf49fa
0x77cbc517 4c               DB 0x4c
------
ETHREAD: 0xfffffa8001c5fb60 Pid: 416 Tid: 420
Tags: 
Created: 2019-12-11 13:41:34 UTC+0000
Exited: 1970-01-01 00:00:00 UTC+0000
Owning Process: winlogon.exe
Attached Process: winlogon.exe
State: Waiting:UserRequest
BasePriority: 0xf
Priority: 0xf
TEB: 0x7fffffde000
StartAddress: 0xfffff8a00142a5c0 UNKNOWN
Win32Thread: 0xfffff900c00f3c30
CrossThreadFlags: PS_CROSS_THREAD_FLAGS_DEADTHREAD
0xfffff8a00142a5c0 e0fe             LOOPNZ 0xfffff8a00142a5c0
0xfffff8a00142a5c2 c5               DB 0xc5
0xfffff8a00142a5c3 0180faffffe0     ADD [RAX-0x1f000006], EAX
0xfffff8a00142a5c9 fec5             INC CH
0xfffff8a00142a5cb 0180faffffd0     ADD [RAX-0x2f000006], EAX
0xfffff8a00142a5d1 a5               MOVSD
0xfffff8a00142a5d2 42               DB 0x42
0xfffff8a00142a5d3 01               DB 0x1
0xfffff8a00142a5d4 a0               DB 0xa0
0xfffff8a00142a5d5 f8               CLC
0xfffff8a00142a5d6 ff               DB 0xff
0xfffff8a00142a5d7 ff               DB 0xff
------
ETHREAD: 0xfffffa8001dee060 Pid: 376 Tid: 100
Tags: 
Created: 2019-12-11 13:41:45 UTC+0000
Exited: 1970-01-01 00:00:00 UTC+0000
Owning Process: psxss.exe
Attached Process: psxss.exe
State: Waiting:WrLpcReceive
BasePriority: 0xd
Priority: 0xd
TEB: 0x7fffff9a000
StartAddress: 0x77cbc500 ntdll.dll
Win32Thread: 0x00000000
CrossThreadFlags: PS_CROSS_THREAD_FLAGS_DEADTHREAD
0x77cbc500 4883ec48         SUB RSP, 0x48
0x77cbc504 4c8bc9           MOV R9, RCX
0x77cbc507 488b0552da1000   MOV RAX, [RIP+0x10da52]
0x77cbc50e 4885c0           TEST RAX, RAX
0x77cbc511 0f84e3840300     JZ 0x77cf49fa
0x77cbc517 4c               DB 0x4c
------
ETHREAD: 0xfffffa80015094c0 Pid: 480 Tid: 412
Tags: 
Created: 2019-12-11 14:16:09 UTC+0000
Exited: 1970-01-01 00:00:00 UTC+0000
Owning Process: SearchIndexer.
Attached Process: SearchIndexer.
State: Waiting:UserRequest
BasePriority: 0x8
Priority: 0x9
TEB: 0x7fffffdc000
StartAddress: 0xfffff8a001b1caf0 UNKNOWN
Win32Thread: 0xfffff900c1ad1c30
CrossThreadFlags: PS_CROSS_THREAD_FLAGS_DEADTHREAD
0xfffff8a001b1caf0 4098             CWDE
0xfffff8a001b1caf2 50               PUSH RAX
0xfffff8a001b1caf3 0180faffff40     ADD [RAX+0x40fffffa], EAX
0xfffff8a001b1caf9 98               CWDE
0xfffff8a001b1cafa 50               PUSH RAX
0xfffff8a001b1cafb 0180faffff00     ADD [RAX+0xfffffa], EAX
0xfffff8a001b1cb01 cb               RETF
0xfffff8a001b1cb02 b101             MOV CL, 0x1
0xfffff8a001b1cb04 a0               DB 0xa0
0xfffff8a001b1cb05 f8               CLC
0xfffff8a001b1cb06 ff               DB 0xff
0xfffff8a001b1cb07 ff               DB 0xff
------
ETHREAD: 0xfffffa8000d31060 Pid: 1208 Tid: 1400
Tags: 
Created: 2019-12-11 14:15:59 UTC+0000
Exited: 1970-01-01 00:00:00 UTC+0000
Owning Process: spoolsv.exe
Attached Process: spoolsv.exe
State: Waiting:UserRequest
BasePriority: 0x8
Priority: 0x9
TEB: 0x7fffffa6000
StartAddress: 0x77cbc500 ntdll.dll
Win32Thread: 0xfffff900c01eec30
CrossThreadFlags: PS_CROSS_THREAD_FLAGS_DEADTHREAD
0x77cbc500 4883ec48         SUB RSP, 0x48
0x77cbc504 4c8bc9           MOV R9, RCX
0x77cbc507 488b0552da1000   MOV RAX, [RIP+0x10da52]
0x77cbc50e 4885c0           TEST RAX, RAX
0x77cbc511 0f84e3840300     JZ 0x77cf49fa
0x77cbc517 4c               DB 0x4c
------
ETHREAD: 0xfffffa8001f5d5c0 Pid: 1372 Tid: 1380
Tags: 
Created: 2019-12-11 13:41:54 UTC+0000
Exited: 1970-01-01 00:00:00 UTC+0000
Owning Process: svchost.exe
Attached Process: svchost.exe
State: Waiting:UserRequest
BasePriority: 0x8
Priority: 0xa
TEB: 0x7fffffdc000
StartAddress: 0x77cbc500 ntdll.dll
Win32Thread: 0x00000000
CrossThreadFlags: PS_CROSS_THREAD_FLAGS_DEADTHREAD
0x77cbc500 4883ec48         SUB RSP, 0x48
0x77cbc504 4c8bc9           MOV R9, RCX
0x77cbc507 488b0552da1000   MOV RAX, [RIP+0x10da52]
0x77cbc50e 4885c0           TEST RAX, RAX
0x77cbc511 0f84e3840300     JZ 0x77cf49fa
0x77cbc517 4c               DB 0x4c
------
ETHREAD: 0xfffffa8000f83380 Pid: 2504 Tid: 2340
Tags: 
Created: 2019-12-11 14:37:14 UTC+0000
Exited: 1970-01-01 00:00:00 UTC+0000
Owning Process: explorer.exe
Attached Process: explorer.exe
State: Waiting:UserRequest
BasePriority: 0x8
Priority: 0xb
TEB: 0x7fffffa2000
StartAddress: 0x77cbc500 ntdll.dll
Win32Thread: 0xfffff900c227f8e0
CrossThreadFlags: PS_CROSS_THREAD_FLAGS_DEADTHREAD
0x77cbc500 4883ec48         SUB RSP, 0x48
0x77cbc504 4c8bc9           MOV R9, RCX
0x77cbc507 488b0552da1000   MOV RAX, [RIP+0x10da52]
0x77cbc50e 4885c0           TEST RAX, RAX
0x77cbc511 0f84e3840300     JZ 0x77cf49fa
0x77cbc517 4c               DB 0x4c
------
ETHREAD: 0xfffffa8001f44340 Pid: 1248 Tid: 1348
Tags: 
Created: 2019-12-11 13:41:54 UTC+0000
Exited: 1970-01-01 00:00:00 UTC+0000
Owning Process: svchost.exe
Attached Process: svchost.exe
State: Waiting:UserRequest
BasePriority: 0x8
Priority: 0x8
TEB: 0x7fffffa0000
StartAddress: 0x77cbc500 ntdll.dll
Win32Thread: 0x00000000
CrossThreadFlags: PS_CROSS_THREAD_FLAGS_DEADTHREAD
0x77cbc500 4883ec48         SUB RSP, 0x48
0x77cbc504 4c8bc9           MOV R9, RCX
0x77cbc507 488b0552da1000   MOV RAX, [RIP+0x10da52]
0x77cbc50e 4885c0           TEST RAX, RAX
0x77cbc511 0f84e3840300     JZ 0x77cf49fa
0x77cbc517 4c               DB 0x4c
------
ETHREAD: 0xfffffa8001d3d5e0 Pid: 652 Tid: 684
Tags: 
Created: 2019-12-11 13:41:41 UTC+0000
Exited: 1970-01-01 00:00:00 UTC+0000
Owning Process: VBoxService.ex
Attached Process: VBoxService.ex
State: Waiting:UserRequest
BasePriority: 0x8
Priority: 0xa
TEB: 0x7fffffac000
StartAddress: 0xfffff8a001529090 UNKNOWN
Win32Thread: 0x00000000
CrossThreadFlags: PS_CROSS_THREAD_FLAGS_DEADTHREAD
0xfffff8a001529090 60               DB 0x60
0xfffff8a001529091 d9               DB 0xd9
0xfffff8a001529092 d301             ROL DWORD [RCX], CL
0xfffff8a001529094 80faff           CMP DL, 0xff
0xfffff8a001529097 ffa0bb5001a0     JMP QWORD [RAX-0x5ffeaf45]
0xfffff8a00152909d f8               CLC
0xfffff8a00152909e ff               DB 0xff
0xfffff8a00152909f ffa0905201a0     JMP QWORD [RAX-0x5ffead70]
0xfffff8a0015290a5 f8               CLC
0xfffff8a0015290a6 ff               DB 0xff
0xfffff8a0015290a7 ff               DB 0xff
------
ETHREAD: 0xfffffa8001dd0060 Pid: 852 Tid: 964
Tags: 
Created: 2019-12-11 13:41:44 UTC+0000
Exited: 1970-01-01 00:00:00 UTC+0000
Owning Process: svchost.exe
Attached Process: svchost.exe
State: Waiting:WrQueue
BasePriority: 0x8
Priority: 0x8
TEB: 0x7fffffd4000
StartAddress: 0x77cbc500 ntdll.dll
Win32Thread: 0xfffff900c1aaac30
CrossThreadFlags: PS_CROSS_THREAD_FLAGS_DEADTHREAD
0x77cbc500 4883ec48         SUB RSP, 0x48
0x77cbc504 4c8bc9           MOV R9, RCX
0x77cbc507 488b0552da1000   MOV RAX, [RIP+0x10da52]
0x77cbc50e 4885c0           TEST RAX, RAX
0x77cbc511 0f84e3840300     JZ 0x77cf49fa
0x77cbc517 4c               DB 0x4c
------
ETHREAD: 0xfffffa8002057060 Pid: 472 Tid: 1692
Tags: 
Created: 2019-12-11 13:41:59 UTC+0000
Exited: 1970-01-01 00:00:00 UTC+0000
Owning Process: svchost.exe
Attached Process: svchost.exe
State: Waiting:WrUserRequest
BasePriority: 0x8
Priority: 0xa
TEB: 0x7fffffa4000
StartAddress: 0x77cbc500 ntdll.dll
Win32Thread: 0xfffff900c1ac2850
CrossThreadFlags: PS_CROSS_THREAD_FLAGS_DEADTHREAD
0x77cbc500 4883ec48         SUB RSP, 0x48
0x77cbc504 4c8bc9           MOV R9, RCX
0x77cbc507 488b0552da1000   MOV RAX, [RIP+0x10da52]
0x77cbc50e 4885c0           TEST RAX, RAX
0x77cbc511 0f84e3840300     JZ 0x77cf49fa
0x77cbc517 4c               DB 0x4c
------
ETHREAD: 0xfffffa800224e350 Pid: 296 Tid: 3016
Tags: 
Created: 2019-12-11 14:34:02 UTC+0000
Exited: 1970-01-01 00:00:00 UTC+0000
Owning Process: taskhost.exe
Attached Process: taskhost.exe
State: Waiting:WrQueue
BasePriority: 0x8
Priority: 0x8
TEB: 0x7fffffd7000
StartAddress: 0x77cbc500 ntdll.dll
Win32Thread: 0xfffff900c1f01470
CrossThreadFlags: PS_CROSS_THREAD_FLAGS_DEADTHREAD
0x77cbc500 4883ec48         SUB RSP, 0x48
0x77cbc504 4c8bc9           MOV R9, RCX
0x77cbc507 488b0552da1000   MOV RAX, [RIP+0x10da52]
0x77cbc50e 4885c0           TEST RAX, RAX
0x77cbc511 0f84e3840300     JZ 0x77cf49fa
0x77cbc517 4c               DB 0x4c
------
ETHREAD: 0xfffffa800214d9c0 Pid: 480 Tid: 2040
Tags: 
Created: 2019-12-11 14:16:16 UTC+0000
Exited: 1970-01-01 00:00:00 UTC+0000
Owning Process: SearchIndexer.
Attached Process: SearchIndexer.
State: Waiting:UserRequest
BasePriority: 0x8
Priority: 0x8
TEB: 0x7fffffa4000
StartAddress: 0xfffff8a001911c90 UNKNOWN
Win32Thread: 0x00000000
CrossThreadFlags: PS_CROSS_THREAD_FLAGS_DEADTHREAD
0xfffff8a001911c90 40dd1402         FST QWORD [RDX+RAX]
0xfffff8a001911c94 80faff           CMP DL, 0xff
0xfffff8a001911c97 ff40dd           INC DWORD [RAX-0x23]
0xfffff8a001911c9a 1402             ADC AL, 0x2
0xfffff8a001911c9c 80faff           CMP DL, 0xff
0xfffff8a001911c9f ffa01c9101a0     JMP QWORD [RAX-0x5ffe6ee4]
0xfffff8a001911ca5 f8               CLC
0xfffff8a001911ca6 ff               DB 0xff
0xfffff8a001911ca7 ff               DB 0xff
------
ETHREAD: 0x3fb625f0 Pid: 852 Tid: 616
Tags: ScannerOnly
Created: 2019-12-11 14:37:54 UTC+0000
Exited: 1970-01-01 00:00:00 UTC+0000
Owning Process: svchost.exe
Attached Process: svchost.exe
State: Waiting:WrQueue
BasePriority: 0x8
Priority: 0x8
TEB: 0x7fffff9e000
StartAddress: 0x77cbc500 ntdll.dll
Win32Thread: 0x00000000
CrossThreadFlags: PS_CROSS_THREAD_FLAGS_DEADTHREAD
0x77cbc500 4883ec48         SUB RSP, 0x48
0x77cbc504 4c8bc9           MOV R9, RCX
0x77cbc507 488b0552da1000   MOV RAX, [RIP+0x10da52]
0x77cbc50e 4885c0           TEST RAX, RAX
0x77cbc511 0f84e3840300     JZ 0x77cf49fa
0x77cbc517 4c               DB 0x4c
------
ETHREAD: 0xfffffa8001d3fa40 Pid: 652 Tid: 700
Tags: 
Created: 2019-12-11 13:41:41 UTC+0000
Exited: 1970-01-01 00:00:00 UTC+0000
Owning Process: VBoxService.ex
Attached Process: VBoxService.ex
State: Waiting:Executive
BasePriority: 0x8
Priority: 0x9
TEB: 0x7fffffa4000
StartAddress: 0x77cbc500 ntdll.dll
Win32Thread: 0x00000000
CrossThreadFlags: PS_CROSS_THREAD_FLAGS_DEADTHREAD
0x77cbc500 4883ec48         SUB RSP, 0x48
0x77cbc504 4c8bc9           MOV R9, RCX
0x77cbc507 488b0552da1000   MOV RAX, [RIP+0x10da52]
0x77cbc50e 4885c0           TEST RAX, RAX
0x77cbc511 0f84e3840300     JZ 0x77cf49fa
0x77cbc517 4c               DB 0x4c
------
ETHREAD: 0xfffffa800215a2e0 Pid: 876 Tid: 2024
Tags: 
Created: 2019-12-11 14:16:17 UTC+0000
Exited: 2019-12-11 14:21:18 UTC+0000
Owning Process: svchost.exe
Attached Process: svchost.exe
State: Terminated
BasePriority: 0x8
Priority: 0x8
TEB: 0x00000000
StartAddress: 0x77cbc500 ntdll.dll
Win32Thread: 0x00000000
CrossThreadFlags: PS_CROSS_THREAD_FLAGS_DEADTHREAD, PS_CROSS_THREAD_FLAGS_TERMINATED
0x77cbc500 4883ec48         SUB RSP, 0x48
0x77cbc504 4c8bc9           MOV R9, RCX
0x77cbc507 488b0552da1000   MOV RAX, [RIP+0x10da52]
0x77cbc50e 4885c0           TEST RAX, RAX
0x77cbc511 0f84e3840300     JZ 0x77cf49fa
0x77cbc517 4c               DB 0x4c
------
ETHREAD: 0xfffffa8001d97b60 Pid: 652 Tid: 2280
Tags: 
Created: 2019-12-11 14:36:19 UTC+0000
Exited: 1970-01-01 00:00:00 UTC+0000
Owning Process: VBoxService.ex
Attached Process: VBoxService.ex
State: Waiting:WrQueue
BasePriority: 0x8
Priority: 0x8
TEB: 0x7fffffdb000
StartAddress: 0x77cbc500 ntdll.dll
Win32Thread: 0x00000000
CrossThreadFlags: PS_CROSS_THREAD_FLAGS_DEADTHREAD
0x77cbc500 4883ec48         SUB RSP, 0x48
0x77cbc504 4c8bc9           MOV R9, RCX
0x77cbc507 488b0552da1000   MOV RAX, [RIP+0x10da52]
0x77cbc50e 4885c0           TEST RAX, RAX
0x77cbc511 0f84e3840300     JZ 0x77cf49fa
0x77cbc517 4c               DB 0x4c
------
ETHREAD: 0xfffffa8001044b60 Pid: 1988 Tid: 2972
Tags: 
Created: 2019-12-11 14:37:35 UTC+0000
Exited: 1970-01-01 00:00:00 UTC+0000
Owning Process: dwm.exe
Attached Process: dwm.exe
State: Waiting:WrQueue
BasePriority: 0x8
Priority: 0x8
TEB: 0x7fffffd6000
StartAddress: 0x77cbc500 ntdll.dll
Win32Thread: 0x00000000
CrossThreadFlags: PS_CROSS_THREAD_FLAGS_DEADTHREAD
0x77cbc500 4883ec48         SUB RSP, 0x48
0x77cbc504 4c8bc9           MOV R9, RCX
0x77cbc507 488b0552da1000   MOV RAX, [RIP+0x10da52]
0x77cbc50e 4885c0           TEST RAX, RAX
0x77cbc511 0f84e3840300     JZ 0x77cf49fa
0x77cbc517 4c               DB 0x4c
------
ETHREAD: 0xfffffa8001c4eb60 Pid: 1856 Tid: 1824
Tags: 
Created: 2019-12-11 14:16:08 UTC+0000
Exited: 1970-01-01 00:00:00 UTC+0000
Owning Process: wmpnetwk.exe
Attached Process: wmpnetwk.exe
State: Waiting:WrQueue
BasePriority: 0x8
Priority: 0x8
TEB: 0x7fffffae000
StartAddress: 0x77cbc500 ntdll.dll
Win32Thread: 0x00000000
CrossThreadFlags: PS_CROSS_THREAD_FLAGS_DEADTHREAD
0x77cbc500 4883ec48         SUB RSP, 0x48
0x77cbc504 4c8bc9           MOV R9, RCX
0x77cbc507 488b0552da1000   MOV RAX, [RIP+0x10da52]
0x77cbc50e 4885c0           TEST RAX, RAX
0x77cbc511 0f84e3840300     JZ 0x77cf49fa
0x77cbc517 4c               DB 0x4c
------
ETHREAD: 0xfffffa8000ffe060 Pid: 2504 Tid: 2948
Tags: 
Created: 2019-12-11 14:37:20 UTC+0000
Exited: 1970-01-01 00:00:00 UTC+0000
Owning Process: explorer.exe
Attached Process: explorer.exe
State: Waiting:WrQueue
BasePriority: 0x8
Priority: 0xa
TEB: 0x7fffff82000
StartAddress: 0x77cbc500 ntdll.dll
Win32Thread: 0xfffff900c22ffc30
CrossThreadFlags: PS_CROSS_THREAD_FLAGS_DEADTHREAD
0x77cbc500 4883ec48         SUB RSP, 0x48
0x77cbc504 4c8bc9           MOV R9, RCX
0x77cbc507 488b0552da1000   MOV RAX, [RIP+0x10da52]
0x77cbc50e 4885c0           TEST RAX, RAX
0x77cbc511 0f84e3840300     JZ 0x77cf49fa
0x77cbc517 4c               DB 0x4c
------
ETHREAD: 0xfffffa8001531b60 Pid: 652 Tid: 1916
Tags: 
Created: 2019-12-11 13:42:10 UTC+0000
Exited: 1970-01-01 00:00:00 UTC+0000
Owning Process: VBoxService.ex
Attached Process: VBoxService.ex
State: Waiting:WrQueue
BasePriority: 0x8
Priority: 0x8
TEB: 0x7fffffa2000
StartAddress: 0x77cbc500 ntdll.dll
Win32Thread: 0x00000000
CrossThreadFlags: PS_CROSS_THREAD_FLAGS_DEADTHREAD
0x77cbc500 4883ec48         SUB RSP, 0x48
0x77cbc504 4c8bc9           MOV R9, RCX
0x77cbc507 488b0552da1000   MOV RAX, [RIP+0x10da52]
0x77cbc50e 4885c0           TEST RAX, RAX
0x77cbc511 0f84e3840300     JZ 0x77cf49fa
0x77cbc517 4c               DB 0x4c
------
ETHREAD: 0xfffffa8002259370 Pid: 852 Tid: 2284
Tags: 
Created: 2019-12-11 14:34:26 UTC+0000
Exited: 1970-01-01 00:00:00 UTC+0000
Owning Process: svchost.exe
Attached Process: svchost.exe
State: Waiting:WrQueue
BasePriority: 0x8
Priority: 0x9
TEB: 0x7fffffaa000
StartAddress: 0xfffff8a002092ef0 UNKNOWN
Win32Thread: 0xfffff900c1aac010
CrossThreadFlags: PS_CROSS_THREAD_FLAGS_DEADTHREAD
0xfffff8a002092ef0 f096             XCHG ESI, EAX
0xfffff8a002092ef2 250280faff       AND EAX, 0xfffa8002
0xfffff8a002092ef7 fff0             PUSH RAX
0xfffff8a002092ef9 96               XCHG ESI, EAX
0xfffff8a002092efa 250280faff       AND EAX, 0xfffa8002
0xfffff8a002092eff ff00             INC DWORD [RAX]
0xfffff8a002092f01 2f               DB 0x2f
0xfffff8a002092f02 0902             OR [RDX], EAX
0xfffff8a002092f04 a0               DB 0xa0
0xfffff8a002092f05 f8               CLC
0xfffff8a002092f06 ff               DB 0xff
0xfffff8a002092f07 ff               DB 0xff
------
ETHREAD: 0xfffffa8000f82060 Pid: 2908 Tid: 2116
Tags: 
Created: 2019-12-11 14:37:14 UTC+0000
Exited: 1970-01-01 00:00:00 UTC+0000
Owning Process: taskhost.exe
Attached Process: taskhost.exe
State: Waiting:DelayExecution
BasePriority: 0x8
Priority: 0x9
TEB: 0x7fffffd3000
StartAddress: 0x77cbc500 ntdll.dll
Win32Thread: 0x00000000
CrossThreadFlags: PS_CROSS_THREAD_FLAGS_DEADTHREAD
0x77cbc500 4883ec48         SUB RSP, 0x48
0x77cbc504 4c8bc9           MOV R9, RCX
0x77cbc507 488b0552da1000   MOV RAX, [RIP+0x10da52]
0x77cbc50e 4885c0           TEST RAX, RAX
0x77cbc511 0f84e3840300     JZ 0x77cf49fa
0x77cbc517 4c               DB 0x4c
------
ETHREAD: 0x3fab5b60 Pid: 1512 Tid: 2916
Tags: ScannerOnly
Created: 2019-12-11 14:37:23 UTC+0000
Exited: 1970-01-01 00:00:00 UTC+0000
Owning Process: WinRAR.exe
Attached Process: WinRAR.exe
State: Waiting:WrQueue
BasePriority: 0x8
Priority: 0x8
TEB: 0x7fffffd9000
StartAddress: 0x77cbc500 ntdll.dll
Win32Thread: 0x00000000
CrossThreadFlags: PS_CROSS_THREAD_FLAGS_DEADTHREAD
0x77cbc500 4883ec48         SUB RSP, 0x48
0x77cbc504 4c8bc9           MOV R9, RCX
0x77cbc507 488b0552da1000   MOV RAX, [RIP+0x10da52]
0x77cbc50e 4885c0           TEST RAX, RAX
0x77cbc511 0f84e3840300     JZ 0x77cf49fa
0x77cbc517 4c               DB 0x4c
------
ETHREAD: 0xfffffa800202cb60 Pid: 4 Tid: 1564
Tags: 
Created: 2019-12-11 13:41:58 UTC+0000
Exited: 1970-01-01 00:00:00 UTC+0000
Owning Process: System
Attached Process: System
State: Waiting:WrQueue
BasePriority: 0x8
Priority: 0x8
TEB: 0x00000000
StartAddress: 0xfffff880029910e0 srv2.sys
Win32Thread: 0x00000000
CrossThreadFlags: PS_CROSS_THREAD_FLAGS_DEADTHREAD
0xfffff880029910e0 48895c2410       MOV [RSP+0x10], RBX
0xfffff880029910e5 48896c2418       MOV [RSP+0x18], RBP
0xfffff880029910ea 4889742420       MOV [RSP+0x20], RSI
0xfffff880029910ef 57               PUSH RDI
0xfffff880029910f0 4154             PUSH R12
0xfffff880029910f2 4155             PUSH R13
0xfffff880029910f4 4156             PUSH R14
0xfffff880029910f6 4157             PUSH R15
------
ETHREAD: 0xfffffa8001e16b60 Pid: 4 Tid: 324
Tags: 
Created: 2019-12-11 13:41:46 UTC+0000
Exited: 1970-01-01 00:00:00 UTC+0000
Owning Process: System
Attached Process: System
State: Waiting:Executive
BasePriority: 0x8
Priority: 0x8
TEB: 0x00000000
StartAddress: 0xfffff8800490e51c csc.sys
Win32Thread: 0x00000000
CrossThreadFlags: PS_CROSS_THREAD_FLAGS_DEADTHREAD
0xfffff8800490e51c 4c8bdc           MOV R11, RSP
0xfffff8800490e51f 49894b08         MOV [R11+0x8], RCX
0xfffff8800490e523 53               PUSH RBX
0xfffff8800490e524 55               PUSH RBP
0xfffff8800490e525 56               PUSH RSI
0xfffff8800490e526 57               PUSH RDI
0xfffff8800490e527 4154             PUSH R12
0xfffff8800490e529 4155             PUSH R13
0xfffff8800490e52b 4156             PUSH R14
0xfffff8800490e52d 4157             PUSH R15
0xfffff8800490e52f 4883ec68         SUB RSP, 0x68
0xfffff8800490e533 45               DB 0x45
------
ETHREAD: 0xfffffa8000f03740 Pid: 484 Tid: 2248
Tags: 
Created: 2019-12-11 14:37:13 UTC+0000
Exited: 1970-01-01 00:00:00 UTC+0000
Owning Process: services.exe
Attached Process: services.exe
State: Waiting:WrQueue
BasePriority: 0x9
Priority: 0x9
TEB: 0x7fffffac000
StartAddress: 0x77cbc500 ntdll.dll
Win32Thread: 0x00000000
CrossThreadFlags: PS_CROSS_THREAD_FLAGS_DEADTHREAD
0x77cbc500 4883ec48         SUB RSP, 0x48
0x77cbc504 4c8bc9           MOV R9, RCX
0x77cbc507 488b0552da1000   MOV RAX, [RIP+0x10da52]
0x77cbc50e 4885c0           TEST RAX, RAX
0x77cbc511 0f84e3840300     JZ 0x77cf49fa
0x77cbc517 4c               DB 0x4c
------
ETHREAD: 0xfffffa80013a5060 Pid: 588 Tid: 2896
Tags: 
Created: 2019-12-11 14:35:08 UTC+0000
Exited: 1970-01-01 00:00:00 UTC+0000
Owning Process: svchost.exe
Attached Process: svchost.exe
State: Waiting:WrQueue
BasePriority: 0x8
Priority: 0x8
TEB: 0x7fffffae000
StartAddress: 0x77cbc500 ntdll.dll
Win32Thread: 0x00000000
CrossThreadFlags: PS_CROSS_THREAD_FLAGS_DEADTHREAD
0x77cbc500 4883ec48         SUB RSP, 0x48
0x77cbc504 4c8bc9           MOV R9, RCX
0x77cbc507 488b0552da1000   MOV RAX, [RIP+0x10da52]
0x77cbc50e 4885c0           TEST RAX, RAX
0x77cbc511 0f84e3840300     JZ 0x77cf49fa
0x77cbc517 4c               DB 0x4c
------
ETHREAD: 0xfffffa8000f77b60 Pid: 296 Tid: 2016
Tags: 
Created: 2019-12-11 14:37:45 UTC+0000
Exited: 1970-01-01 00:00:00 UTC+0000
Owning Process: taskhost.exe
Attached Process: taskhost.exe
State: Waiting:WrQueue
BasePriority: 0x8
Priority: 0x8
TEB: 0x7fffffd5000
StartAddress: 0x77cbc500 ntdll.dll
Win32Thread: 0x00000000
CrossThreadFlags: PS_CROSS_THREAD_FLAGS_DEADTHREAD
0x77cbc500 4883ec48         SUB RSP, 0x48
0x77cbc504 4c8bc9           MOV R9, RCX
0x77cbc507 488b0552da1000   MOV RAX, [RIP+0x10da52]
0x77cbc50e 4885c0           TEST RAX, RAX
0x77cbc511 0f84e3840300     JZ 0x77cf49fa
0x77cbc517 4c               DB 0x4c
------
ETHREAD: 0xfffffa8001cba060 Pid: 948 Tid: 1912
Tags: 
Created: 2019-12-11 14:16:09 UTC+0000
Exited: 1970-01-01 00:00:00 UTC+0000
Owning Process: svchost.exe
Attached Process: svchost.exe
State: Waiting:UserRequest
BasePriority: 0x8
Priority: 0x8
TEB: 0x7fffffaa000
StartAddress: 0x77cbc500 ntdll.dll
Win32Thread: 0x00000000
CrossThreadFlags: PS_CROSS_THREAD_FLAGS_DEADTHREAD
0x77cbc500 4883ec48         SUB RSP, 0x48
0x77cbc504 4c8bc9           MOV R9, RCX
0x77cbc507 488b0552da1000   MOV RAX, [RIP+0x10da52]
0x77cbc50e 4885c0           TEST RAX, RAX
0x77cbc511 0f84e3840300     JZ 0x77cf49fa
0x77cbc517 4c               DB 0x4c
------
ETHREAD: 0xfffffa8001468040 Pid: 4 Tid: 224
Tags: 
Created: 2019-12-11 13:41:25 UTC+0000
Exited: 1970-01-01 00:00:00 UTC+0000
Owning Process: System
Attached Process: System
State: Waiting:WrQueue
BasePriority: 0x8
Priority: 0x9
TEB: 0x00000000
StartAddress: 0xfffff88002c4ee50 VBoxSF.sys
Win32Thread: 0x00000000
CrossThreadFlags: PS_CROSS_THREAD_FLAGS_DEADTHREAD
0xfffff88002c4ee50 33d2             XOR EDX, EDX
0xfffff88002c4ee52 e9759afbff       JMP 0xfffff88002c088cc
0xfffff88002c4ee57 cc               INT 3
0xfffff88002c4ee58 48895c2410       MOV [RSP+0x10], RBX
0xfffff88002c4ee5d 48896c2418       MOV [RSP+0x18], RBP
0xfffff88002c4ee62 56               PUSH RSI
0xfffff88002c4ee63 57               PUSH RDI
0xfffff88002c4ee64 4154             PUSH R12
0xfffff88002c4ee66 48               DB 0x48
0xfffff88002c4ee67 81               DB 0x81
------
ETHREAD: 0xfffffa8000f00860 Pid: 876 Tid: 1964
Tags: 
Created: 2019-12-11 14:37:13 UTC+0000
Exited: 1970-01-01 00:00:00 UTC+0000
Owning Process: svchost.exe
Attached Process: svchost.exe
State: Waiting:WrQueue
BasePriority: 0x8
Priority: 0x9
TEB: 0x7fffffae000
StartAddress: 0x77cbc500 ntdll.dll
Win32Thread: 0xfffff900c1ac1850
CrossThreadFlags: PS_CROSS_THREAD_FLAGS_DEADTHREAD
0x77cbc500 4883ec48         SUB RSP, 0x48
0x77cbc504 4c8bc9           MOV R9, RCX
0x77cbc507 488b0552da1000   MOV RAX, [RIP+0x10da52]
0x77cbc50e 4885c0           TEST RAX, RAX
0x77cbc511 0f84e3840300     JZ 0x77cf49fa
0x77cbc517 4c               DB 0x4c
------
ETHREAD: 0xfffffa8001dcab60 Pid: 852 Tid: 312
Tags: 
Created: 2019-12-11 13:41:46 UTC+0000
Exited: 1970-01-01 00:00:00 UTC+0000
Owning Process: svchost.exe
Attached Process: svchost.exe
State: Waiting:WrQueue
BasePriority: 0x8
Priority: 0x8
TEB: 0x7fffffa2000
StartAddress: 0x77cbc500 ntdll.dll
Win32Thread: 0x00000000
CrossThreadFlags: PS_CROSS_THREAD_FLAGS_DEADTHREAD
0x77cbc500 4883ec48         SUB RSP, 0x48
0x77cbc504 4c8bc9           MOV R9, RCX
0x77cbc507 488b0552da1000   MOV RAX, [RIP+0x10da52]
0x77cbc50e 4885c0           TEST RAX, RAX
0x77cbc511 0f84e3840300     JZ 0x77cf49fa
0x77cbc517 4c               DB 0x4c
------
ETHREAD: 0xfffffa8002239b60 Pid: 3004 Tid: 2672
Tags: 
Created: 2019-12-11 14:37:44 UTC+0000
Exited: 1970-01-01 00:00:00 UTC+0000
Owning Process: dwm.exe
Attached Process: dwm.exe
State: Waiting:WrQueue
BasePriority: 0x8
Priority: 0x8
TEB: 0x7fffffd6000
StartAddress: 0x77cbc500 ntdll.dll
Win32Thread: 0x00000000
CrossThreadFlags: PS_CROSS_THREAD_FLAGS_DEADTHREAD
0x77cbc500 4883ec48         SUB RSP, 0x48
0x77cbc504 4c8bc9           MOV R9, RCX
0x77cbc507 488b0552da1000   MOV RAX, [RIP+0x10da52]
0x77cbc50e 4885c0           TEST RAX, RAX
0x77cbc511 0f84e3840300     JZ 0x77cf49fa
0x77cbc517 4c               DB 0x4c
------
ETHREAD: 0xfffffa8001006880 Pid: 1720 Tid: 1216
Tags: 
Created: 2019-12-11 14:37:21 UTC+0000
Exited: 1970-01-01 00:00:00 UTC+0000
Owning Process: SearchFilterHo
Attached Process: SearchFilterHo
State: Waiting:UserRequest
BasePriority: 0x4
Priority: 0x4
TEB: 0x7fffffdb000
StartAddress: 0x77cbc500 ntdll.dll
Win32Thread: 0x00000000
CrossThreadFlags: PS_CROSS_THREAD_FLAGS_DEADTHREAD
0x77cbc500 4883ec48         SUB RSP, 0x48
0x77cbc504 4c8bc9           MOV R9, RCX
0x77cbc507 488b0552da1000   MOV RAX, [RIP+0x10da52]
0x77cbc50e 4885c0           TEST RAX, RAX
0x77cbc511 0f84e3840300     JZ 0x77cf49fa
0x77cbc517 4c               DB 0x4c
------
ETHREAD: 0xfffffa8001ead390 Pid: 720 Tid: 1648
Tags: 
Created: 2019-12-11 14:19:54 UTC+0000
Exited: 1970-01-01 00:00:00 UTC+0000
Owning Process: svchost.exe
Attached Process: svchost.exe
State: Waiting:DelayExecution
BasePriority: 0x8
Priority: 0x8
TEB: 0x7fffffd3000
StartAddress: 0x77cbc500 ntdll.dll
Win32Thread: 0x00000000
CrossThreadFlags: PS_CROSS_THREAD_FLAGS_DEADTHREAD
0x77cbc500 4883ec48         SUB RSP, 0x48
0x77cbc504 4c8bc9           MOV R9, RCX
0x77cbc507 488b0552da1000   MOV RAX, [RIP+0x10da52]
0x77cbc50e 4885c0           TEST RAX, RAX
0x77cbc511 0f84e3840300     JZ 0x77cf49fa
0x77cbc517 4c               DB 0x4c
------
ETHREAD: 0xfffffa800133a040 Pid: 4 Tid: 188
Tags: 
Created: 2019-12-11 13:41:22 UTC+0000
Exited: 1970-01-01 00:00:00 UTC+0000
Owning Process: System
Attached Process: System
State: Waiting:Executive
BasePriority: 0x8
Priority: 0x14
TEB: 0x00000000
StartAddress: 0xfffff880018dd900 volsnap.sys
Win32Thread: 0x00000000
CrossThreadFlags: PS_CROSS_THREAD_FLAGS_DEADTHREAD
0xfffff880018dd900 48895c2408       MOV [RSP+0x8], RBX
0xfffff880018dd905 48896c2410       MOV [RSP+0x10], RBP
0xfffff880018dd90a 4889742418       MOV [RSP+0x18], RSI
0xfffff880018dd90f 57               PUSH RDI
0xfffff880018dd910 4883ec30         SUB RSP, 0x30
0xfffff880018dd914 488b7928         MOV RDI, [RCX+0x28]
------
ETHREAD: 0xfffffa8001ee4060 Pid: 492 Tid: 1308
Tags: 
Created: 2019-12-11 14:31:00 UTC+0000
Exited: 1970-01-01 00:00:00 UTC+0000
Owning Process: lsass.exe
Attached Process: lsass.exe
State: Waiting:WrQueue
BasePriority: 0x9
Priority: 0x9
TEB: 0x7fffffd3000
StartAddress: 0x77cbc500 ntdll.dll
Win32Thread: 0x00000000
CrossThreadFlags: PS_CROSS_THREAD_FLAGS_DEADTHREAD
0x77cbc500 4883ec48         SUB RSP, 0x48
0x77cbc504 4c8bc9           MOV R9, RCX
0x77cbc507 488b0552da1000   MOV RAX, [RIP+0x10da52]
0x77cbc50e 4885c0           TEST RAX, RAX
0x77cbc511 0f84e3840300     JZ 0x77cf49fa
0x77cbc517 4c               DB 0x4c
------
ETHREAD: 0xfffffa8001d6a5d0 Pid: 416 Tid: 780
Tags: 
Created: 2019-12-11 13:41:42 UTC+0000
Exited: 1970-01-01 00:00:00 UTC+0000
Owning Process: winlogon.exe
Attached Process: winlogon.exe
State: Waiting:UserRequest
BasePriority: 0xd
Priority: 0xf
TEB: 0x7fffffd7000
StartAddress: 0x77cbc500 ntdll.dll
Win32Thread: 0x00000000
CrossThreadFlags: PS_CROSS_THREAD_FLAGS_DEADTHREAD
0x77cbc500 4883ec48         SUB RSP, 0x48
0x77cbc504 4c8bc9           MOV R9, RCX
0x77cbc507 488b0552da1000   MOV RAX, [RIP+0x10da52]
0x77cbc50e 4885c0           TEST RAX, RAX
0x77cbc511 0f84e3840300     JZ 0x77cf49fa
0x77cbc517 4c               DB 0x4c
------
ETHREAD: 0xfffffa8001c5cb60 Pid: 376 Tid: 408
Tags: 
Created: 2019-12-11 13:41:34 UTC+0000
Exited: 1970-01-01 00:00:00 UTC+0000
Owning Process: psxss.exe
Attached Process: psxss.exe
State: Waiting:WrLpcReceive
BasePriority: 0xd
Priority: 0xe
TEB: 0x7fffffdc000
StartAddress: 0x77cbc500 ntdll.dll
Win32Thread: 0x00000000
CrossThreadFlags: PS_CROSS_THREAD_FLAGS_DEADTHREAD
0x77cbc500 4883ec48         SUB RSP, 0x48
0x77cbc504 4c8bc9           MOV R9, RCX
0x77cbc507 488b0552da1000   MOV RAX, [RIP+0x10da52]
0x77cbc50e 4885c0           TEST RAX, RAX
0x77cbc511 0f84e3840300     JZ 0x77cf49fa
0x77cbc517 4c               DB 0x4c
------
ETHREAD: 0xfffffa8001da8a60 Pid: 852 Tid: 868
Tags: 
Created: 2019-12-11 13:41:43 UTC+0000
Exited: 1970-01-01 00:00:00 UTC+0000
Owning Process: svchost.exe
Attached Process: svchost.exe
State: Waiting:WrQueue
BasePriority: 0x8
Priority: 0x8
TEB: 0x7fffffd6000
StartAddress: 0x77cbc500 ntdll.dll
Win32Thread: 0xfffff900c1ab0850
CrossThreadFlags: PS_CROSS_THREAD_FLAGS_DEADTHREAD
0x77cbc500 4883ec48         SUB RSP, 0x48
0x77cbc504 4c8bc9           MOV R9, RCX
0x77cbc507 488b0552da1000   MOV RAX, [RIP+0x10da52]
0x77cbc50e 4885c0           TEST RAX, RAX
0x77cbc511 0f84e3840300     JZ 0x77cf49fa
0x77cbc517 4c               DB 0x4c
------
ETHREAD: 0xfffffa8000e7d690 Pid: 2524 Tid: 1956
Tags: 
Created: 2019-12-11 14:37:21 UTC+0000
Exited: 1970-01-01 00:00:00 UTC+0000
Owning Process: SearchProtocol
Attached Process: SearchProtocol
State: Waiting:UserRequest
BasePriority: 0x4
Priority: 0x5
TEB: 0x7fffffda000
StartAddress: 0x77cbc500 ntdll.dll
Win32Thread: 0xfffff900c22f7c30
CrossThreadFlags: PS_CROSS_THREAD_FLAGS_DEADTHREAD
0x77cbc500 4883ec48         SUB RSP, 0x48
0x77cbc504 4c8bc9           MOV R9, RCX
0x77cbc507 488b0552da1000   MOV RAX, [RIP+0x10da52]
0x77cbc50e 4885c0           TEST RAX, RAX
0x77cbc511 0f84e3840300     JZ 0x77cf49fa
0x77cbc517 4c               DB 0x4c
------
ETHREAD: 0x3fae9aa0 Pid: 3004 Tid: 2736
Tags: ScannerOnly
Created: 2019-12-11 14:37:44 UTC+0000
Exited: 1970-01-01 00:00:00 UTC+0000
Owning Process: dwm.exe
Attached Process: dwm.exe
State: Waiting:WrQueue
BasePriority: 0x8
Priority: 0x8
TEB: 0x7fffffd4000
StartAddress: 0x77cbc500 ntdll.dll
Win32Thread: 0x00000000
CrossThreadFlags: PS_CROSS_THREAD_FLAGS_DEADTHREAD
0x77cbc500 4883ec48         SUB RSP, 0x48
0x77cbc504 4c8bc9           MOV R9, RCX
0x77cbc507 488b0552da1000   MOV RAX, [RIP+0x10da52]
0x77cbc50e 4885c0           TEST RAX, RAX
0x77cbc511 0f84e3840300     JZ 0x77cf49fa
0x77cbc517 4c               DB 0x4c
------
ETHREAD: 0xfffffa8001dbdb60 Pid: 1856 Tid: 1740
Tags: 
Created: 2019-12-11 14:16:11 UTC+0000
Exited: 1970-01-01 00:00:00 UTC+0000
Owning Process: wmpnetwk.exe
Attached Process: wmpnetwk.exe
State: Waiting:WrQueue
BasePriority: 0xf
Priority: 0xf
TEB: 0x7fffff9a000
StartAddress: 0x77cbc500 ntdll.dll
Win32Thread: 0x00000000
CrossThreadFlags: PS_CROSS_THREAD_FLAGS_DEADTHREAD
0x77cbc500 4883ec48         SUB RSP, 0x48
0x77cbc504 4c8bc9           MOV R9, RCX
0x77cbc507 488b0552da1000   MOV RAX, [RIP+0x10da52]
0x77cbc50e 4885c0           TEST RAX, RAX
0x77cbc511 0f84e3840300     JZ 0x77cf49fa
0x77cbc517 4c               DB 0x4c
------
ETHREAD: 0xfffffa80021aaae0 Pid: 604 Tid: 1260
Tags: 
Created: 2019-12-11 14:32:29 UTC+0000
Exited: 1970-01-01 00:00:00 UTC+0000
Owning Process: explorer.exe
Attached Process: explorer.exe
State: Waiting:UserRequest
BasePriority: 0x8
Priority: 0x8
TEB: 0x7fffffae000
StartAddress: 0x77cbc500 ntdll.dll
Win32Thread: 0xfffff900c1b0a3b0
CrossThreadFlags: PS_CROSS_THREAD_FLAGS_DEADTHREAD
0x77cbc500 4883ec48         SUB RSP, 0x48
0x77cbc504 4c8bc9           MOV R9, RCX
0x77cbc507 488b0552da1000   MOV RAX, [RIP+0x10da52]
0x77cbc50e 4885c0           TEST RAX, RAX
0x77cbc511 0f84e3840300     JZ 0x77cf49fa
0x77cbc517 4c               DB 0x4c
------
ETHREAD: 0xfffffa800224f710 Pid: 472 Tid: 2752
Tags: 
Created: 2019-12-11 14:35:28 UTC+0000
Exited: 1970-01-01 00:00:00 UTC+0000
Owning Process: svchost.exe
Attached Process: svchost.exe
State: Waiting:WrQueue
BasePriority: 0x8
Priority: 0x9
TEB: 0x7fffffae000
StartAddress: 0x77cbc500 ntdll.dll
Win32Thread: 0x00000000
CrossThreadFlags: PS_CROSS_THREAD_FLAGS_DEADTHREAD
0x77cbc500 4883ec48         SUB RSP, 0x48
0x77cbc504 4c8bc9           MOV R9, RCX
0x77cbc507 488b0552da1000   MOV RAX, [RIP+0x10da52]
0x77cbc50e 4885c0           TEST RAX, RAX
0x77cbc511 0f84e3840300     JZ 0x77cf49fa
0x77cbc517 4c               DB 0x4c
------
ETHREAD: 0xfffffa8000e633a0 Pid: 4 Tid: 1408
Tags: 
Created: 2019-12-11 14:16:07 UTC+0000
Exited: 1970-01-01 00:00:00 UTC+0000
Owning Process: System
Attached Process: System
State: Waiting:Executive
BasePriority: 0x8
Priority: 0x8
TEB: 0x00000000
StartAddress: 0xfffff88002ae9518 spsys.sys
Win32Thread: 0x00000000
CrossThreadFlags: PS_CROSS_THREAD_FLAGS_DEADTHREAD
0xfffff88002ae9518 4c8bdc           MOV R11, RSP
0xfffff88002ae951b 49895b10         MOV [R11+0x10], RBX
0xfffff88002ae951f 49897318         MOV [R11+0x18], RSI
0xfffff88002ae9523 57               PUSH RDI
0xfffff88002ae9524 4883ec70         SUB RSP, 0x70
0xfffff88002ae9528 8b4110           MOV EAX, [RCX+0x10]
0xfffff88002ae952b 488bd9           MOV RBX, RCX
0xfffff88002ae952e 48               DB 0x48
0xfffff88002ae952f 69               DB 0x69
------
ETHREAD: 0xfffffa8000ffcb60 Pid: 816 Tid: 2044
Tags: 
Created: 2019-12-11 14:37:14 UTC+0000
Exited: 1970-01-01 00:00:00 UTC+0000
Owning Process: svchost.exe
Attached Process: svchost.exe
State: Waiting:WrQueue
BasePriority: 0x8
Priority: 0x9
TEB: 0x7fffff92000
StartAddress: 0x77cbc500 ntdll.dll
Win32Thread: 0x00000000
CrossThreadFlags: PS_CROSS_THREAD_FLAGS_DEADTHREAD
0x77cbc500 4883ec48         SUB RSP, 0x48
0x77cbc504 4c8bc9           MOV R9, RCX
0x77cbc507 488b0552da1000   MOV RAX, [RIP+0x10da52]
0x77cbc50e 4885c0           TEST RAX, RAX
0x77cbc511 0f84e3840300     JZ 0x77cf49fa
0x77cbc517 4c               DB 0x4c
------
ETHREAD: 0x3faad060 Pid: 2868 Tid: 1820
Tags: ScannerOnly
Created: 2019-12-11 14:37:23 UTC+0000
Exited: 1970-01-01 00:00:00 UTC+0000
Owning Process: SearchProtocol
Attached Process: SearchProtocol
State: Waiting:WrQueue
BasePriority: 0x4
Priority: 0x4
TEB: 0x7fffffd5000
StartAddress: 0x77cbc500 ntdll.dll
Win32Thread: 0xfffff900c1aebc30
CrossThreadFlags: PS_CROSS_THREAD_FLAGS_DEADTHREAD
0x77cbc500 4883ec48         SUB RSP, 0x48
0x77cbc504 4c8bc9           MOV R9, RCX
0x77cbc507 488b0552da1000   MOV RAX, [RIP+0x10da52]
0x77cbc50e 4885c0           TEST RAX, RAX
0x77cbc511 0f84e3840300     JZ 0x77cf49fa
0x77cbc517 4c               DB 0x4c
------
ETHREAD: 0xfffffa8000f41b60 Pid: 604 Tid: 2936
Tags: 
Created: 2019-12-11 14:37:42 UTC+0000
Exited: 1970-01-01 00:00:00 UTC+0000
Owning Process: explorer.exe
Attached Process: explorer.exe
State: Waiting:WrQueue
BasePriority: 0x8
Priority: 0xa
TEB: 0x7fffffa6000
StartAddress: 0x77cbc500 ntdll.dll
Win32Thread: 0xfffff900c1cf85e0
CrossThreadFlags: PS_CROSS_THREAD_FLAGS_DEADTHREAD
0x77cbc500 4883ec48         SUB RSP, 0x48
0x77cbc504 4c8bc9           MOV R9, RCX
0x77cbc507 488b0552da1000   MOV RAX, [RIP+0x10da52]
0x77cbc50e 4885c0           TEST RAX, RAX
0x77cbc511 0f84e3840300     JZ 0x77cf49fa
0x77cbc517 4c               DB 0x4c
------
ETHREAD: 0x3faab500 Pid: 2868 Tid: 2824
Tags: ScannerOnly
Created: 2019-12-11 14:37:23 UTC+0000
Exited: 1970-01-01 00:00:00 UTC+0000
Owning Process: SearchProtocol
Attached Process: SearchProtocol
State: Waiting:UserRequest
BasePriority: 0x4
Priority: 0x4
TEB: 0x7fffffda000
StartAddress: 0x77cbc500 ntdll.dll
Win32Thread: 0xfffff900c1ae76b0
CrossThreadFlags: PS_CROSS_THREAD_FLAGS_DEADTHREAD
0x77cbc500 4883ec48         SUB RSP, 0x48
0x77cbc504 4c8bc9           MOV R9, RCX
0x77cbc507 488b0552da1000   MOV RAX, [RIP+0x10da52]
0x77cbc50e 4885c0           TEST RAX, RAX
0x77cbc511 0f84e3840300     JZ 0x77cf49fa
0x77cbc517 4c               DB 0x4c
------
ETHREAD: 0xfffffa8001ca2b60 Pid: 588 Tid: 592
Tags: 
Created: 2019-12-11 13:41:39 UTC+0000
Exited: 1970-01-01 00:00:00 UTC+0000
Owning Process: svchost.exe
Attached Process: svchost.exe
State: Waiting:UserRequest
BasePriority: 0x8
Priority: 0x9
TEB: 0x7fffffde000
StartAddress: 0x77cbc500 ntdll.dll
Win32Thread: 0x00000000
CrossThreadFlags: PS_CROSS_THREAD_FLAGS_DEADTHREAD
0x77cbc500 4883ec48         SUB RSP, 0x48
0x77cbc504 4c8bc9           MOV R9, RCX
0x77cbc507 488b0552da1000   MOV RAX, [RIP+0x10da52]
0x77cbc50e 4885c0           TEST RAX, RAX
0x77cbc511 0f84e3840300     JZ 0x77cf49fa
0x77cbc517 4c               DB 0x4c
------
ETHREAD: 0xfffffa8001c3e5c0 Pid: 1856 Tid: 1872
Tags: 
Created: 2019-12-11 14:16:08 UTC+0000
Exited: 1970-01-01 00:00:00 UTC+0000
Owning Process: wmpnetwk.exe
Attached Process: wmpnetwk.exe
State: Waiting:UserRequest
BasePriority: 0x8
Priority: 0x9
TEB: 0x7fffffd3000
StartAddress: 0x77cbc500 ntdll.dll
Win32Thread: 0x00000000
CrossThreadFlags: PS_CROSS_THREAD_FLAGS_DEADTHREAD
0x77cbc500 4883ec48         SUB RSP, 0x48
0x77cbc504 4c8bc9           MOV R9, RCX
0x77cbc507 488b0552da1000   MOV RAX, [RIP+0x10da52]
0x77cbc50e 4885c0           TEST RAX, RAX
0x77cbc511 0f84e3840300     JZ 0x77cf49fa
0x77cbc517 4c               DB 0x4c
------
ETHREAD: 0xfffffa8002192060 Pid: 296 Tid: 976
Tags: 
Created: 2019-12-11 14:32:26 UTC+0000
Exited: 1970-01-01 00:00:00 UTC+0000
Owning Process: taskhost.exe
Attached Process: taskhost.exe
State: Waiting:WrUserRequest
BasePriority: 0xa
Priority: 0xc
TEB: 0x7fffffac000
StartAddress: 0x77cbc500 ntdll.dll
Win32Thread: 0xfffff900c21a28e0
CrossThreadFlags: PS_CROSS_THREAD_FLAGS_DEADTHREAD
0x77cbc500 4883ec48         SUB RSP, 0x48
0x77cbc504 4c8bc9           MOV R9, RCX
0x77cbc507 488b0552da1000   MOV RAX, [RIP+0x10da52]
0x77cbc50e 4885c0           TEST RAX, RAX
0x77cbc511 0f84e3840300     JZ 0x77cf49fa
0x77cbc517 4c               DB 0x4c
------
ETHREAD: 0xfffffa8001c80640 Pid: 368 Tid: 456
Tags: 
Created: 2019-12-11 13:41:34 UTC+0000
Exited: 1970-01-01 00:00:00 UTC+0000
Owning Process: csrss.exe
Attached Process: csrss.exe
State: Waiting:WrUserRequest
BasePriority: 0xd
Priority: 0xd
TEB: 0x7fffffae000
StartAddress: 0x77cbc500 ntdll.dll
Win32Thread: 0xfffff900c0152520
CrossThreadFlags: PS_CROSS_THREAD_FLAGS_DEADTHREAD
0x77cbc500 4883ec48         SUB RSP, 0x48
0x77cbc504 4c8bc9           MOV R9, RCX
0x77cbc507 488b0552da1000   MOV RAX, [RIP+0x10da52]
0x77cbc50e 4885c0           TEST RAX, RAX
0x77cbc511 0f84e3840300     JZ 0x77cf49fa
0x77cbc517 4c               DB 0x4c
------
ETHREAD: 0xfffffa8001337b60 Pid: 4 Tid: 180
Tags: 
Created: 2019-12-11 13:41:22 UTC+0000
Exited: 1970-01-01 00:00:00 UTC+0000
Owning Process: System
Attached Process: System
State: Waiting:Executive
BasePriority: 0x8
Priority: 0x8
TEB: 0x00000000
StartAddress: 0xfffff880018dd900 volsnap.sys
Win32Thread: 0x00000000
CrossThreadFlags: PS_CROSS_THREAD_FLAGS_DEADTHREAD
0xfffff880018dd900 48895c2408       MOV [RSP+0x8], RBX
0xfffff880018dd905 48896c2410       MOV [RSP+0x10], RBP
0xfffff880018dd90a 4889742418       MOV [RSP+0x18], RSI
0xfffff880018dd90f 57               PUSH RDI
0xfffff880018dd910 4883ec30         SUB RSP, 0x30
0xfffff880018dd914 488b7928         MOV RDI, [RCX+0x28]
------
ETHREAD: 0xfffffa8001f0e4a0 Pid: 876 Tid: 1708
Tags: 
Created: 2019-12-11 14:32:24 UTC+0000
Exited: 1970-01-01 00:00:00 UTC+0000
Owning Process: svchost.exe
Attached Process: svchost.exe
State: Waiting:WrQueue
BasePriority: 0x8
Priority: 0x8
TEB: 0x7fffffa2000
StartAddress: 0x77cbc500 ntdll.dll
Win32Thread: 0xfffff900c1ae1850
CrossThreadFlags: PS_CROSS_THREAD_FLAGS_DEADTHREAD
0x77cbc500 4883ec48         SUB RSP, 0x48
0x77cbc504 4c8bc9           MOV R9, RCX
0x77cbc507 488b0552da1000   MOV RAX, [RIP+0x10da52]
0x77cbc50e 4885c0           TEST RAX, RAX
0x77cbc511 0f84e3840300     JZ 0x77cf49fa
0x77cbc517 4c               DB 0x4c
------
ETHREAD: 0x3fb11b60 Pid: 1720 Tid: 268
Tags: ScannerOnly
Created: 2019-12-11 14:37:21 UTC+0000
Exited: 1970-01-01 00:00:00 UTC+0000
Owning Process: SearchFilterHo
Attached Process: SearchFilterHo
State: Waiting:WrQueue
BasePriority: 0x4
Priority: 0x4
TEB: 0x7fffffd9000
StartAddress: 0xfffff8a00223b4b0 UNKNOWN
Win32Thread: 0xfffff900c1aacc30
CrossThreadFlags: PS_CROSS_THREAD_FLAGS_DEADTHREAD
0xfffff8a00223b4b0 e07e             LOOPNZ 0xfffff8a00223b530
0xfffff8a00223b4b2 0001             ADD [RCX], AL
0xfffff8a00223b4b4 80faff           CMP DL, 0xff
0xfffff8a00223b4b7 fff0             PUSH RAX
0xfffff8a00223b4b9 2d4502a0f8       SUB EAX, 0xf8a00245
0xfffff8a00223b4be ff               DB 0xff
0xfffff8a00223b4bf ffc0             INC EAX
0xfffff8a00223b4c1 b423             MOV AH, 0x23
0xfffff8a00223b4c3 02               DB 0x2
0xfffff8a00223b4c4 a0               DB 0xa0
0xfffff8a00223b4c5 f8               CLC
0xfffff8a00223b4c6 ff               DB 0xff
0xfffff8a00223b4c7 ff               DB 0xff
------
ETHREAD: 0x3fb28840 Pid: 2868 Tid: 1156
Tags: ScannerOnly
Created: 2019-12-11 14:37:23 UTC+0000
Exited: 1970-01-01 00:00:00 UTC+0000
Owning Process: SearchProtocol
Attached Process: SearchProtocol
State: Waiting:UserRequest
BasePriority: 0x4
Priority: 0x4
TEB: 0x7fffffde000
StartAddress: 0x77cbc500 ntdll.dll
Win32Thread: 0xfffff900c1ae7010
CrossThreadFlags: PS_CROSS_THREAD_FLAGS_DEADTHREAD
0x77cbc500 4883ec48         SUB RSP, 0x48
0x77cbc504 4c8bc9           MOV R9, RCX
0x77cbc507 488b0552da1000   MOV RAX, [RIP+0x10da52]
0x77cbc50e 4885c0           TEST RAX, RAX
0x77cbc511 0f84e3840300     JZ 0x77cf49fa
0x77cbc517 4c               DB 0x4c
------
ETHREAD: 0xfffffa8001d51060 Pid: 720 Tid: 740
Tags: 
Created: 2019-12-11 13:41:41 UTC+0000
Exited: 1970-01-01 00:00:00 UTC+0000
Owning Process: svchost.exe
Attached Process: svchost.exe
State: Waiting:UserRequest
BasePriority: 0x8
Priority: 0x8
TEB: 0x7fffffd5000
StartAddress: 0x77cbc500 ntdll.dll
Win32Thread: 0x00000000
CrossThreadFlags: PS_CROSS_THREAD_FLAGS_DEADTHREAD
0x77cbc500 4883ec48         SUB RSP, 0x48
0x77cbc504 4c8bc9           MOV R9, RCX
0x77cbc507 488b0552da1000   MOV RAX, [RIP+0x10da52]
0x77cbc50e 4885c0           TEST RAX, RAX
0x77cbc511 0f84e3840300     JZ 0x77cf49fa
0x77cbc517 4c               DB 0x4c
------
ETHREAD: 0xfffffa8001bcab60 Pid: 948 Tid: 1160
Tags: 
Created: 2019-12-11 14:16:19 UTC+0000
Exited: 1970-01-01 00:00:00 UTC+0000
Owning Process: svchost.exe
Attached Process: svchost.exe
State: Waiting:UserRequest
BasePriority: 0x8
Priority: 0x8
TEB: 0x7fffffa0000
StartAddress: 0x77cbc500 ntdll.dll
Win32Thread: 0x00000000
CrossThreadFlags: PS_CROSS_THREAD_FLAGS_DEADTHREAD
0x77cbc500 4883ec48         SUB RSP, 0x48
0x77cbc504 4c8bc9           MOV R9, RCX
0x77cbc507 488b0552da1000   MOV RAX, [RIP+0x10da52]
0x77cbc50e 4885c0           TEST RAX, RAX
0x77cbc511 0f84e3840300     JZ 0x77cf49fa
0x77cbc517 4c               DB 0x4c
------
ETHREAD: 0xfffffa8002056b60 Pid: 852 Tid: 1700
Tags: 
Created: 2019-12-11 13:41:59 UTC+0000
Exited: 1970-01-01 00:00:00 UTC+0000
Owning Process: svchost.exe
Attached Process: svchost.exe
State: Waiting:UserRequest
BasePriority: 0x8
Priority: 0x9
TEB: 0x7fffff92000
StartAddress: 0x77cbc500 ntdll.dll
Win32Thread: 0x00000000
CrossThreadFlags: PS_CROSS_THREAD_FLAGS_DEADTHREAD
0x77cbc500 4883ec48         SUB RSP, 0x48
0x77cbc504 4c8bc9           MOV R9, RCX
0x77cbc507 488b0552da1000   MOV RAX, [RIP+0x10da52]
0x77cbc50e 4885c0           TEST RAX, RAX
0x77cbc511 0f84e3840300     JZ 0x77cf49fa
0x77cbc517 4c               DB 0x4c
------
ETHREAD: 0xfffffa80022b73d0 Pid: 852 Tid: 2832
Tags: 
Created: 2019-12-11 14:33:14 UTC+0000
Exited: 1970-01-01 00:00:00 UTC+0000
Owning Process: svchost.exe
Attached Process: svchost.exe
State: Waiting:UserRequest
BasePriority: 0x8
Priority: 0x9
TEB: 0x7fffff80000
StartAddress: 0xfffff8a001ee5830 UNKNOWN
Win32Thread: 0x00000000
CrossThreadFlags: PS_CROSS_THREAD_FLAGS_DEADTHREAD
0xfffff8a001ee5830 50               PUSH RAX
0xfffff8a001ee5831 772b             JA 0xfffff8a001ee585e
0xfffff8a001ee5833 0280faffff50     ADD AL, [RAX+0x50fffffa]
0xfffff8a001ee5839 772b             JA 0xfffff8a001ee5866
0xfffff8a001ee583b 0280faffff40     ADD AL, [RAX+0x40fffffa]
0xfffff8a001ee5841 58               POP RAX
0xfffff8a001ee5842 ee               OUT DX, AL
0xfffff8a001ee5843 01               DB 0x1
0xfffff8a001ee5844 a0               DB 0xa0
0xfffff8a001ee5845 f8               CLC
0xfffff8a001ee5846 ff               DB 0xff
0xfffff8a001ee5847 ff               DB 0xff
------
ETHREAD: 0xfffffa8000f39060 Pid: 484 Tid: 1352
Tags: 
Created: 2019-12-11 14:37:13 UTC+0000
Exited: 1970-01-01 00:00:00 UTC+0000
Owning Process: services.exe
Attached Process: services.exe
State: Waiting:WrQueue
BasePriority: 0x9
Priority: 0x9
TEB: 0x7fffffa8000
StartAddress: 0x77cbc500 ntdll.dll
Win32Thread: 0x00000000
CrossThreadFlags: PS_CROSS_THREAD_FLAGS_DEADTHREAD
0x77cbc500 4883ec48         SUB RSP, 0x48
0x77cbc504 4c8bc9           MOV R9, RCX
0x77cbc507 488b0552da1000   MOV RAX, [RIP+0x10da52]
0x77cbc50e 4885c0           TEST RAX, RAX
0x77cbc511 0f84e3840300     JZ 0x77cf49fa
0x77cbc517 4c               DB 0x4c
------
ETHREAD: 0xfffffa8000f558c0 Pid: 2504 Tid: 2872
Tags: 
Created: 2019-12-11 14:37:14 UTC+0000
Exited: 1970-01-01 00:00:00 UTC+0000
Owning Process: explorer.exe
Attached Process: explorer.exe
State: Waiting:WrUserRequest
BasePriority: 0x8
Priority: 0xc
TEB: 0x7fffffde000
StartAddress: 0x77cbc500 ntdll.dll
Win32Thread: 0xfffff900c01f22d0
CrossThreadFlags: PS_CROSS_THREAD_FLAGS_DEADTHREAD
0x77cbc500 4883ec48         SUB RSP, 0x48
0x77cbc504 4c8bc9           MOV R9, RCX
0x77cbc507 488b0552da1000   MOV RAX, [RIP+0x10da52]
0x77cbc50e 4885c0           TEST RAX, RAX
0x77cbc511 0f84e3840300     JZ 0x77cf49fa
0x77cbc517 4c               DB 0x4c
------
ETHREAD: 0xfffffa800149a060 Pid: 248 Tid: 256
Tags: 
Created: 2019-12-11 13:41:25 UTC+0000
Exited: 1970-01-01 00:00:00 UTC+0000
Owning Process: smss.exe
Attached Process: smss.exe
State: Waiting:WrQueue
BasePriority: 0xb
Priority: 0xd
TEB: 0x7fffffdc000
StartAddress: 0x77cbc500 ntdll.dll
Win32Thread: 0x00000000
CrossThreadFlags: PS_CROSS_THREAD_FLAGS_DEADTHREAD
0x77cbc500 4883ec48         SUB RSP, 0x48
0x77cbc504 4c8bc9           MOV R9, RCX
0x77cbc507 488b0552da1000   MOV RAX, [RIP+0x10da52]
0x77cbc50e 4885c0           TEST RAX, RAX
0x77cbc511 0f84e3840300     JZ 0x77cf49fa
0x77cbc517 4c               DB 0x4c
------
ETHREAD: 0xfffffa80021cdb60 Pid: 2368 Tid: 2748
Tags: HwBreakpoint
Created: 2019-12-11 14:38:13 UTC+0000
Exited: 1970-01-01 00:00:00 UTC+0000
Owning Process: svchost.exe
Attached Process: svchost.exe
State: Waiting:WrQueue
BasePriority: 0x8
Priority: 0x8
TEB: 0x7fffffd7000
StartAddress: 0x77cbc500 ntdll.dll
Win32Thread: 0x00000000
CrossThreadFlags: PS_CROSS_THREAD_FLAGS_DEADTHREAD
0x77cbc500 4883ec48         SUB RSP, 0x48
0x77cbc504 4c8bc9           MOV R9, RCX
0x77cbc507 488b0552da1000   MOV RAX, [RIP+0x10da52]
0x77cbc50e 4885c0           TEST RAX, RAX
0x77cbc511 0f84e3840300     JZ 0x77cf49fa
0x77cbc517 4c               DB 0x4c
------
ETHREAD: 0xfffffa8001f2eb60 Pid: 1248 Tid: 1316
Tags: 
Created: 2019-12-11 13:41:54 UTC+0000
Exited: 1970-01-01 00:00:00 UTC+0000
Owning Process: svchost.exe
Attached Process: svchost.exe
State: Waiting:UserRequest
BasePriority: 0x8
Priority: 0x9
TEB: 0x7fffffac000
StartAddress: 0x77cbc500 ntdll.dll
Win32Thread: 0x00000000
CrossThreadFlags: PS_CROSS_THREAD_FLAGS_DEADTHREAD
0x77cbc500 4883ec48         SUB RSP, 0x48
0x77cbc504 4c8bc9           MOV R9, RCX
0x77cbc507 488b0552da1000   MOV RAX, [RIP+0x10da52]
0x77cbc50e 4885c0           TEST RAX, RAX
0x77cbc511 0f84e3840300     JZ 0x77cf49fa
0x77cbc517 4c               DB 0x4c
------
ETHREAD: 0x3facb7f0 Pid: 604 Tid: 2952
Tags: ScannerOnly
Created: 2019-12-11 14:37:42 UTC+0000
Exited: 1970-01-01 00:00:00 UTC+0000
Owning Process: explorer.exe
Attached Process: explorer.exe
State: Waiting:WrQueue
BasePriority: 0x8
Priority: 0xa
TEB: 0x7fffff7e000
StartAddress: 0x77cbc500 ntdll.dll
Win32Thread: 0xfffff900c1e60c30
CrossThreadFlags: PS_CROSS_THREAD_FLAGS_DEADTHREAD
0x77cbc500 4883ec48         SUB RSP, 0x48
0x77cbc504 4c8bc9           MOV R9, RCX
0x77cbc507 488b0552da1000   MOV RAX, [RIP+0x10da52]
0x77cbc50e 4885c0           TEST RAX, RAX
0x77cbc511 0f84e3840300     JZ 0x77cf49fa
0x77cbc517 4c               DB 0x4c
------
ETHREAD: 0xfffffa80021d44b0 Pid: 1844 Tid: 1112
Tags: 
Created: 2019-12-11 14:32:36 UTC+0000
Exited: 1970-01-01 00:00:00 UTC+0000
Owning Process: VBoxTray.exe
Attached Process: VBoxTray.exe
State: Waiting:UserRequest
BasePriority: 0x8
Priority: 0x8
TEB: 0x7fffffdc000
StartAddress: 0x77cbc500 ntdll.dll
Win32Thread: 0x00000000
CrossThreadFlags: PS_CROSS_THREAD_FLAGS_DEADTHREAD
0x77cbc500 4883ec48         SUB RSP, 0x48
0x77cbc504 4c8bc9           MOV R9, RCX
0x77cbc507 488b0552da1000   MOV RAX, [RIP+0x10da52]
0x77cbc50e 4885c0           TEST RAX, RAX
0x77cbc511 0f84e3840300     JZ 0x77cf49fa
0x77cbc517 4c               DB 0x4c
------
ETHREAD: 0xfffffa8000d82460 Pid: 4 Tid: 148
Tags: 
Created: 2019-12-11 13:41:22 UTC+0000
Exited: 1970-01-01 00:00:00 UTC+0000
Owning Process: System
Attached Process: System
State: Waiting:DelayExecution
BasePriority: 0x8
Priority: 0x8
TEB: 0x00000000
StartAddress: 0xfffff80002930ea0 ntoskrnl.exe
Win32Thread: 0x00000000
CrossThreadFlags: PS_CROSS_THREAD_FLAGS_DEADTHREAD
0xfffff80002930ea0 48895c2408       MOV [RSP+0x8], RBX
0xfffff80002930ea5 4889742418       MOV [RSP+0x18], RSI
0xfffff80002930eaa 57               PUSH RDI
0xfffff80002930eab 4883ec20         SUB RSP, 0x20
0xfffff80002930eaf e8ec291200       CALL 0xfffff80002a538a0
0xfffff80002930eb4 33f6             XOR ESI, ESI
0xfffff80002930eb6 65               DB 0x65
0xfffff80002930eb7 48               DB 0x48
------
ETHREAD: 0xfffffa8000e6eb60 Pid: 2808 Tid: 1268
Tags: 
Created: 2019-12-11 14:37:06 UTC+0000
Exited: 1970-01-01 00:00:00 UTC+0000
Owning Process: winlogon.exe
Attached Process: winlogon.exe
State: Waiting:WrQueue
BasePriority: 0xd
Priority: 0xd
TEB: 0x7fffffd4000
StartAddress: 0x77cbc500 ntdll.dll
Win32Thread: 0x00000000
CrossThreadFlags: PS_CROSS_THREAD_FLAGS_DEADTHREAD
0x77cbc500 4883ec48         SUB RSP, 0x48
0x77cbc504 4c8bc9           MOV R9, RCX
0x77cbc507 488b0552da1000   MOV RAX, [RIP+0x10da52]
0x77cbc50e 4885c0           TEST RAX, RAX
0x77cbc511 0f84e3840300     JZ 0x77cf49fa
0x77cbc517 4c               DB 0x4c
------
ETHREAD: 0xfffffa80020b33f0 Pid: 4 Tid: 1908
Tags: 
Created: 2019-12-11 13:42:05 UTC+0000
Exited: 1970-01-01 00:00:00 UTC+0000
Owning Process: System
Attached Process: System
State: Waiting:WrQueue
BasePriority: 0x8
Priority: 0x8
TEB: 0x00000000
StartAddress: 0xfffff880011b2a14 rdbss.sys
Win32Thread: 0x00000000
CrossThreadFlags: PS_CROSS_THREAD_FLAGS_DEADTHREAD
0xfffff880011b2a14 0fb64103         MOVZX EAX, BYTE [RCX+0x3]
0xfffff880011b2a18 488d15c1ceffff   LEA RDX, [RIP-0x313f]
0xfffff880011b2a1f 488d14c2         LEA RDX, [RDX+RAX*8]
0xfffff880011b2a23 e9e815feff       JMP 0xfffff88001194010
0xfffff880011b2a28 90               NOP
0xfffff880011b2a29 90               NOP
0xfffff880011b2a2a 90               NOP
0xfffff880011b2a2b 90               NOP
------
ETHREAD: 0xfffffa8002241060 Pid: 852 Tid: 2456
Tags: 
Created: 2019-12-11 14:32:52 UTC+0000
Exited: 1970-01-01 00:00:00 UTC+0000
Owning Process: svchost.exe
Attached Process: svchost.exe
State: Waiting:UserRequest
BasePriority: 0x8
Priority: 0x9
TEB: 0x7fffff8e000
StartAddress: 0x77cbc500 ntdll.dll
Win32Thread: 0x00000000
CrossThreadFlags: PS_CROSS_THREAD_FLAGS_DEADTHREAD
0x77cbc500 4883ec48         SUB RSP, 0x48
0x77cbc504 4c8bc9           MOV R9, RCX
0x77cbc507 488b0552da1000   MOV RAX, [RIP+0x10da52]
0x77cbc50e 4885c0           TEST RAX, RAX
0x77cbc511 0f84e3840300     JZ 0x77cf49fa
0x77cbc517 4c               DB 0x4c
------
ETHREAD: 0xfffffa8001e475e0 Pid: 1856 Tid: 2152
Tags: 
Created: 2019-12-11 14:36:13 UTC+0000
Exited: 2019-12-11 14:36:22 UTC+0000
Owning Process: wmpnetwk.exe
Attached Process: wmpnetwk.exe
State: Terminated
BasePriority: 0x8
Priority: 0x9
TEB: 0x00000000
StartAddress: 0x77cbc500 ntdll.dll
Win32Thread: 0x00000000
CrossThreadFlags: PS_CROSS_THREAD_FLAGS_DEADTHREAD, PS_CROSS_THREAD_FLAGS_TERMINATED
0x77cbc500 4883ec48         SUB RSP, 0x48
0x77cbc504 4c8bc9           MOV R9, RCX
0x77cbc507 488b0552da1000   MOV RAX, [RIP+0x10da52]
0x77cbc50e 4885c0           TEST RAX, RAX
0x77cbc511 0f84e3840300     JZ 0x77cf49fa
0x77cbc517 4c               DB 0x4c
------
ETHREAD: 0xfffffa8001fa2060 Pid: 876 Tid: 1900
Tags: 
Created: 2019-12-11 13:42:03 UTC+0000
Exited: 1970-01-01 00:00:00 UTC+0000
Owning Process: svchost.exe
Attached Process: svchost.exe
State: Waiting:UserRequest
BasePriority: 0x9
Priority: 0xb
TEB: 0x7fffff66000
StartAddress: 0x77cbc500 ntdll.dll
Win32Thread: 0x00000000
CrossThreadFlags: PS_CROSS_THREAD_FLAGS_DEADTHREAD
0x77cbc500 4883ec48         SUB RSP, 0x48
0x77cbc504 4c8bc9           MOV R9, RCX
0x77cbc507 488b0552da1000   MOV RAX, [RIP+0x10da52]
0x77cbc50e 4885c0           TEST RAX, RAX
0x77cbc511 0f84e3840300     JZ 0x77cf49fa
0x77cbc517 4c               DB 0x4c
------
ETHREAD: 0xfffffa8001028620 Pid: 2868 Tid: 1136
Tags: 
Created: 2019-12-11 14:37:23 UTC+0000
Exited: 1970-01-01 00:00:00 UTC+0000
Owning Process: SearchProtocol
Attached Process: SearchProtocol
State: Waiting:WrQueue
BasePriority: 0x4
Priority: 0x5
TEB: 0x7fffffd3000
StartAddress: 0x77cbc500 ntdll.dll
Win32Thread: 0xfffff900c1aeb850
CrossThreadFlags: PS_CROSS_THREAD_FLAGS_DEADTHREAD
0x77cbc500 4883ec48         SUB RSP, 0x48
0x77cbc504 4c8bc9           MOV R9, RCX
0x77cbc507 488b0552da1000   MOV RAX, [RIP+0x10da52]
0x77cbc50e 4885c0           TEST RAX, RAX
0x77cbc511 0f84e3840300     JZ 0x77cf49fa
0x77cbc517 4c               DB 0x4c
------
ETHREAD: 0xfffffa8000f39660 Pid: 484 Tid: 956
Tags: 
Created: 2019-12-11 14:37:13 UTC+0000
Exited: 1970-01-01 00:00:00 UTC+0000
Owning Process: services.exe
Attached Process: services.exe
State: Waiting:WrQueue
BasePriority: 0x9
Priority: 0x9
TEB: 0x7fffffa4000
StartAddress: 0x77cbc500 ntdll.dll
Win32Thread: 0x00000000
CrossThreadFlags: PS_CROSS_THREAD_FLAGS_DEADTHREAD
0x77cbc500 4883ec48         SUB RSP, 0x48
0x77cbc504 4c8bc9           MOV R9, RCX
0x77cbc507 488b0552da1000   MOV RAX, [RIP+0x10da52]
0x77cbc50e 4885c0           TEST RAX, RAX
0x77cbc511 0f84e3840300     JZ 0x77cf49fa
0x77cbc517 4c               DB 0x4c
------
ETHREAD: 0xfffffa8001e6d760 Pid: 1044 Tid: 1092
Tags: 
Created: 2019-12-11 13:41:48 UTC+0000
Exited: 1970-01-01 00:00:00 UTC+0000
Owning Process: svchost.exe
Attached Process: svchost.exe
State: Waiting:UserRequest
BasePriority: 0x8
Priority: 0x9
TEB: 0x7fffffae000
StartAddress: 0x77cbc500 ntdll.dll
Win32Thread: 0x00000000
CrossThreadFlags: PS_CROSS_THREAD_FLAGS_DEADTHREAD
0x77cbc500 4883ec48         SUB RSP, 0x48
0x77cbc504 4c8bc9           MOV R9, RCX
0x77cbc507 488b0552da1000   MOV RAX, [RIP+0x10da52]
0x77cbc50e 4885c0           TEST RAX, RAX
0x77cbc511 0f84e3840300     JZ 0x77cf49fa
0x77cbc517 4c               DB 0x4c
------
ETHREAD: 0xfffffa8000cba040 Pid: 4 Tid: 60
Tags: 
Created: 2019-12-11 13:41:22 UTC+0000
Exited: 1970-01-01 00:00:00 UTC+0000
Owning Process: System
Attached Process: System
State: Waiting:WrQueue
BasePriority: 0xc
Priority: 0xc
TEB: 0x00000000
StartAddress: 0xfffff800026a9910 ntoskrnl.exe
Win32Thread: 0x00000000
CrossThreadFlags: PS_CROSS_THREAD_FLAGS_DEADTHREAD
0xfffff800026a9910 4c8bdc           MOV R11, RSP
0xfffff800026a9913 49895b10         MOV [R11+0x10], RBX
0xfffff800026a9917 49896b18         MOV [R11+0x18], RBP
0xfffff800026a991b 49897320         MOV [R11+0x20], RSI
0xfffff800026a991f 57               PUSH RDI
0xfffff800026a9920 4154             PUSH R12
0xfffff800026a9922 4155             PUSH R13
0xfffff800026a9924 4156             PUSH R14
0xfffff800026a9926 4157             PUSH R15
------
ETHREAD: 0xfffffa8001c87060 Pid: 948 Tid: 1148
Tags: 
Created: 2019-12-11 14:16:19 UTC+0000
Exited: 2019-12-11 14:16:19 UTC+0000
Owning Process: svchost.exe
Attached Process: svchost.exe
State: Terminated
BasePriority: 0x8
Priority: 0x8
TEB: 0x00000000
StartAddress: 0x77cbc500 ntdll.dll
Win32Thread: 0x00000000
CrossThreadFlags: PS_CROSS_THREAD_FLAGS_DEADTHREAD, PS_CROSS_THREAD_FLAGS_TERMINATED
0x77cbc500 4883ec48         SUB RSP, 0x48
0x77cbc504 4c8bc9           MOV R9, RCX
0x77cbc507 488b0552da1000   MOV RAX, [RIP+0x10da52]
0x77cbc50e 4885c0           TEST RAX, RAX
0x77cbc511 0f84e3840300     JZ 0x77cf49fa
0x77cbc517 4c               DB 0x4c
------
ETHREAD: 0xfffffa8001cf4410 Pid: 2760 Tid: 2488
Tags: 
Created: 2019-12-11 14:37:05 UTC+0000
Exited: 1970-01-01 00:00:00 UTC+0000
Owning Process: csrss.exe
Attached Process: csrss.exe
State: Waiting:WrUserRequest
BasePriority: 0xd
Priority: 0xf
TEB: 0x7fffffac000
StartAddress: 0x77cbc500 ntdll.dll
Win32Thread: 0xfffff900c0137010
CrossThreadFlags: PS_CROSS_THREAD_FLAGS_DEADTHREAD
0x77cbc500 4883ec48         SUB RSP, 0x48
0x77cbc504 4c8bc9           MOV R9, RCX
0x77cbc507 488b0552da1000   MOV RAX, [RIP+0x10da52]
0x77cbc50e 4885c0           TEST RAX, RAX
0x77cbc511 0f84e3840300     JZ 0x77cf49fa
0x77cbc517 4c               DB 0x4c
------
ETHREAD: 0xfffffa8000fb69a0 Pid: 2304 Tid: 3044
Tags: 
Created: 2019-12-11 14:37:14 UTC+0000
Exited: 1970-01-01 00:00:00 UTC+0000
Owning Process: VBoxTray.exe
Attached Process: VBoxTray.exe
State: Waiting:Executive
BasePriority: 0x8
Priority: 0x9
TEB: 0x7fffffa0000
StartAddress: 0x77cbc500 ntdll.dll
Win32Thread: 0x00000000
CrossThreadFlags: PS_CROSS_THREAD_FLAGS_DEADTHREAD
0x77cbc500 4883ec48         SUB RSP, 0x48
0x77cbc504 4c8bc9           MOV R9, RCX
0x77cbc507 488b0552da1000   MOV RAX, [RIP+0x10da52]
0x77cbc50e 4885c0           TEST RAX, RAX
0x77cbc511 0f84e3840300     JZ 0x77cf49fa
0x77cbc517 4c               DB 0x4c
------
ETHREAD: 0x3fabb5d0 Pid: 2304 Tid: 260
Tags: ScannerOnly
Created: 2019-12-11 14:37:36 UTC+0000
Exited: 1970-01-01 00:00:00 UTC+0000
Owning Process: VBoxTray.exe
Attached Process: VBoxTray.exe
State: Waiting:WrQueue
BasePriority: 0x8
Priority: 0x8
TEB: 0x7fffff9e000
StartAddress: 0x77cbc500 ntdll.dll
Win32Thread: 0x00000000
CrossThreadFlags: PS_CROSS_THREAD_FLAGS_DEADTHREAD
0x77cbc500 4883ec48         SUB RSP, 0x48
0x77cbc504 4c8bc9           MOV R9, RCX
0x77cbc507 488b0552da1000   MOV RAX, [RIP+0x10da52]
0x77cbc50e 4885c0           TEST RAX, RAX
0x77cbc511 0f84e3840300     JZ 0x77cf49fa
0x77cbc517 4c               DB 0x4c
------
ETHREAD: 0xfffffa8001007b60 Pid: 1720 Tid: 268
Tags: 
Created: 2019-12-11 14:37:21 UTC+0000
Exited: 1970-01-01 00:00:00 UTC+0000
Owning Process: SearchFilterHo
Attached Process: SearchFilterHo
State: Waiting:WrQueue
BasePriority: 0x4
Priority: 0x4
TEB: 0x7fffffd9000
StartAddress: 0xfffff8a00223b4b0 UNKNOWN
Win32Thread: 0xfffff900c1aacc30
CrossThreadFlags: PS_CROSS_THREAD_FLAGS_DEADTHREAD
0xfffff8a00223b4b0 e07e             LOOPNZ 0xfffff8a00223b530
0xfffff8a00223b4b2 0001             ADD [RCX], AL
0xfffff8a00223b4b4 80faff           CMP DL, 0xff
0xfffff8a00223b4b7 fff0             PUSH RAX
0xfffff8a00223b4b9 2d4502a0f8       SUB EAX, 0xf8a00245
0xfffff8a00223b4be ff               DB 0xff
0xfffff8a00223b4bf ffc0             INC EAX
0xfffff8a00223b4c1 b423             MOV AH, 0x23
0xfffff8a00223b4c3 02               DB 0x2
0xfffff8a00223b4c4 a0               DB 0xa0
0xfffff8a00223b4c5 f8               CLC
0xfffff8a00223b4c6 ff               DB 0xff
0xfffff8a00223b4c7 ff               DB 0xff
------
ETHREAD: 0xfffffa8000eaa060 Pid: 2424 Tid: 2172
Tags: 
Created: 2019-12-11 14:35:14 UTC+0000
Exited: 1970-01-01 00:00:00 UTC+0000
Owning Process: mspaint.exe
Attached Process: mspaint.exe
State: Waiting:UserRequest
BasePriority: 0x8
Priority: 0xa
TEB: 0x7fffffd9000
StartAddress: 0x77cbc500 ntdll.dll
Win32Thread: 0x00000000
CrossThreadFlags: PS_CROSS_THREAD_FLAGS_DEADTHREAD
0x77cbc500 4883ec48         SUB RSP, 0x48
0x77cbc504 4c8bc9           MOV R9, RCX
0x77cbc507 488b0552da1000   MOV RAX, [RIP+0x10da52]
0x77cbc50e 4885c0           TEST RAX, RAX
0x77cbc511 0f84e3840300     JZ 0x77cf49fa
0x77cbc517 4c               DB 0x4c
------
ETHREAD: 0x3fac7470 Pid: 2868 Tid: 2612
Tags: ScannerOnly
Created: 2019-12-11 14:37:24 UTC+0000
Exited: 1970-01-01 00:00:00 UTC+0000
Owning Process: SearchProtocol
Attached Process: SearchProtocol
State: Waiting:WrQueue
BasePriority: 0x4
Priority: 0x4
TEB: 0x7fffffac000
StartAddress: 0x77cbc500 ntdll.dll
Win32Thread: 0xfffff900c1aec850
CrossThreadFlags: PS_CROSS_THREAD_FLAGS_DEADTHREAD
0x77cbc500 4883ec48         SUB RSP, 0x48
0x77cbc504 4c8bc9           MOV R9, RCX
0x77cbc507 488b0552da1000   MOV RAX, [RIP+0x10da52]
0x77cbc50e 4885c0           TEST RAX, RAX
0x77cbc511 0f84e3840300     JZ 0x77cf49fa
0x77cbc517 4c               DB 0x4c
------
ETHREAD: 0xfffffa8001d78b60 Pid: 1844 Tid: 2784
Tags: 
Created: 2019-12-11 14:37:05 UTC+0000
Exited: 1970-01-01 00:00:00 UTC+0000
Owning Process: VBoxTray.exe
Attached Process: VBoxTray.exe
State: Waiting:WrQueue
BasePriority: 0x8
Priority: 0x8
TEB: 0x7fffffd8000
StartAddress: 0x77cbc500 ntdll.dll
Win32Thread: 0xfffff900c1df73b0
CrossThreadFlags: PS_CROSS_THREAD_FLAGS_DEADTHREAD
0x77cbc500 4883ec48         SUB RSP, 0x48
0x77cbc504 4c8bc9           MOV R9, RCX
0x77cbc507 488b0552da1000   MOV RAX, [RIP+0x10da52]
0x77cbc50e 4885c0           TEST RAX, RAX
0x77cbc511 0f84e3840300     JZ 0x77cf49fa
0x77cbc517 4c               DB 0x4c
------
ETHREAD: 0xfffffa8001e9bae0 Pid: 604 Tid: 2216
Tags: 
Created: 2019-12-11 14:32:41 UTC+0000
Exited: 1970-01-01 00:00:00 UTC+0000
Owning Process: explorer.exe
Attached Process: explorer.exe
State: Waiting:UserRequest
BasePriority: 0x8
Priority: 0xc
TEB: 0x7fffff9c000
StartAddress: 0xfffff8a00201f7a0 UNKNOWN
Win32Thread: 0xfffff900c1e54c30
CrossThreadFlags: PS_CROSS_THREAD_FLAGS_DEADTHREAD
0xfffff8a00201f7a0 60               DB 0x60
0xfffff8a00201f7a1 bee90180fa       MOV ESI, 0xfa8001e9
0xfffff8a00201f7a6 ff               DB 0xff
0xfffff8a00201f7a7 ff409e           INC DWORD [RAX-0x62]
0xfffff8a00201f7aa 7101             JNO 0xfffff8a00201f7ad
0xfffff8a00201f7ac a0f8ffffc0c90302a0 MOV AL, [0xa00203c9c0fffff8]
0xfffff8a00201f7b5 f8               CLC
0xfffff8a00201f7b6 ff               DB 0xff
0xfffff8a00201f7b7 ff               DB 0xff
------
ETHREAD: 0xfffffa8000d08420 Pid: 4 Tid: 132
Tags: 
Created: 2019-12-11 13:41:22 UTC+0000
Exited: 1970-01-01 00:00:00 UTC+0000
Owning Process: System
Attached Process: System
State: Waiting:Executive
BasePriority: 0xf
Priority: 0xf
TEB: 0x00000000
StartAddress: 0xfffff800029bb064 ntoskrnl.exe
Win32Thread: 0x00000000
CrossThreadFlags: PS_CROSS_THREAD_FLAGS_DEADTHREAD
0xfffff800029bb064 48895c2410       MOV [RSP+0x10], RBX
0xfffff800029bb069 48896c2418       MOV [RSP+0x18], RBP
0xfffff800029bb06e 4889742420       MOV [RSP+0x20], RSI
0xfffff800029bb073 57               PUSH RDI
0xfffff800029bb074 4154             PUSH R12
0xfffff800029bb076 4155             PUSH R13
0xfffff800029bb078 4156             PUSH R14
0xfffff800029bb07a 4157             PUSH R15
------
ETHREAD: 0xfffffa8001dedb60 Pid: 376 Tid: 1016
Tags: 
Created: 2019-12-11 13:41:45 UTC+0000
Exited: 1970-01-01 00:00:00 UTC+0000
Owning Process: psxss.exe
Attached Process: psxss.exe
State: Waiting:WrLpcReceive
BasePriority: 0xd
Priority: 0xd
TEB: 0x7fffff9e000
StartAddress: 0x77cbc500 ntdll.dll
Win32Thread: 0x00000000
CrossThreadFlags: PS_CROSS_THREAD_FLAGS_DEADTHREAD
0x77cbc500 4883ec48         SUB RSP, 0x48
0x77cbc504 4c8bc9           MOV R9, RCX
0x77cbc507 488b0552da1000   MOV RAX, [RIP+0x10da52]
0x77cbc50e 4885c0           TEST RAX, RAX
0x77cbc511 0f84e3840300     JZ 0x77cf49fa
0x77cbc517 4c               DB 0x4c
------
ETHREAD: 0xfffffa8000ecd060 Pid: 1248 Tid: 1932
Tags: 
Created: 2019-12-11 14:37:24 UTC+0000
Exited: 1970-01-01 00:00:00 UTC+0000
Owning Process: svchost.exe
Attached Process: svchost.exe
State: Waiting:WrQueue
BasePriority: 0x8
Priority: 0x8
TEB: 0x7fffffd8000
StartAddress: 0x77cbc500 ntdll.dll
Win32Thread: 0x00000000
CrossThreadFlags: PS_CROSS_THREAD_FLAGS_DEADTHREAD
0x77cbc500 4883ec48         SUB RSP, 0x48
0x77cbc504 4c8bc9           MOV R9, RCX
0x77cbc507 488b0552da1000   MOV RAX, [RIP+0x10da52]
0x77cbc50e 4885c0           TEST RAX, RAX
0x77cbc511 0f84e3840300     JZ 0x77cf49fa
0x77cbc517 4c               DB 0x4c
------
ETHREAD: 0x3fb337d0 Pid: 2868 Tid: 2720
Tags: ScannerOnly
Created: 2019-12-11 14:37:23 UTC+0000
Exited: 1970-01-01 00:00:00 UTC+0000
Owning Process: SearchProtocol
Attached Process: SearchProtocol
State: Waiting:DelayExecution
BasePriority: 0x4
Priority: 0x4
TEB: 0x7fffffae000
StartAddress: 0x77cbc500 ntdll.dll
Win32Thread: 0xfffff900c1aeb470
CrossThreadFlags: PS_CROSS_THREAD_FLAGS_DEADTHREAD
0x77cbc500 4883ec48         SUB RSP, 0x48
0x77cbc504 4c8bc9           MOV R9, RCX
0x77cbc507 488b0552da1000   MOV RAX, [RIP+0x10da52]
0x77cbc50e 4885c0           TEST RAX, RAX
0x77cbc511 0f84e3840300     JZ 0x77cf49fa
0x77cbc517 4c               DB 0x4c
------
ETHREAD: 0xfffffa8001f03b60 Pid: 1248 Tid: 1284
Tags: 
Created: 2019-12-11 13:41:53 UTC+0000
Exited: 1970-01-01 00:00:00 UTC+0000
Owning Process: svchost.exe
Attached Process: svchost.exe
State: Waiting:UserRequest
BasePriority: 0x8
Priority: 0x8
TEB: 0x7fffffae000
StartAddress: 0x77cbc500 ntdll.dll
Win32Thread: 0x00000000
CrossThreadFlags: PS_CROSS_THREAD_FLAGS_DEADTHREAD
0x77cbc500 4883ec48         SUB RSP, 0x48
0x77cbc504 4c8bc9           MOV R9, RCX
0x77cbc507 488b0552da1000   MOV RAX, [RIP+0x10da52]
0x77cbc50e 4885c0           TEST RAX, RAX
0x77cbc511 0f84e3840300     JZ 0x77cf49fa
0x77cbc517 4c               DB 0x4c
------
ETHREAD: 0x3faa3840 Pid: 2868 Tid: 1156
Tags: ScannerOnly
Created: 2019-12-11 14:37:23 UTC+0000
Exited: 1970-01-01 00:00:00 UTC+0000
Owning Process: SearchProtocol
Attached Process: SearchProtocol
State: Waiting:UserRequest
BasePriority: 0x4
Priority: 0x4
TEB: 0x7fffffde000
StartAddress: 0x77cbc500 ntdll.dll
Win32Thread: 0xfffff900c1ae7010
CrossThreadFlags: PS_CROSS_THREAD_FLAGS_DEADTHREAD
0x77cbc500 4883ec48         SUB RSP, 0x48
0x77cbc504 4c8bc9           MOV R9, RCX
0x77cbc507 488b0552da1000   MOV RAX, [RIP+0x10da52]
0x77cbc50e 4885c0           TEST RAX, RAX
0x77cbc511 0f84e3840300     JZ 0x77cf49fa
0x77cbc517 4c               DB 0x4c
------
ETHREAD: 0xfffffa8000e82850 Pid: 2504 Tid: 732
Tags: 
Created: 2019-12-11 14:37:21 UTC+0000
Exited: 1970-01-01 00:00:00 UTC+0000
Owning Process: explorer.exe
Attached Process: explorer.exe
State: Waiting:UserRequest
BasePriority: 0x8
Priority: 0x8
TEB: 0x7fffff7e000
StartAddress: 0x77cbc500 ntdll.dll
Win32Thread: 0xfffff900c22edc30
CrossThreadFlags: PS_CROSS_THREAD_FLAGS_DEADTHREAD
0x77cbc500 4883ec48         SUB RSP, 0x48
0x77cbc504 4c8bc9           MOV R9, RCX
0x77cbc507 488b0552da1000   MOV RAX, [RIP+0x10da52]
0x77cbc50e 4885c0           TEST RAX, RAX
0x77cbc511 0f84e3840300     JZ 0x77cf49fa
0x77cbc517 4c               DB 0x4c
------
ETHREAD: 0xfffffa8002051060 Pid: 1248 Tid: 1892
Tags: 
Created: 2019-12-11 14:24:03 UTC+0000
Exited: 1970-01-01 00:00:00 UTC+0000
Owning Process: svchost.exe
Attached Process: svchost.exe
State: Waiting:UserRequest
BasePriority: 0x8
Priority: 0x8
TEB: 0x7fffff94000
StartAddress: 0x77cbc500 ntdll.dll
Win32Thread: 0x00000000
CrossThreadFlags: PS_CROSS_THREAD_FLAGS_DEADTHREAD
0x77cbc500 4883ec48         SUB RSP, 0x48
0x77cbc504 4c8bc9           MOV R9, RCX
0x77cbc507 488b0552da1000   MOV RAX, [RIP+0x10da52]
0x77cbc50e 4885c0           TEST RAX, RAX
0x77cbc511 0f84e3840300     JZ 0x77cf49fa
0x77cbc517 4c               DB 0x4c
------
ETHREAD: 0xfffffa80020bf5c0 Pid: 876 Tid: 1028
Tags: 
Created: 2019-12-11 14:15:28 UTC+0000
Exited: 1970-01-01 00:00:00 UTC+0000
Owning Process: svchost.exe
Attached Process: svchost.exe
State: Waiting:UserRequest
BasePriority: 0x8
Priority: 0x8
TEB: 0x7fffff82000
StartAddress: 0x77cbc500 ntdll.dll
Win32Thread: 0x00000000
CrossThreadFlags: PS_CROSS_THREAD_FLAGS_DEADTHREAD
0x77cbc500 4883ec48         SUB RSP, 0x48
0x77cbc504 4c8bc9           MOV R9, RCX
0x77cbc507 488b0552da1000   MOV RAX, [RIP+0x10da52]
0x77cbc50e 4885c0           TEST RAX, RAX
0x77cbc511 0f84e3840300     JZ 0x77cf49fa
0x77cbc517 4c               DB 0x4c
------
ETHREAD: 0xfffffa80021f0880 Pid: 1844 Tid: 2176
Tags: 
Created: 2019-12-11 14:32:37 UTC+0000
Exited: 1970-01-01 00:00:00 UTC+0000
Owning Process: VBoxTray.exe
Attached Process: VBoxTray.exe
State: Waiting:Executive
BasePriority: 0x8
Priority: 0x9
TEB: 0x7fffffa0000
StartAddress: 0x77cbc500 ntdll.dll
Win32Thread: 0x00000000
CrossThreadFlags: PS_CROSS_THREAD_FLAGS_DEADTHREAD
0x77cbc500 4883ec48         SUB RSP, 0x48
0x77cbc504 4c8bc9           MOV R9, RCX
0x77cbc507 488b0552da1000   MOV RAX, [RIP+0x10da52]
0x77cbc50e 4885c0           TEST RAX, RAX
0x77cbc511 0f84e3840300     JZ 0x77cf49fa
0x77cbc517 4c               DB 0x4c
------
ETHREAD: 0xfffffa8000d3e740 Pid: 1372 Tid: 1484
Tags: 
Created: 2019-12-11 14:17:15 UTC+0000
Exited: 1970-01-01 00:00:00 UTC+0000
Owning Process: svchost.exe
Attached Process: svchost.exe
State: Waiting:UserRequest
BasePriority: 0x8
Priority: 0x9
TEB: 0x7fffff8a000
StartAddress: 0x77cbc500 ntdll.dll
Win32Thread: 0x00000000
CrossThreadFlags: PS_CROSS_THREAD_FLAGS_DEADTHREAD
0x77cbc500 4883ec48         SUB RSP, 0x48
0x77cbc504 4c8bc9           MOV R9, RCX
0x77cbc507 488b0552da1000   MOV RAX, [RIP+0x10da52]
0x77cbc50e 4885c0           TEST RAX, RAX
0x77cbc511 0f84e3840300     JZ 0x77cf49fa
0x77cbc517 4c               DB 0x4c
------
ETHREAD: 0xfffffa8001ee1640 Pid: 296 Tid: 1500
Tags: 
Created: 2019-12-11 14:32:24 UTC+0000
Exited: 2019-12-11 14:32:25 UTC+0000
Owning Process: taskhost.exe
Attached Process: taskhost.exe
State: Terminated
BasePriority: 0x8
Priority: 0x9
TEB: 0x00000000
StartAddress: 0x77cbc500 ntdll.dll
Win32Thread: 0x00000000
CrossThreadFlags: PS_CROSS_THREAD_FLAGS_DEADTHREAD, PS_CROSS_THREAD_FLAGS_TERMINATED
0x77cbc500 4883ec48         SUB RSP, 0x48
0x77cbc504 4c8bc9           MOV R9, RCX
0x77cbc507 488b0552da1000   MOV RAX, [RIP+0x10da52]
0x77cbc50e 4885c0           TEST RAX, RAX
0x77cbc511 0f84e3840300     JZ 0x77cf49fa
0x77cbc517 4c               DB 0x4c
------
ETHREAD: 0xfffffa8001ec2680 Pid: 1208 Tid: 1212
Tags: 
Created: 2019-12-11 13:41:51 UTC+0000
Exited: 1970-01-01 00:00:00 UTC+0000
Owning Process: spoolsv.exe
Attached Process: spoolsv.exe
State: Waiting:UserRequest
BasePriority: 0x8
Priority: 0x9
TEB: 0x7fffffdc000
StartAddress: 0x77cbc500 ntdll.dll
Win32Thread: 0xfffff900c1ab5010
CrossThreadFlags: PS_CROSS_THREAD_FLAGS_DEADTHREAD
0x77cbc500 4883ec48         SUB RSP, 0x48
0x77cbc504 4c8bc9           MOV R9, RCX
0x77cbc507 488b0552da1000   MOV RAX, [RIP+0x10da52]
0x77cbc50e 4885c0           TEST RAX, RAX
0x77cbc511 0f84e3840300     JZ 0x77cf49fa
0x77cbc517 4c               DB 0x4c
------
ETHREAD: 0xfffffa8000efc5e0 Pid: 2504 Tid: 1552
Tags: 
Created: 2019-12-11 14:37:19 UTC+0000
Exited: 1970-01-01 00:00:00 UTC+0000
Owning Process: explorer.exe
Attached Process: explorer.exe
State: Waiting:UserRequest
BasePriority: 0x8
Priority: 0xa
TEB: 0x7fffff9c000
StartAddress: 0x77cbc500 ntdll.dll
Win32Thread: 0xfffff900c22dbc30
CrossThreadFlags: PS_CROSS_THREAD_FLAGS_DEADTHREAD
0x77cbc500 4883ec48         SUB RSP, 0x48
0x77cbc504 4c8bc9           MOV R9, RCX
0x77cbc507 488b0552da1000   MOV RAX, [RIP+0x10da52]
0x77cbc50e 4885c0           TEST RAX, RAX
0x77cbc511 0f84e3840300     JZ 0x77cf49fa
0x77cbc517 4c               DB 0x4c
------
ETHREAD: 0xfffffa8000e98b60 Pid: 604 Tid: 2408
Tags: 
Created: 2019-12-11 14:35:12 UTC+0000
Exited: 1970-01-01 00:00:00 UTC+0000
Owning Process: explorer.exe
Attached Process: explorer.exe
State: Waiting:UserRequest
BasePriority: 0x8
Priority: 0xb
TEB: 0x7fffff76000
StartAddress: 0x77cbc500 ntdll.dll
Win32Thread: 0x00000000
CrossThreadFlags: PS_CROSS_THREAD_FLAGS_DEADTHREAD
0x77cbc500 4883ec48         SUB RSP, 0x48
0x77cbc504 4c8bc9           MOV R9, RCX
0x77cbc507 488b0552da1000   MOV RAX, [RIP+0x10da52]
0x77cbc50e 4885c0           TEST RAX, RAX
0x77cbc511 0f84e3840300     JZ 0x77cf49fa
0x77cbc517 4c               DB 0x4c
------
ETHREAD: 0xfffffa80021de440 Pid: 816 Tid: 2776
Tags: 
Created: 2019-12-11 14:35:59 UTC+0000
Exited: 1970-01-01 00:00:00 UTC+0000
Owning Process: svchost.exe
Attached Process: svchost.exe
State: Waiting:WrQueue
BasePriority: 0x8
Priority: 0x8
TEB: 0x7fffffda000
StartAddress: 0x77cbc500 ntdll.dll
Win32Thread: 0x00000000
CrossThreadFlags: PS_CROSS_THREAD_FLAGS_DEADTHREAD
0x77cbc500 4883ec48         SUB RSP, 0x48
0x77cbc504 4c8bc9           MOV R9, RCX
0x77cbc507 488b0552da1000   MOV RAX, [RIP+0x10da52]
0x77cbc50e 4885c0           TEST RAX, RAX
0x77cbc511 0f84e3840300     JZ 0x77cf49fa
0x77cbc517 4c               DB 0x4c
------
ETHREAD: 0xfffffa8001fbab60 Pid: 876 Tid: 1448
Tags: 
Created: 2019-12-11 13:41:56 UTC+0000
Exited: 1970-01-01 00:00:00 UTC+0000
Owning Process: svchost.exe
Attached Process: svchost.exe
State: Waiting:UserRequest
BasePriority: 0xa
Priority: 0xa
TEB: 0x7fffff96000
StartAddress: 0x77cbc500 ntdll.dll
Win32Thread: 0x00000000
CrossThreadFlags: PS_CROSS_THREAD_FLAGS_DEADTHREAD
0x77cbc500 4883ec48         SUB RSP, 0x48
0x77cbc504 4c8bc9           MOV R9, RCX
0x77cbc507 488b0552da1000   MOV RAX, [RIP+0x10da52]
0x77cbc50e 4885c0           TEST RAX, RAX
0x77cbc511 0f84e3840300     JZ 0x77cf49fa
0x77cbc517 4c               DB 0x4c
------
ETHREAD: 0xfffffa8001c66780 Pid: 4 Tid: 448
Tags: HwBreakpoint
Created: 2019-12-11 13:41:34 UTC+0000
Exited: 1970-01-01 00:00:00 UTC+0000
Owning Process: System
Attached Process: System
State: Waiting:WrQueue
BasePriority: 0x8
Priority: 0x8
TEB: 0x00000000
StartAddress: 0xfffff88001153670 msrpc.sys
Win32Thread: 0x00000000
CrossThreadFlags: PS_CROSS_THREAD_FLAGS_DEADTHREAD
0xfffff88001153670 fff3             PUSH RBX
0xfffff88001153672 4883ec50         SUB RSP, 0x50
0xfffff88001153676 33db             XOR EBX, EBX
0xfffff88001153678 0f1f0400         NOP DWORD [RAX+RAX]
0xfffff8800115367c 488b0d9db90300   MOV RCX, [RIP+0x3b99d]
0xfffff88001153683 4c8d4c2468       LEA R9, [RSP+0x68]
------
ETHREAD: 0xfffffa8001da7b60 Pid: 852 Tid: 860
Tags: 
Created: 2019-12-11 13:41:43 UTC+0000
Exited: 1970-01-01 00:00:00 UTC+0000
Owning Process: svchost.exe
Attached Process: svchost.exe
State: Waiting:UserRequest
BasePriority: 0x8
Priority: 0x9
TEB: 0x7fffffda000
StartAddress: 0x77cbc500 ntdll.dll
Win32Thread: 0x00000000
CrossThreadFlags: PS_CROSS_THREAD_FLAGS_DEADTHREAD
0x77cbc500 4883ec48         SUB RSP, 0x48
0x77cbc504 4c8bc9           MOV R9, RCX
0x77cbc507 488b0552da1000   MOV RAX, [RIP+0x10da52]
0x77cbc50e 4885c0           TEST RAX, RAX
0x77cbc511 0f84e3840300     JZ 0x77cf49fa
0x77cbc517 4c               DB 0x4c
------
ETHREAD: 0xfffffa8002212060 Pid: 852 Tid: 2356
Tags: 
Created: 2019-12-11 14:32:50 UTC+0000
Exited: 1970-01-01 00:00:00 UTC+0000
Owning Process: svchost.exe
Attached Process: svchost.exe
State: Waiting:UserRequest
BasePriority: 0x8
Priority: 0x9
TEB: 0x7fffff90000
StartAddress: 0x77cbc500 ntdll.dll
Win32Thread: 0xfffff900c1ae6c30
CrossThreadFlags: PS_CROSS_THREAD_FLAGS_DEADTHREAD
0x77cbc500 4883ec48         SUB RSP, 0x48
0x77cbc504 4c8bc9           MOV R9, RCX
0x77cbc507 488b0552da1000   MOV RAX, [RIP+0x10da52]
0x77cbc50e 4885c0           TEST RAX, RAX
0x77cbc511 0f84e3840300     JZ 0x77cf49fa
0x77cbc517 4c               DB 0x4c
------
ETHREAD: 0xfffffa8001c97060 Pid: 4 Tid: 1940
Tags: 
Created: 2019-12-11 13:42:54 UTC+0000
Exited: 1970-01-01 00:00:00 UTC+0000
Owning Process: System
Attached Process: System
State: Waiting:Executive
BasePriority: 0xf
Priority: 0xf
TEB: 0x00000000
StartAddress: 0xfffff800029bb064 ntoskrnl.exe
Win32Thread: 0x00000000
CrossThreadFlags: PS_CROSS_THREAD_FLAGS_DEADTHREAD
0xfffff800029bb064 48895c2410       MOV [RSP+0x10], RBX
0xfffff800029bb069 48896c2418       MOV [RSP+0x18], RBP
0xfffff800029bb06e 4889742420       MOV [RSP+0x20], RSI
0xfffff800029bb073 57               PUSH RDI
0xfffff800029bb074 4154             PUSH R12
0xfffff800029bb076 4155             PUSH R13
0xfffff800029bb078 4156             PUSH R14
0xfffff800029bb07a 4157             PUSH R15
------
ETHREAD: 0xfffffa8002207450 Pid: 816 Tid: 2300
Tags: 
Created: 2019-12-11 14:32:50 UTC+0000
Exited: 1970-01-01 00:00:00 UTC+0000
Owning Process: svchost.exe
Attached Process: svchost.exe
State: Waiting:UserRequest
BasePriority: 0x8
Priority: 0x9
TEB: 0x7fffff8c000
StartAddress: 0x77cbc500 ntdll.dll
Win32Thread: 0x00000000
CrossThreadFlags: PS_CROSS_THREAD_FLAGS_DEADTHREAD
0x77cbc500 4883ec48         SUB RSP, 0x48
0x77cbc504 4c8bc9           MOV R9, RCX
0x77cbc507 488b0552da1000   MOV RAX, [RIP+0x10da52]
0x77cbc50e 4885c0           TEST RAX, RAX
0x77cbc511 0f84e3840300     JZ 0x77cf49fa
0x77cbc517 4c               DB 0x4c
------
ETHREAD: 0x3fafe320 Pid: 604 Tid: 2212
Tags: ScannerOnly
Created: 2019-12-11 14:37:42 UTC+0000
Exited: 1970-01-01 00:00:00 UTC+0000
Owning Process: explorer.exe
Attached Process: explorer.exe
State: Waiting:UserRequest
BasePriority: 0x8
Priority: 0xa
TEB: 0x7fffffa4000
StartAddress: 0x77cbc500 ntdll.dll
Win32Thread: 0xfffff900c1e01c30
CrossThreadFlags: PS_CROSS_THREAD_FLAGS_DEADTHREAD
0x77cbc500 4883ec48         SUB RSP, 0x48
0x77cbc504 4c8bc9           MOV R9, RCX
0x77cbc507 488b0552da1000   MOV RAX, [RIP+0x10da52]
0x77cbc50e 4885c0           TEST RAX, RAX
0x77cbc511 0f84e3840300     JZ 0x77cf49fa
0x77cbc517 4c               DB 0x4c
------
ETHREAD: 0xfffffa80022ba060 Pid: 1208 Tid: 2904
Tags: 
Created: 2019-12-11 14:35:14 UTC+0000
Exited: 1970-01-01 00:00:00 UTC+0000
Owning Process: spoolsv.exe
Attached Process: spoolsv.exe
State: Waiting:WrQueue
BasePriority: 0x8
Priority: 0x8
TEB: 0x7fffffda000
StartAddress: 0x77cbc500 ntdll.dll
Win32Thread: 0x00000000
CrossThreadFlags: PS_CROSS_THREAD_FLAGS_DEADTHREAD
0x77cbc500 4883ec48         SUB RSP, 0x48
0x77cbc504 4c8bc9           MOV R9, RCX
0x77cbc507 488b0552da1000   MOV RAX, [RIP+0x10da52]
0x77cbc50e 4885c0           TEST RAX, RAX
0x77cbc511 0f84e3840300     JZ 0x77cf49fa
0x77cbc517 4c               DB 0x4c
------
ETHREAD: 0x3fa95630 Pid: 1512 Tid: 584
Tags: ScannerOnly
Created: 2019-12-11 14:37:23 UTC+0000
Exited: 1970-01-01 00:00:00 UTC+0000
Owning Process: WinRAR.exe
Attached Process: WinRAR.exe
State: Waiting:WrUserRequest
BasePriority: 0x8
Priority: 0xa
TEB: 0x7fffffdd000
StartAddress: 0xfffff8a002275430 UNKNOWN
Win32Thread: 0xfffff900c21cfae0
CrossThreadFlags: PS_CROSS_THREAD_FLAGS_DEADTHREAD
0xfffff8a002275430 b009             MOV AL, 0x9
0xfffff8a002275432 0101             ADD [RCX], EAX
0xfffff8a002275434 80faff           CMP DL, 0xff
0xfffff8a002275437 ffb009010180     PUSH QWORD [RAX-0x7ffefef7]
0xfffff8a00227543d fa               CLI
0xfffff8a00227543e ff               DB 0xff
0xfffff8a00227543f ff4054           INC DWORD [RAX+0x54]
0xfffff8a002275442 27               DB 0x27
0xfffff8a002275443 02               DB 0x2
0xfffff8a002275444 a0               DB 0xa0
0xfffff8a002275445 f8               CLC
0xfffff8a002275446 ff               DB 0xff
0xfffff8a002275447 ff               DB 0xff
------
ETHREAD: 0x3fa8cb60 Pid: 1720 Tid: 268
Tags: ScannerOnly
Created: 2019-12-11 14:37:21 UTC+0000
Exited: 1970-01-01 00:00:00 UTC+0000
Owning Process: SearchFilterHo
Attached Process: SearchFilterHo
State: Waiting:WrQueue
BasePriority: 0x4
Priority: 0x4
TEB: 0x7fffffd9000
StartAddress: 0xfffff8a00223b4b0 UNKNOWN
Win32Thread: 0xfffff900c1aacc30
CrossThreadFlags: PS_CROSS_THREAD_FLAGS_DEADTHREAD
0xfffff8a00223b4b0 e07e             LOOPNZ 0xfffff8a00223b530
0xfffff8a00223b4b2 0001             ADD [RCX], AL
0xfffff8a00223b4b4 80faff           CMP DL, 0xff
0xfffff8a00223b4b7 fff0             PUSH RAX
0xfffff8a00223b4b9 2d4502a0f8       SUB EAX, 0xf8a00245
0xfffff8a00223b4be ff               DB 0xff
0xfffff8a00223b4bf ffc0             INC EAX
0xfffff8a00223b4c1 b423             MOV AH, 0x23
0xfffff8a00223b4c3 02               DB 0x2
0xfffff8a00223b4c4 a0               DB 0xa0
0xfffff8a00223b4c5 f8               CLC
0xfffff8a00223b4c6 ff               DB 0xff
0xfffff8a00223b4c7 ff               DB 0xff
------
ETHREAD: 0xfffffa80010297d0 Pid: 2868 Tid: 2720
Tags: 
Created: 2019-12-11 14:37:23 UTC+0000
Exited: 1970-01-01 00:00:00 UTC+0000
Owning Process: SearchProtocol
Attached Process: SearchProtocol
State: Waiting:DelayExecution
BasePriority: 0x4
Priority: 0x4
TEB: 0x7fffffae000
StartAddress: 0x77cbc500 ntdll.dll
Win32Thread: 0xfffff900c1aeb470
CrossThreadFlags: PS_CROSS_THREAD_FLAGS_DEADTHREAD
0x77cbc500 4883ec48         SUB RSP, 0x48
0x77cbc504 4c8bc9           MOV R9, RCX
0x77cbc507 488b0552da1000   MOV RAX, [RIP+0x10da52]
0x77cbc50e 4885c0           TEST RAX, RAX
0x77cbc511 0f84e3840300     JZ 0x77cf49fa
0x77cbc517 4c               DB 0x4c
------
ETHREAD: 0xfffffa8000f7c060 Pid: 2504 Tid: 1312
Tags: 
Created: 2019-12-11 14:37:14 UTC+0000
Exited: 1970-01-01 00:00:00 UTC+0000
Owning Process: explorer.exe
Attached Process: explorer.exe
State: Waiting:UserRequest
BasePriority: 0x8
Priority: 0xb
TEB: 0x7fffffd8000
StartAddress: 0x77cbc500 ntdll.dll
Win32Thread: 0xfffff900c222fc30
CrossThreadFlags: PS_CROSS_THREAD_FLAGS_DEADTHREAD
0x77cbc500 4883ec48         SUB RSP, 0x48
0x77cbc504 4c8bc9           MOV R9, RCX
0x77cbc507 488b0552da1000   MOV RAX, [RIP+0x10da52]
0x77cbc50e 4885c0           TEST RAX, RAX
0x77cbc511 0f84e3840300     JZ 0x77cf49fa
0x77cbc517 4c               DB 0x4c
------
ETHREAD: 0xfffffa8000efe460 Pid: 588 Tid: 2608
Tags: 
Created: 2019-12-11 14:37:19 UTC+0000
Exited: 1970-01-01 00:00:00 UTC+0000
Owning Process: svchost.exe
Attached Process: svchost.exe
State: Waiting:WrQueue
BasePriority: 0x8
Priority: 0x8
TEB: 0x7fffffda000
StartAddress: 0x77cbc500 ntdll.dll
Win32Thread: 0x00000000
CrossThreadFlags: PS_CROSS_THREAD_FLAGS_DEADTHREAD
0x77cbc500 4883ec48         SUB RSP, 0x48
0x77cbc504 4c8bc9           MOV R9, RCX
0x77cbc507 488b0552da1000   MOV RAX, [RIP+0x10da52]
0x77cbc50e 4885c0           TEST RAX, RAX
0x77cbc511 0f84e3840300     JZ 0x77cf49fa
0x77cbc517 4c               DB 0x4c
------
ETHREAD: 0xfffffa8001555a10 Pid: 248 Tid: 308
Tags: 
Created: 2019-12-11 13:41:31 UTC+0000
Exited: 1970-01-01 00:00:00 UTC+0000
Owning Process: smss.exe
Attached Process: smss.exe
State: Waiting:WrQueue
BasePriority: 0xb
Priority: 0xb
TEB: 0x7fffffda000
StartAddress: 0x77cbc500 ntdll.dll
Win32Thread: 0x00000000
CrossThreadFlags: PS_CROSS_THREAD_FLAGS_DEADTHREAD
0x77cbc500 4883ec48         SUB RSP, 0x48
0x77cbc504 4c8bc9           MOV R9, RCX
0x77cbc507 488b0552da1000   MOV RAX, [RIP+0x10da52]
0x77cbc50e 4885c0           TEST RAX, RAX
0x77cbc511 0f84e3840300     JZ 0x77cf49fa
0x77cbc517 4c               DB 0x4c
------
ETHREAD: 0xfffffa8002041420 Pid: 1372 Tid: 1596
Tags: 
Created: 2019-12-11 13:41:58 UTC+0000
Exited: 1970-01-01 00:00:00 UTC+0000
Owning Process: svchost.exe
Attached Process: svchost.exe
State: Waiting:WrQueue
BasePriority: 0x8
Priority: 0x8
TEB: 0x7fffffa6000
StartAddress: 0x77cbc500 ntdll.dll
Win32Thread: 0x00000000
CrossThreadFlags: PS_CROSS_THREAD_FLAGS_DEADTHREAD
0x77cbc500 4883ec48         SUB RSP, 0x48
0x77cbc504 4c8bc9           MOV R9, RCX
0x77cbc507 488b0552da1000   MOV RAX, [RIP+0x10da52]
0x77cbc50e 4885c0           TEST RAX, RAX
0x77cbc511 0f84e3840300     JZ 0x77cf49fa
0x77cbc517 4c               DB 0x4c
------
ETHREAD: 0x3fb00060 Pid: 2260 Tid: 1108
Tags: ScannerOnly
Created: 2019-12-11 14:37:54 UTC+0000
Exited: 1970-01-01 00:00:00 UTC+0000
Owning Process: conhost.exe
Attached Process: conhost.exe
State: Waiting:WrUserRequest
BasePriority: 0x8
Priority: 0xb
TEB: 0x7fffffde000
StartAddress: 0x77cbc500 ntdll.dll
Win32Thread: 0xfffff900c1c8c9a0
CrossThreadFlags: PS_CROSS_THREAD_FLAGS_DEADTHREAD
0x77cbc500 4883ec48         SUB RSP, 0x48
0x77cbc504 4c8bc9           MOV R9, RCX
0x77cbc507 488b0552da1000   MOV RAX, [RIP+0x10da52]
0x77cbc50e 4885c0           TEST RAX, RAX
0x77cbc511 0f84e3840300     JZ 0x77cf49fa
0x77cbc517 4c               DB 0x4c
------
ETHREAD: 0xfffffa8002234470 Pid: 2368 Tid: 2572
Tags: 
Created: 2019-12-11 14:36:58 UTC+0000
Exited: 2019-12-11 14:38:05 UTC+0000
Owning Process: svchost.exe
Attached Process: svchost.exe
State: Terminated
BasePriority: 0x8
Priority: 0x8
TEB: 0x00000000
StartAddress: 0x77cbc500 ntdll.dll
Win32Thread: 0x00000000
CrossThreadFlags: PS_CROSS_THREAD_FLAGS_DEADTHREAD, PS_CROSS_THREAD_FLAGS_TERMINATED
0x77cbc500 4883ec48         SUB RSP, 0x48
0x77cbc504 4c8bc9           MOV R9, RCX
0x77cbc507 488b0552da1000   MOV RAX, [RIP+0x10da52]
0x77cbc50e 4885c0           TEST RAX, RAX
0x77cbc511 0f84e3840300     JZ 0x77cf49fa
0x77cbc517 4c               DB 0x4c
------
ETHREAD: 0xfffffa8000fab190 Pid: 2304 Tid: 2844
Tags: 
Created: 2019-12-11 14:37:14 UTC+0000
Exited: 1970-01-01 00:00:00 UTC+0000
Owning Process: VBoxTray.exe
Attached Process: VBoxTray.exe
State: Waiting:WrQueue
BasePriority: 0x8
Priority: 0x8
TEB: 0x7fffffd8000
StartAddress: 0x77cbc500 ntdll.dll
Win32Thread: 0x00000000
CrossThreadFlags: PS_CROSS_THREAD_FLAGS_DEADTHREAD
0x77cbc500 4883ec48         SUB RSP, 0x48
0x77cbc504 4c8bc9           MOV R9, RCX
0x77cbc507 488b0552da1000   MOV RAX, [RIP+0x10da52]
0x77cbc50e 4885c0           TEST RAX, RAX
0x77cbc511 0f84e3840300     JZ 0x77cf49fa
0x77cbc517 4c               DB 0x4c
------
ETHREAD: 0xfffffa8000e775a0 Pid: 2504 Tid: 2940
Tags: 
Created: 2019-12-11 14:37:20 UTC+0000
Exited: 1970-01-01 00:00:00 UTC+0000
Owning Process: explorer.exe
Attached Process: explorer.exe
State: Waiting:WrUserRequest
BasePriority: 0xf
Priority: 0xf
TEB: 0x7fffff86000
StartAddress: 0x77cbc500 ntdll.dll
Win32Thread: 0xfffff900c22f9c30
CrossThreadFlags: PS_CROSS_THREAD_FLAGS_DEADTHREAD
0x77cbc500 4883ec48         SUB RSP, 0x48
0x77cbc504 4c8bc9           MOV R9, RCX
0x77cbc507 488b0552da1000   MOV RAX, [RIP+0x10da52]
0x77cbc50e 4885c0           TEST RAX, RAX
0x77cbc511 0f84e3840300     JZ 0x77cf49fa
0x77cbc517 4c               DB 0x4c
------
ETHREAD: 0xfffffa8001dc2060 Pid: 816 Tid: 1628
Tags: 
Created: 2019-12-11 13:41:59 UTC+0000
Exited: 1970-01-01 00:00:00 UTC+0000
Owning Process: svchost.exe
Attached Process: svchost.exe
State: Waiting:UserRequest
BasePriority: 0x8
Priority: 0x8
TEB: 0x7fffffa6000
StartAddress: 0x77cbc500 ntdll.dll
Win32Thread: 0x00000000
CrossThreadFlags: PS_CROSS_THREAD_FLAGS_DEADTHREAD
0x77cbc500 4883ec48         SUB RSP, 0x48
0x77cbc504 4c8bc9           MOV R9, RCX
0x77cbc507 488b0552da1000   MOV RAX, [RIP+0x10da52]
0x77cbc50e 4885c0           TEST RAX, RAX
0x77cbc511 0f84e3840300     JZ 0x77cf49fa
0x77cbc517 4c               DB 0x4c
------
ETHREAD: 0xfffffa8001f94b60 Pid: 1416 Tid: 1432
Tags: 
Created: 2019-12-11 13:41:55 UTC+0000
Exited: 1970-01-01 00:00:00 UTC+0000
Owning Process: TCPSVCS.EXE
Attached Process: TCPSVCS.EXE
State: Waiting:UserRequest
BasePriority: 0x8
Priority: 0xd
TEB: 0x7fffffd7000
StartAddress: 0xfffff8a00190fe40 UNKNOWN
Win32Thread: 0xfffff900c1abd520
CrossThreadFlags: PS_CROSS_THREAD_FLAGS_DEADTHREAD
0xfffff8a00190fe40 e04e             LOOPNZ 0xfffff8a00190fe90
0xfffff8a00190fe42 f9               STC
0xfffff8a00190fe43 0180faffff20     ADD [RAX+0x20fffffa], EAX
0xfffff8a00190fe49 5e               POP RSI
0xfffff8a00190fe4a 8e01             MOV ES, [RCX]
0xfffff8a00190fe4c a0f8ffff50fe9001a0 MOV AL, [0xa00190fe50fffff8]
0xfffff8a00190fe55 f8               CLC
0xfffff8a00190fe56 ff               DB 0xff
0xfffff8a00190fe57 ff               DB 0xff
------
ETHREAD: 0x3fb3a660 Pid: 1512 Tid: 1996
Tags: ScannerOnly
Created: 2019-12-11 14:37:23 UTC+0000
Exited: 1970-01-01 00:00:00 UTC+0000
Owning Process: WinRAR.exe
Attached Process: WinRAR.exe
State: Waiting:WrQueue
BasePriority: 0x8
Priority: 0x8
TEB: 0x7fffffd7000
StartAddress: 0x77cbc500 ntdll.dll
Win32Thread: 0x00000000
CrossThreadFlags: PS_CROSS_THREAD_FLAGS_DEADTHREAD
0x77cbc500 4883ec48         SUB RSP, 0x48
0x77cbc504 4c8bc9           MOV R9, RCX
0x77cbc507 488b0552da1000   MOV RAX, [RIP+0x10da52]
0x77cbc50e 4885c0           TEST RAX, RAX
0x77cbc511 0f84e3840300     JZ 0x77cf49fa
0x77cbc517 4c               DB 0x4c
------
ETHREAD: 0xfffffa8000f5ab60 Pid: 2504 Tid: 3008
Tags: 
Created: 2019-12-11 14:37:14 UTC+0000
Exited: 1970-01-01 00:00:00 UTC+0000
Owning Process: explorer.exe
Attached Process: explorer.exe
State: Waiting:UserRequest
BasePriority: 0x8
Priority: 0xc
TEB: 0x7fffffdc000
StartAddress: 0x77cbc500 ntdll.dll
Win32Thread: 0x00000000
CrossThreadFlags: PS_CROSS_THREAD_FLAGS_DEADTHREAD
0x77cbc500 4883ec48         SUB RSP, 0x48
0x77cbc504 4c8bc9           MOV R9, RCX
0x77cbc507 488b0552da1000   MOV RAX, [RIP+0x10da52]
0x77cbc50e 4885c0           TEST RAX, RAX
0x77cbc511 0f84e3840300     JZ 0x77cf49fa
0x77cbc517 4c               DB 0x4c
------
ETHREAD: 0xfffffa8001dcb480 Pid: 876 Tid: 1036
Tags: 
Created: 2019-12-11 14:15:28 UTC+0000
Exited: 1970-01-01 00:00:00 UTC+0000
Owning Process: svchost.exe
Attached Process: svchost.exe
State: Waiting:UserRequest
BasePriority: 0x8
Priority: 0x8
TEB: 0x7fffff7e000
StartAddress: 0x77cbc500 ntdll.dll
Win32Thread: 0x00000000
CrossThreadFlags: PS_CROSS_THREAD_FLAGS_DEADTHREAD
0x77cbc500 4883ec48         SUB RSP, 0x48
0x77cbc504 4c8bc9           MOV R9, RCX
0x77cbc507 488b0552da1000   MOV RAX, [RIP+0x10da52]
0x77cbc50e 4885c0           TEST RAX, RAX
0x77cbc511 0f84e3840300     JZ 0x77cf49fa
0x77cbc517 4c               DB 0x4c
------
ETHREAD: 0xfffffa8001e004c0 Pid: 816 Tid: 280
Tags: 
Created: 2019-12-11 13:41:45 UTC+0000
Exited: 1970-01-01 00:00:00 UTC+0000
Owning Process: svchost.exe
Attached Process: svchost.exe
State: Waiting:WrQueue
BasePriority: 0x8
Priority: 0x8
TEB: 0x7fffff9e000
StartAddress: 0xfffff8a001b3d540 UNKNOWN
Win32Thread: 0x00000000
CrossThreadFlags: PS_CROSS_THREAD_FLAGS_DEADTHREAD
0xfffff8a001b3d540 4008e0           OR AL, SPL
0xfffff8a001b3d543 0180faffff40     ADD [RAX+0x40fffffa], EAX
0xfffff8a001b3d549 08e0             OR AL, AH
0xfffff8a001b3d54b 0180faffff50     ADD [RAX+0x50fffffa], EAX
0xfffff8a001b3d551 d5               DB 0xd5
0xfffff8a001b3d552 b301             MOV BL, 0x1
0xfffff8a001b3d554 a0               DB 0xa0
0xfffff8a001b3d555 f8               CLC
0xfffff8a001b3d556 ff               DB 0xff
0xfffff8a001b3d557 ff               DB 0xff
------
ETHREAD: 0xfffffa8000cab040 Pid: 4 Tid: 16
Tags: 
Created: 1970-01-01 00:00:00 UTC+0000
Exited: 1970-01-01 00:00:00 UTC+0000
Owning Process: System
Attached Process: System
State: Waiting:Executive
BasePriority: 0xd
Priority: 0xf
TEB: 0x00000000
StartAddress: 0xfffff800027b1e60 ntoskrnl.exe
Win32Thread: 0x00000000
CrossThreadFlags: PS_CROSS_THREAD_FLAGS_DEADTHREAD
0xfffff800027b1e60 48895c2410       MOV [RSP+0x10], RBX
0xfffff800027b1e65 48896c2418       MOV [RSP+0x18], RBP
0xfffff800027b1e6a 56               PUSH RSI
0xfffff800027b1e6b 57               PUSH RDI
0xfffff800027b1e6c 4154             PUSH R12
0xfffff800027b1e6e 4155             PUSH R13
0xfffff800027b1e70 4156             PUSH R14
0xfffff800027b1e72 48               DB 0x48
0xfffff800027b1e73 81               DB 0x81
0xfffff800027b1e74 ec               IN AL, DX
0xfffff800027b1e75 800000           ADD BYTE [RAX], 0x0
------
ETHREAD: 0xfffffa8001008060 Pid: 1720 Tid: 2188
Tags: 
Created: 2019-12-11 14:37:21 UTC+0000
Exited: 1970-01-01 00:00:00 UTC+0000
Owning Process: SearchFilterHo
Attached Process: SearchFilterHo
State: Waiting:WrQueue
BasePriority: 0x4
Priority: 0x4
TEB: 0x7fffffd7000
StartAddress: 0x77cbc500 ntdll.dll
Win32Thread: 0xfffff900c1adf010
CrossThreadFlags: PS_CROSS_THREAD_FLAGS_DEADTHREAD
0x77cbc500 4883ec48         SUB RSP, 0x48
0x77cbc504 4c8bc9           MOV R9, RCX
0x77cbc507 488b0552da1000   MOV RAX, [RIP+0x10da52]
0x77cbc50e 4885c0           TEST RAX, RAX
0x77cbc511 0f84e3840300     JZ 0x77cf49fa
0x77cbc517 4c               DB 0x4c
------
ETHREAD: 0x3fb3ab60 Pid: 1512 Tid: 2916
Tags: ScannerOnly
Created: 2019-12-11 14:37:23 UTC+0000
Exited: 1970-01-01 00:00:00 UTC+0000
Owning Process: WinRAR.exe
Attached Process: WinRAR.exe
State: Waiting:WrQueue
BasePriority: 0x8
Priority: 0x8
TEB: 0x7fffffd9000
StartAddress: 0x77cbc500 ntdll.dll
Win32Thread: 0x00000000
CrossThreadFlags: PS_CROSS_THREAD_FLAGS_DEADTHREAD
0x77cbc500 4883ec48         SUB RSP, 0x48
0x77cbc504 4c8bc9           MOV R9, RCX
0x77cbc507 488b0552da1000   MOV RAX, [RIP+0x10da52]
0x77cbc50e 4885c0           TEST RAX, RAX
0x77cbc511 0f84e3840300     JZ 0x77cf49fa
0x77cbc517 4c               DB 0x4c
------
ETHREAD: 0xfffffa8001503460 Pid: 948 Tid: 1696
Tags: 
Created: 2019-12-11 14:16:07 UTC+0000
Exited: 1970-01-01 00:00:00 UTC+0000
Owning Process: svchost.exe
Attached Process: svchost.exe
State: Waiting:UserRequest
BasePriority: 0x8
Priority: 0x8
TEB: 0x7fffffd6000
StartAddress: 0x77cbc500 ntdll.dll
Win32Thread: 0x00000000
CrossThreadFlags: PS_CROSS_THREAD_FLAGS_DEADTHREAD
0x77cbc500 4883ec48         SUB RSP, 0x48
0x77cbc504 4c8bc9           MOV R9, RCX
0x77cbc507 488b0552da1000   MOV RAX, [RIP+0x10da52]
0x77cbc50e 4885c0           TEST RAX, RAX
0x77cbc511 0f84e3840300     JZ 0x77cf49fa
0x77cbc517 4c               DB 0x4c
------
ETHREAD: 0xfffffa8001001710 Pid: 1720 Tid: 3068
Tags: 
Created: 2019-12-11 14:37:21 UTC+0000
Exited: 1970-01-01 00:00:00 UTC+0000
Owning Process: SearchFilterHo
Attached Process: SearchFilterHo
State: Waiting:UserRequest
BasePriority: 0x4
Priority: 0x4
TEB: 0x7fffffde000
StartAddress: 0x77cbc500 ntdll.dll
Win32Thread: 0xfffff900c1addc30
CrossThreadFlags: PS_CROSS_THREAD_FLAGS_DEADTHREAD
0x77cbc500 4883ec48         SUB RSP, 0x48
0x77cbc504 4c8bc9           MOV R9, RCX
0x77cbc507 488b0552da1000   MOV RAX, [RIP+0x10da52]
0x77cbc50e 4885c0           TEST RAX, RAX
0x77cbc511 0f84e3840300     JZ 0x77cf49fa
0x77cbc517 4c               DB 0x4c
------
ETHREAD: 0xfffffa80020684a0 Pid: 472 Tid: 1680
Tags: 
Created: 2019-12-11 13:41:59 UTC+0000
Exited: 1970-01-01 00:00:00 UTC+0000
Owning Process: svchost.exe
Attached Process: svchost.exe
State: Waiting:UserRequest
BasePriority: 0x8
Priority: 0x9
TEB: 0x7fffffa6000
StartAddress: 0xfffff8a001a47d40 UNKNOWN
Win32Thread: 0xfffff900c1ac4c30
CrossThreadFlags: PS_CROSS_THREAD_FLAGS_DEADTHREAD
0xfffff8a001a47d40 2088060280fa     AND [RAX-0x57ffdfa], CL
0xfffff8a001a47d46 ff               DB 0xff
0xfffff8a001a47d47 ff00             INC DWORD [RAX]
0xfffff8a001a47d49 7186             JNO 0xfffff8a001a47cd1
0xfffff8a001a47d4b 01a0f8ffff50     ADD [RAX+0x50fffff8], ESP
0xfffff8a001a47d51 7da4             JGE 0xfffff8a001a47cf7
0xfffff8a001a47d53 01               DB 0x1
0xfffff8a001a47d54 a0               DB 0xa0
0xfffff8a001a47d55 f8               CLC
0xfffff8a001a47d56 ff               DB 0xff
0xfffff8a001a47d57 ff               DB 0xff
------
ETHREAD: 0xfffffa8000e9eb60 Pid: 876 Tid: 3020
Tags: 
Created: 2019-12-11 14:35:13 UTC+0000
Exited: 1970-01-01 00:00:00 UTC+0000
Owning Process: svchost.exe
Attached Process: svchost.exe
State: Waiting:WrLpcReceive
BasePriority: 0x8
Priority: 0x8
TEB: 0x7fffffa6000
StartAddress: 0x77cbc500 ntdll.dll
Win32Thread: 0x00000000
CrossThreadFlags: PS_CROSS_THREAD_FLAGS_DEADTHREAD
0x77cbc500 4883ec48         SUB RSP, 0x48
0x77cbc504 4c8bc9           MOV R9, RCX
0x77cbc507 488b0552da1000   MOV RAX, [RIP+0x10da52]
0x77cbc50e 4885c0           TEST RAX, RAX
0x77cbc511 0f84e3840300     JZ 0x77cf49fa
0x77cbc517 4c               DB 0x4c
------
ETHREAD: 0xfffffa8000d2e060 Pid: 1208 Tid: 920
Tags: 
Created: 2019-12-11 14:15:59 UTC+0000
Exited: 1970-01-01 00:00:00 UTC+0000
Owning Process: spoolsv.exe
Attached Process: spoolsv.exe
State: Waiting:WrUserRequest
BasePriority: 0x8
Priority: 0xa
TEB: 0x7fffffac000
StartAddress: 0x77cbc500 ntdll.dll
Win32Thread: 0xfffff900c1ac9c30
CrossThreadFlags: PS_CROSS_THREAD_FLAGS_DEADTHREAD
0x77cbc500 4883ec48         SUB RSP, 0x48
0x77cbc504 4c8bc9           MOV R9, RCX
0x77cbc507 488b0552da1000   MOV RAX, [RIP+0x10da52]
0x77cbc50e 4885c0           TEST RAX, RAX
0x77cbc511 0f84e3840300     JZ 0x77cf49fa
0x77cbc517 4c               DB 0x4c
------
ETHREAD: 0xfffffa800204e060 Pid: 816 Tid: 1636
Tags: 
Created: 2019-12-11 13:41:59 UTC+0000
Exited: 1970-01-01 00:00:00 UTC+0000
Owning Process: svchost.exe
Attached Process: svchost.exe
State: Waiting:UserRequest
BasePriority: 0x8
Priority: 0x8
TEB: 0x7fffffa8000
StartAddress: 0x77cbc500 ntdll.dll
Win32Thread: 0x00000000
CrossThreadFlags: PS_CROSS_THREAD_FLAGS_DEADTHREAD
0x77cbc500 4883ec48         SUB RSP, 0x48
0x77cbc504 4c8bc9           MOV R9, RCX
0x77cbc507 488b0552da1000   MOV RAX, [RIP+0x10da52]
0x77cbc50e 4885c0           TEST RAX, RAX
0x77cbc511 0f84e3840300     JZ 0x77cf49fa
0x77cbc517 4c               DB 0x4c
------
ETHREAD: 0x3fee2060 Pid: 948 Tid: 2816
Tags: ScannerOnly
Created: 2019-12-11 14:37:05 UTC+0000
Exited: 2019-12-11 14:38:12 UTC+0000
Owning Process: svchost.exe
Attached Process: svchost.exe
State: Terminated
BasePriority: 0x8
Priority: 0x8
TEB: 0x00000000
StartAddress: 0x77cbc500 ntdll.dll
Win32Thread: 0x00000000
CrossThreadFlags: PS_CROSS_THREAD_FLAGS_DEADTHREAD, PS_CROSS_THREAD_FLAGS_TERMINATED
0x77cbc500 4883ec48         SUB RSP, 0x48
0x77cbc504 4c8bc9           MOV R9, RCX
0x77cbc507 488b0552da1000   MOV RAX, [RIP+0x10da52]
0x77cbc50e 4885c0           TEST RAX, RAX
0x77cbc511 0f84e3840300     JZ 0x77cf49fa
0x77cbc517 4c               DB 0x4c
------
ETHREAD: 0xfffffa8001cdf710 Pid: 492 Tid: 540
Tags: 
Created: 2019-12-11 13:41:38 UTC+0000
Exited: 2019-12-11 14:18:10 UTC+0000
Owning Process: lsass.exe
Attached Process: lsass.exe
State: Terminated
BasePriority: 0x9
Priority: 0x9
TEB: 0x00000000
StartAddress: 0xfffffa8001cdfa90 UNKNOWN
Win32Thread: 0x00000000
CrossThreadFlags: PS_CROSS_THREAD_FLAGS_DEADTHREAD, PS_CROSS_THREAD_FLAGS_TERMINATED
0xfffffa8001cdfa90 90               NOP
0xfffffa8001cdfa91 fa               CLI
0xfffffa8001cdfa92 cd01             INT 0x1
0xfffffa8001cdfa94 80faff           CMP DL, 0xff
0xfffffa8001cdfa97 ff90facd0180     CALL QWORD [RAX-0x7ffe3206]
0xfffffa8001cdfa9d fa               CLI
0xfffffa8001cdfa9e ff               DB 0xff
0xfffffa8001cdfa9f ff00             INC DWORD [RAX]
0xfffffa8001cdfaa1 0000             ADD [RAX], AL
0xfffffa8001cdfaa3 0000             ADD [RAX], AL
0xfffffa8001cdfaa5 0000             ADD [RAX], AL
0xfffffa8001cdfaa7 00               DB 0x0
------
ETHREAD: 0xfffffa8000ef74b0 Pid: 492 Tid: 1676
Tags: 
Created: 2019-12-11 14:37:13 UTC+0000
Exited: 1970-01-01 00:00:00 UTC+0000
Owning Process: lsass.exe
Attached Process: lsass.exe
State: Waiting:WrQueue
BasePriority: 0x9
Priority: 0x9
TEB: 0x7fffffac000
StartAddress: 0x77cbc500 ntdll.dll
Win32Thread: 0x00000000
CrossThreadFlags: PS_CROSS_THREAD_FLAGS_DEADTHREAD
0x77cbc500 4883ec48         SUB RSP, 0x48
0x77cbc504 4c8bc9           MOV R9, RCX
0x77cbc507 488b0552da1000   MOV RAX, [RIP+0x10da52]
0x77cbc50e 4885c0           TEST RAX, RAX
0x77cbc511 0f84e3840300     JZ 0x77cf49fa
0x77cbc517 4c               DB 0x4c
------
ETHREAD: 0xfffffa8001e71060 Pid: 480 Tid: 1232
Tags: 
Created: 2019-12-11 14:31:21 UTC+0000
Exited: 2019-12-11 14:35:18 UTC+0000
Owning Process: SearchIndexer.
Attached Process: SearchIndexer.
State: Terminated
BasePriority: 0x8
Priority: 0x8
TEB: 0x00000000
StartAddress: 0x77cbc500 ntdll.dll
Win32Thread: 0x00000000
CrossThreadFlags: PS_CROSS_THREAD_FLAGS_DEADTHREAD, PS_CROSS_THREAD_FLAGS_TERMINATED
0x77cbc500 4883ec48         SUB RSP, 0x48
0x77cbc504 4c8bc9           MOV R9, RCX
0x77cbc507 488b0552da1000   MOV RAX, [RIP+0x10da52]
0x77cbc50e 4885c0           TEST RAX, RAX
0x77cbc511 0f84e3840300     JZ 0x77cf49fa
0x77cbc517 4c               DB 0x4c
------
ETHREAD: 0x3fab5660 Pid: 1512 Tid: 1996
Tags: ScannerOnly
Created: 2019-12-11 14:37:23 UTC+0000
Exited: 1970-01-01 00:00:00 UTC+0000
Owning Process: WinRAR.exe
Attached Process: WinRAR.exe
State: Waiting:WrQueue
BasePriority: 0x8
Priority: 0x8
TEB: 0x7fffffd7000
StartAddress: 0x77cbc500 ntdll.dll
Win32Thread: 0x00000000
CrossThreadFlags: PS_CROSS_THREAD_FLAGS_DEADTHREAD
0x77cbc500 4883ec48         SUB RSP, 0x48
0x77cbc504 4c8bc9           MOV R9, RCX
0x77cbc507 488b0552da1000   MOV RAX, [RIP+0x10da52]
0x77cbc50e 4885c0           TEST RAX, RAX
0x77cbc511 0f84e3840300     JZ 0x77cf49fa
0x77cbc517 4c               DB 0x4c
------
ETHREAD: 0xfffffa8002243b60 Pid: 604 Tid: 2192
Tags: 
Created: 2019-12-11 14:34:21 UTC+0000
Exited: 1970-01-01 00:00:00 UTC+0000
Owning Process: explorer.exe
Attached Process: explorer.exe
State: Waiting:UserRequest
BasePriority: 0x8
Priority: 0xa
TEB: 0x7fffff92000
StartAddress: 0x77cbc500 ntdll.dll
Win32Thread: 0xfffff900c21a8010
CrossThreadFlags: PS_CROSS_THREAD_FLAGS_DEADTHREAD
0x77cbc500 4883ec48         SUB RSP, 0x48
0x77cbc504 4c8bc9           MOV R9, RCX
0x77cbc507 488b0552da1000   MOV RAX, [RIP+0x10da52]
0x77cbc50e 4885c0           TEST RAX, RAX
0x77cbc511 0f84e3840300     JZ 0x77cf49fa
0x77cbc517 4c               DB 0x4c
------
ETHREAD: 0xfffffa8001de3040 Pid: 4 Tid: 1672
Tags: 
Created: 2019-12-11 14:16:58 UTC+0000
Exited: 1970-01-01 00:00:00 UTC+0000
Owning Process: System
Attached Process: System
State: Waiting:Executive
BasePriority: 0x8
Priority: 0x8
TEB: 0x00000000
StartAddress: 0xfffff8800247f010 HTTP.sys
Win32Thread: 0x00000000
CrossThreadFlags: PS_CROSS_THREAD_FLAGS_DEADTHREAD, PS_CROSS_THREAD_FLAGS_HARD_ERRORS_DISABLED
0xfffff8800247f010 48895c2410       MOV [RSP+0x10], RBX
0xfffff8800247f015 48896c2418       MOV [RSP+0x18], RBP
0xfffff8800247f01a 4889742420       MOV [RSP+0x20], RSI
0xfffff8800247f01f 57               PUSH RDI
0xfffff8800247f020 4154             PUSH R12
0xfffff8800247f022 4155             PUSH R13
0xfffff8800247f024 4156             PUSH R14
0xfffff8800247f026 4157             PUSH R15
------
ETHREAD: 0xfffffa80021cc5c0 Pid: 2692 Tid: 1888
Tags: 
Created: 2019-12-11 14:34:54 UTC+0000
Exited: 1970-01-01 00:00:00 UTC+0000
Owning Process: conhost.exe
Attached Process: conhost.exe
State: Waiting:WrLpcReceive
BasePriority: 0x8
Priority: 0xb
TEB: 0x7fffffdc000
StartAddress: 0x77cbc500 ntdll.dll
Win32Thread: 0xfffff900c1e74660
CrossThreadFlags: PS_CROSS_THREAD_FLAGS_DEADTHREAD
0x77cbc500 4883ec48         SUB RSP, 0x48
0x77cbc504 4c8bc9           MOV R9, RCX
0x77cbc507 488b0552da1000   MOV RAX, [RIP+0x10da52]
0x77cbc50e 4885c0           TEST RAX, RAX
0x77cbc511 0f84e3840300     JZ 0x77cf49fa
0x77cbc517 4c               DB 0x4c
------
ETHREAD: 0xfffffa8001f33060 Pid: 1248 Tid: 1320
Tags: 
Created: 2019-12-11 13:41:54 UTC+0000
Exited: 2019-12-11 13:41:55 UTC+0000
Owning Process: svchost.exe
Attached Process: svchost.exe
State: Terminated
BasePriority: 0x8
Priority: 0x9
TEB: 0x00000000
StartAddress: 0xfffffa8001f333e0 UNKNOWN
Win32Thread: 0x00000000
CrossThreadFlags: PS_CROSS_THREAD_FLAGS_DEADTHREAD, PS_CROSS_THREAD_FLAGS_TERMINATED
0xfffffa8001f333e0 e033             LOOPNZ 0xfffffa8001f33415
0xfffffa8001f333e2 f30180faffffe0   ADD [RAX-0x1f000006], EAX
0xfffffa8001f333e9 33f3             XOR ESI, EBX
0xfffffa8001f333eb 0180faffff00     ADD [RAX+0xfffffa], EAX
0xfffffa8001f333f1 0000             ADD [RAX], AL
0xfffffa8001f333f3 0000             ADD [RAX], AL
0xfffffa8001f333f5 0000             ADD [RAX], AL
0xfffffa8001f333f7 00               DB 0x0
------
ETHREAD: 0xfffffa8000d3cb60 Pid: 1372 Tid: 1520
Tags: 
Created: 2019-12-11 14:16:06 UTC+0000
Exited: 1970-01-01 00:00:00 UTC+0000
Owning Process: svchost.exe
Attached Process: svchost.exe
State: Waiting:UserRequest
BasePriority: 0x8
Priority: 0x8
TEB: 0x7fffffa8000
StartAddress: 0xfffff8a0019d21d0 UNKNOWN
Win32Thread: 0x00000000
CrossThreadFlags: PS_CROSS_THREAD_FLAGS_DEADTHREAD
0xfffff8a0019d21d0 e0ce             LOOPNZ 0xfffff8a0019d21a0
0xfffff8a0019d21d2 d300             ROL DWORD [RAX], CL
0xfffff8a0019d21d4 80faff           CMP DL, 0xff
0xfffff8a0019d21d7 ffe0             JMP RAX
0xfffff8a0019d21d9 ce               DB 0xce
0xfffff8a0019d21da d300             ROL DWORD [RAX], CL
0xfffff8a0019d21dc 80faff           CMP DL, 0xff
0xfffff8a0019d21df ffe0             JMP RAX
0xfffff8a0019d21e1 219d01a0f8ff     AND [RBP-0x75fff], EBX
0xfffff8a0019d21e7 ff               DB 0xff
------
ETHREAD: 0xfffffa8000f4c060 Pid: 3004 Tid: 2400
Tags: 
Created: 2019-12-11 14:37:14 UTC+0000
Exited: 1970-01-01 00:00:00 UTC+0000
Owning Process: dwm.exe
Attached Process: dwm.exe
State: Waiting:UserRequest
BasePriority: 0xf
Priority: 0xf
TEB: 0x7fffffdc000
StartAddress: 0x77cbc500 ntdll.dll
Win32Thread: 0xfffff900c01fa2d0
CrossThreadFlags: PS_CROSS_THREAD_FLAGS_DEADTHREAD
0x77cbc500 4883ec48         SUB RSP, 0x48
0x77cbc504 4c8bc9           MOV R9, RCX
0x77cbc507 488b0552da1000   MOV RAX, [RIP+0x10da52]
0x77cbc50e 4885c0           TEST RAX, RAX
0x77cbc511 0f84e3840300     JZ 0x77cf49fa
0x77cbc517 4c               DB 0x4c
------
ETHREAD: 0xfffffa8001d654c0 Pid: 500 Tid: 768
Tags: 
Created: 2019-12-11 13:41:41 UTC+0000
Exited: 1970-01-01 00:00:00 UTC+0000
Owning Process: lsm.exe
Attached Process: lsm.exe
State: Waiting:WrLpcReceive
BasePriority: 0x8
Priority: 0x9
TEB: 0x7fffffae000
StartAddress: 0x77cbc500 ntdll.dll
Win32Thread: 0x00000000
CrossThreadFlags: PS_CROSS_THREAD_FLAGS_DEADTHREAD
0x77cbc500 4883ec48         SUB RSP, 0x48
0x77cbc504 4c8bc9           MOV R9, RCX
0x77cbc507 488b0552da1000   MOV RAX, [RIP+0x10da52]
0x77cbc50e 4885c0           TEST RAX, RAX
0x77cbc511 0f84e3840300     JZ 0x77cf49fa
0x77cbc517 4c               DB 0x4c
------
ETHREAD: 0xfffffa8000f96a20 Pid: 2504 Tid: 2100
Tags: 
Created: 2019-12-11 14:37:14 UTC+0000
Exited: 1970-01-01 00:00:00 UTC+0000
Owning Process: explorer.exe
Attached Process: explorer.exe
State: Waiting:UserRequest
BasePriority: 0x8
Priority: 0xb
TEB: 0x7fffffa4000
StartAddress: 0x77cbc500 ntdll.dll
Win32Thread: 0xfffff900c1a01c30
CrossThreadFlags: PS_CROSS_THREAD_FLAGS_DEADTHREAD
0x77cbc500 4883ec48         SUB RSP, 0x48
0x77cbc504 4c8bc9           MOV R9, RCX
0x77cbc507 488b0552da1000   MOV RAX, [RIP+0x10da52]
0x77cbc50e 4885c0           TEST RAX, RAX
0x77cbc511 0f84e3840300     JZ 0x77cf49fa
0x77cbc517 4c               DB 0x4c
------
ETHREAD: 0xfffffa80021f5060 Pid: 604 Tid: 2264
Tags: 
Created: 2019-12-11 14:32:49 UTC+0000
Exited: 1970-01-01 00:00:00 UTC+0000
Owning Process: explorer.exe
Attached Process: explorer.exe
State: Waiting:UserRequest
BasePriority: 0x8
Priority: 0xb
TEB: 0x7fffff8c000
StartAddress: 0x77cbc500 ntdll.dll
Win32Thread: 0x00000000
CrossThreadFlags: PS_CROSS_THREAD_FLAGS_DEADTHREAD
0x77cbc500 4883ec48         SUB RSP, 0x48
0x77cbc504 4c8bc9           MOV R9, RCX
0x77cbc507 488b0552da1000   MOV RAX, [RIP+0x10da52]
0x77cbc50e 4885c0           TEST RAX, RAX
0x77cbc511 0f84e3840300     JZ 0x77cf49fa
0x77cbc517 4c               DB 0x4c
------
ETHREAD: 0xfffffa8002239660 Pid: 2760 Tid: 2852
Tags: 
Created: 2019-12-11 14:37:05 UTC+0000
Exited: 1970-01-01 00:00:00 UTC+0000
Owning Process: csrss.exe
Attached Process: csrss.exe
State: Waiting:UserRequest
BasePriority: 0xd
Priority: 0xe
TEB: 0x7fffffd8000
StartAddress: 0xfffff8a001fed0b0 UNKNOWN
Win32Thread: 0xfffff900c01d7bb0
CrossThreadFlags: PS_CROSS_THREAD_FLAGS_DEADTHREAD
0xfffff8a001fed0b0 e099             LOOPNZ 0xfffff8a001fed04b
0xfffff8a001fed0b2 2302             AND EAX, [RDX]
0xfffff8a001fed0b4 80faff           CMP DL, 0xff
0xfffff8a001fed0b7 ff00             INC DWORD [RAX]
0xfffff8a001fed0b9 5a               POP RDX
0xfffff8a001fed0ba 2602a0f8ffffc0   ADD AH, [RAX-0x3f000008]
0xfffff8a001fed0c1 d0fe             SAR DH, 0x1
0xfffff8a001fed0c3 01               DB 0x1
0xfffff8a001fed0c4 a0               DB 0xa0
0xfffff8a001fed0c5 f8               CLC
0xfffff8a001fed0c6 ff               DB 0xff
0xfffff8a001fed0c7 ff               DB 0xff
------
ETHREAD: 0xfffffa8000f56060 Pid: 3004 Tid: 2168
Tags: 
Created: 2019-12-11 14:37:14 UTC+0000
Exited: 1970-01-01 00:00:00 UTC+0000
Owning Process: dwm.exe
Attached Process: dwm.exe
State: Waiting:UserRequest
BasePriority: 0x8
Priority: 0x8
TEB: 0x7fffffd8000
StartAddress: 0x77cbc500 ntdll.dll
Win32Thread: 0x00000000
CrossThreadFlags: PS_CROSS_THREAD_FLAGS_DEADTHREAD
0x77cbc500 4883ec48         SUB RSP, 0x48
0x77cbc504 4c8bc9           MOV R9, RCX
0x77cbc507 488b0552da1000   MOV RAX, [RIP+0x10da52]
0x77cbc50e 4885c0           TEST RAX, RAX
0x77cbc511 0f84e3840300     JZ 0x77cf49fa
0x77cbc517 4c               DB 0x4c
------
ETHREAD: 0xfffffa8001f28b60 Pid: 816 Tid: 1632
Tags: 
Created: 2019-12-11 13:41:59 UTC+0000
Exited: 1970-01-01 00:00:00 UTC+0000
Owning Process: svchost.exe
Attached Process: svchost.exe
State: Waiting:UserRequest
BasePriority: 0x8
Priority: 0x8
TEB: 0x7fffffa4000
StartAddress: 0x77cbc500 ntdll.dll
Win32Thread: 0x00000000
CrossThreadFlags: PS_CROSS_THREAD_FLAGS_DEADTHREAD
0x77cbc500 4883ec48         SUB RSP, 0x48
0x77cbc504 4c8bc9           MOV R9, RCX
0x77cbc507 488b0552da1000   MOV RAX, [RIP+0x10da52]
0x77cbc50e 4885c0           TEST RAX, RAX
0x77cbc511 0f84e3840300     JZ 0x77cf49fa
0x77cbc517 4c               DB 0x4c
------
ETHREAD: 0xfffffa8002243060 Pid: 852 Tid: 2472
Tags: 
Created: 2019-12-11 14:32:52 UTC+0000
Exited: 1970-01-01 00:00:00 UTC+0000
Owning Process: svchost.exe
Attached Process: svchost.exe
State: Waiting:UserRequest
BasePriority: 0x8
Priority: 0x9
TEB: 0x7fffff86000
StartAddress: 0x77cbc500 ntdll.dll
Win32Thread: 0x00000000
CrossThreadFlags: PS_CROSS_THREAD_FLAGS_DEADTHREAD
0x77cbc500 4883ec48         SUB RSP, 0x48
0x77cbc504 4c8bc9           MOV R9, RCX
0x77cbc507 488b0552da1000   MOV RAX, [RIP+0x10da52]
0x77cbc50e 4885c0           TEST RAX, RAX
0x77cbc511 0f84e3840300     JZ 0x77cf49fa
0x77cbc517 4c               DB 0x4c
------
ETHREAD: 0xfffffa80020b7060 Pid: 876 Tid: 1768
Tags: 
Created: 2019-12-11 13:42:00 UTC+0000
Exited: 2019-12-11 14:15:28 UTC+0000
Owning Process: svchost.exe
Attached Process: svchost.exe
State: Terminated
BasePriority: 0x8
Priority: 0x9
TEB: 0x00000000
StartAddress: 0x77cbc500 ntdll.dll
Win32Thread: 0x00000000
CrossThreadFlags: PS_CROSS_THREAD_FLAGS_DEADTHREAD, PS_CROSS_THREAD_FLAGS_TERMINATED
0x77cbc500 4883ec48         SUB RSP, 0x48
0x77cbc504 4c8bc9           MOV R9, RCX
0x77cbc507 488b0552da1000   MOV RAX, [RIP+0x10da52]
0x77cbc50e 4885c0           TEST RAX, RAX
0x77cbc511 0f84e3840300     JZ 0x77cf49fa
0x77cbc517 4c               DB 0x4c
------
ETHREAD: 0xfffffa8000e89b60 Pid: 484 Tid: 1056
Tags: 
Created: 2019-12-11 14:35:11 UTC+0000
Exited: 1970-01-01 00:00:00 UTC+0000
Owning Process: services.exe
Attached Process: services.exe
State: Waiting:WrQueue
BasePriority: 0x9
Priority: 0xa
TEB: 0x7fffffd5000
StartAddress: 0x77cbc500 ntdll.dll
Win32Thread: 0x00000000
CrossThreadFlags: PS_CROSS_THREAD_FLAGS_DEADTHREAD
0x77cbc500 4883ec48         SUB RSP, 0x48
0x77cbc504 4c8bc9           MOV R9, RCX
0x77cbc507 488b0552da1000   MOV RAX, [RIP+0x10da52]
0x77cbc50e 4885c0           TEST RAX, RAX
0x77cbc511 0f84e3840300     JZ 0x77cf49fa
0x77cbc517 4c               DB 0x4c
------
ETHREAD: 0xfffffa8001d904d0 Pid: 816 Tid: 832
Tags: 
Created: 2019-12-11 13:41:42 UTC+0000
Exited: 2019-12-11 14:15:16 UTC+0000
Owning Process: svchost.exe
Attached Process: svchost.exe
State: Terminated
BasePriority: 0x8
Priority: 0xd
TEB: 0x00000000
StartAddress: 0x77cbc500 ntdll.dll
Win32Thread: 0x00000000
CrossThreadFlags: PS_CROSS_THREAD_FLAGS_DEADTHREAD, PS_CROSS_THREAD_FLAGS_TERMINATED
0x77cbc500 4883ec48         SUB RSP, 0x48
0x77cbc504 4c8bc9           MOV R9, RCX
0x77cbc507 488b0552da1000   MOV RAX, [RIP+0x10da52]
0x77cbc50e 4885c0           TEST RAX, RAX
0x77cbc511 0f84e3840300     JZ 0x77cf49fa
0x77cbc517 4c               DB 0x4c
------
ETHREAD: 0x3fb0fb60 Pid: 2524 Tid: 2496
Tags: ScannerOnly
Created: 2019-12-11 14:37:21 UTC+0000
Exited: 1970-01-01 00:00:00 UTC+0000
Owning Process: SearchProtocol
Attached Process: SearchProtocol
State: Waiting:UserRequest
BasePriority: 0x4
Priority: 0x4
TEB: 0x7fffffd6000
StartAddress: 0x77cbc500 ntdll.dll
Win32Thread: 0xfffff900c2303c30
CrossThreadFlags: PS_CROSS_THREAD_FLAGS_DEADTHREAD
0x77cbc500 4883ec48         SUB RSP, 0x48
0x77cbc504 4c8bc9           MOV R9, RCX
0x77cbc507 488b0552da1000   MOV RAX, [RIP+0x10da52]
0x77cbc50e 4885c0           TEST RAX, RAX
0x77cbc511 0f84e3840300     JZ 0x77cf49fa
0x77cbc517 4c               DB 0x4c
------
ETHREAD: 0xfffffa800223a880 Pid: 2504 Tid: 2788
Tags: 
Created: 2019-12-11 14:37:19 UTC+0000
Exited: 1970-01-01 00:00:00 UTC+0000
Owning Process: explorer.exe
Attached Process: explorer.exe
State: Waiting:UserRequest
BasePriority: 0x8
Priority: 0x8
TEB: 0x7fffff90000
StartAddress: 0x77cbc500 ntdll.dll
Win32Thread: 0xfffff900c1ab6500
CrossThreadFlags: PS_CROSS_THREAD_FLAGS_DEADTHREAD
0x77cbc500 4883ec48         SUB RSP, 0x48
0x77cbc504 4c8bc9           MOV R9, RCX
0x77cbc507 488b0552da1000   MOV RAX, [RIP+0x10da52]
0x77cbc50e 4885c0           TEST RAX, RAX
0x77cbc511 0f84e3840300     JZ 0x77cf49fa
0x77cbc517 4c               DB 0x4c
------
ETHREAD: 0xfffffa8001e3b060 Pid: 876 Tid: 2520
Tags: 
Created: 2019-12-11 14:37:05 UTC+0000
Exited: 1970-01-01 00:00:00 UTC+0000
Owning Process: svchost.exe
Attached Process: svchost.exe
State: Waiting:WrQueue
BasePriority: 0x8
Priority: 0x9
TEB: 0x7fffffd9000
StartAddress: 0x77cbc500 ntdll.dll
Win32Thread: 0xfffff900c1adbc30
CrossThreadFlags: PS_CROSS_THREAD_FLAGS_DEADTHREAD
0x77cbc500 4883ec48         SUB RSP, 0x48
0x77cbc504 4c8bc9           MOV R9, RCX
0x77cbc507 488b0552da1000   MOV RAX, [RIP+0x10da52]
0x77cbc50e 4885c0           TEST RAX, RAX
0x77cbc511 0f84e3840300     JZ 0x77cf49fa
0x77cbc517 4c               DB 0x4c
------
ETHREAD: 0xfffffa800220db60 Pid: 472 Tid: 2320
Tags: 
Created: 2019-12-11 14:32:50 UTC+0000
Exited: 1970-01-01 00:00:00 UTC+0000
Owning Process: svchost.exe
Attached Process: svchost.exe
State: Waiting:UserRequest
BasePriority: 0x8
Priority: 0x9
TEB: 0x7fffff98000
StartAddress: 0x77cbc500 ntdll.dll
Win32Thread: 0x00000000
CrossThreadFlags: PS_CROSS_THREAD_FLAGS_DEADTHREAD
0x77cbc500 4883ec48         SUB RSP, 0x48
0x77cbc504 4c8bc9           MOV R9, RCX
0x77cbc507 488b0552da1000   MOV RAX, [RIP+0x10da52]
0x77cbc50e 4885c0           TEST RAX, RAX
0x77cbc511 0f84e3840300     JZ 0x77cf49fa
0x77cbc517 4c               DB 0x4c
------
ETHREAD: 0xfffffa8000eae320 Pid: 2660 Tid: 2664
Tags: 
Created: 2019-12-11 14:35:14 UTC+0000
Exited: 1970-01-01 00:00:00 UTC+0000
Owning Process: svchost.exe
Attached Process: svchost.exe
State: Waiting:UserRequest
BasePriority: 0x8
Priority: 0x9
TEB: 0x7fffffde000
StartAddress: 0x77cbc500 ntdll.dll
Win32Thread: 0x00000000
CrossThreadFlags: PS_CROSS_THREAD_FLAGS_DEADTHREAD
0x77cbc500 4883ec48         SUB RSP, 0x48
0x77cbc504 4c8bc9           MOV R9, RCX
0x77cbc507 488b0552da1000   MOV RAX, [RIP+0x10da52]
0x77cbc50e 4885c0           TEST RAX, RAX
0x77cbc511 0f84e3840300     JZ 0x77cf49fa
0x77cbc517 4c               DB 0x4c
------
ETHREAD: 0xfffffa80010654e0 Pid: 1372 Tid: 2412
Tags: 
Created: 2019-12-11 14:37:56 UTC+0000
Exited: 1970-01-01 00:00:00 UTC+0000
Owning Process: svchost.exe
Attached Process: svchost.exe
State: Waiting:WrQueue
BasePriority: 0x8
Priority: 0x8
TEB: 0x7fffff98000
StartAddress: 0x77cbc500 ntdll.dll
Win32Thread: 0x00000000
CrossThreadFlags: PS_CROSS_THREAD_FLAGS_DEADTHREAD
0x77cbc500 4883ec48         SUB RSP, 0x48
0x77cbc504 4c8bc9           MOV R9, RCX
0x77cbc507 488b0552da1000   MOV RAX, [RIP+0x10da52]
0x77cbc50e 4885c0           TEST RAX, RAX
0x77cbc511 0f84e3840300     JZ 0x77cf49fa
0x77cbc517 4c               DB 0x4c
------
ETHREAD: 0xfffffa8000f7c8d0 Pid: 2504 Tid: 3064
Tags: 
Created: 2019-12-11 14:37:14 UTC+0000
Exited: 1970-01-01 00:00:00 UTC+0000
Owning Process: explorer.exe
Attached Process: explorer.exe
State: Waiting:DelayExecution
BasePriority: 0x8
Priority: 0x9
TEB: 0x7fffffd5000
StartAddress: 0x77cbc500 ntdll.dll
Win32Thread: 0x00000000
CrossThreadFlags: PS_CROSS_THREAD_FLAGS_DEADTHREAD
0x77cbc500 4883ec48         SUB RSP, 0x48
0x77cbc504 4c8bc9           MOV R9, RCX
0x77cbc507 488b0552da1000   MOV RAX, [RIP+0x10da52]
0x77cbc50e 4885c0           TEST RAX, RAX
0x77cbc511 0f84e3840300     JZ 0x77cf49fa
0x77cbc517 4c               DB 0x4c
------
ETHREAD: 0x3fad0060 Pid: 2260 Tid: 1732
Tags: ScannerOnly
Created: 2019-12-11 14:37:54 UTC+0000
Exited: 1970-01-01 00:00:00 UTC+0000
Owning Process: conhost.exe
Attached Process: conhost.exe
State: Waiting:WrLpcReceive
BasePriority: 0x8
Priority: 0xb
TEB: 0x7fffffdc000
StartAddress: 0x77cbc500 ntdll.dll
Win32Thread: 0xfffff900c1cf4c30
CrossThreadFlags: PS_CROSS_THREAD_FLAGS_DEADTHREAD
0x77cbc500 4883ec48         SUB RSP, 0x48
0x77cbc504 4c8bc9           MOV R9, RCX
0x77cbc507 488b0552da1000   MOV RAX, [RIP+0x10da52]
0x77cbc50e 4885c0           TEST RAX, RAX
0x77cbc511 0f84e3840300     JZ 0x77cf49fa
0x77cbc517 4c               DB 0x4c
------
ETHREAD: 0xfffffa8001fb9280 Pid: 1416 Tid: 1440
Tags: 
Created: 2019-12-11 13:41:56 UTC+0000
Exited: 1970-01-01 00:00:00 UTC+0000
Owning Process: TCPSVCS.EXE
Attached Process: TCPSVCS.EXE
State: Waiting:UserRequest
BasePriority: 0x8
Priority: 0x8
TEB: 0x7fffffd5000
StartAddress: 0x77cbc500 ntdll.dll
Win32Thread: 0x00000000
CrossThreadFlags: PS_CROSS_THREAD_FLAGS_DEADTHREAD
0x77cbc500 4883ec48         SUB RSP, 0x48
0x77cbc504 4c8bc9           MOV R9, RCX
0x77cbc507 488b0552da1000   MOV RAX, [RIP+0x10da52]
0x77cbc50e 4885c0           TEST RAX, RAX
0x77cbc511 0f84e3840300     JZ 0x77cf49fa
0x77cbc517 4c               DB 0x4c
------
ETHREAD: 0xfffffa8001030b60 Pid: 1512 Tid: 2916
Tags: 
Created: 2019-12-11 14:37:23 UTC+0000
Exited: 1970-01-01 00:00:00 UTC+0000
Owning Process: WinRAR.exe
Attached Process: WinRAR.exe
State: Waiting:WrQueue
BasePriority: 0x8
Priority: 0x8
TEB: 0x7fffffd9000
StartAddress: 0x77cbc500 ntdll.dll
Win32Thread: 0x00000000
CrossThreadFlags: PS_CROSS_THREAD_FLAGS_DEADTHREAD
0x77cbc500 4883ec48         SUB RSP, 0x48
0x77cbc504 4c8bc9           MOV R9, RCX
0x77cbc507 488b0552da1000   MOV RAX, [RIP+0x10da52]
0x77cbc50e 4885c0           TEST RAX, RAX
0x77cbc511 0f84e3840300     JZ 0x77cf49fa
0x77cbc517 4c               DB 0x4c
------
ETHREAD: 0xfffffa80014af870 Pid: 424 Tid: 532
Tags: 
Created: 2019-12-11 13:41:37 UTC+0000
Exited: 2019-12-11 14:15:22 UTC+0000
Owning Process: wininit.exe
Attached Process: wininit.exe
State: Terminated
BasePriority: 0xd
Priority: 0xd
TEB: 0x00000000
StartAddress: 0xfffffa80014afbf0 UNKNOWN
Win32Thread: 0x00000000
CrossThreadFlags: PS_CROSS_THREAD_FLAGS_DEADTHREAD, PS_CROSS_THREAD_FLAGS_TERMINATED
0xfffffa80014afbf0 f0fb             STI
0xfffffa80014afbf2 4a0180fafffff0   ADD [RAX-0xf000006], RAX
0xfffffa80014afbf9 fb               STI
0xfffffa80014afbfa 4a0180faffff00   ADD [RAX+0xfffffa], RAX
0xfffffa80014afc01 0000             ADD [RAX], AL
0xfffffa80014afc03 0000             ADD [RAX], AL
0xfffffa80014afc05 0000             ADD [RAX], AL
0xfffffa80014afc07 00               DB 0x0
------
ETHREAD: 0x3faac060 Pid: 2868 Tid: 2268
Tags: ScannerOnly
Created: 2019-12-11 14:37:23 UTC+0000
Exited: 1970-01-01 00:00:00 UTC+0000
Owning Process: SearchProtocol
Attached Process: SearchProtocol
State: Waiting:UserRequest
BasePriority: 0x4
Priority: 0x4
TEB: 0x7fffffd7000
StartAddress: 0xfffff8a0022326f0 UNKNOWN
Win32Thread: 0xfffff900c1aeb010
CrossThreadFlags: PS_CROSS_THREAD_FLAGS_DEADTHREAD
0xfffff8a0022326f0 e073             LOOPNZ 0xfffff8a002232765
0xfffff8a0022326f2 0201             ADD AL, [RCX]
0xfffff8a0022326f4 80faff           CMP DL, 0xff
0xfffff8a0022326f7 ffe0             JMP RAX
0xfffff8a0022326f9 7302             JAE 0xfffff8a0022326fd
0xfffff8a0022326fb 0180faffff00     ADD [RAX+0xfffffa], EAX
0xfffff8a002232701 27               DB 0x27
0xfffff8a002232702 2302             AND EAX, [RDX]
0xfffff8a002232704 a0               DB 0xa0
0xfffff8a002232705 f8               CLC
0xfffff8a002232706 ff               DB 0xff
0xfffff8a002232707 ff               DB 0xff
------
ETHREAD: 0xfffffa8001d484f0 Pid: 720 Tid: 728
Tags: 
Created: 2019-12-11 13:41:41 UTC+0000
Exited: 2019-12-11 14:15:13 UTC+0000
Owning Process: svchost.exe
Attached Process: svchost.exe
State: Terminated
BasePriority: 0x8
Priority: 0x8
TEB: 0x00000000
StartAddress: 0xfffffa8001d48870 UNKNOWN
Win32Thread: 0x00000000
CrossThreadFlags: PS_CROSS_THREAD_FLAGS_DEADTHREAD, PS_CROSS_THREAD_FLAGS_TERMINATED
0xfffffa8001d48870 7088             JO 0xfffffa8001d487fa
0xfffffa8001d48872 d4               DB 0xd4
0xfffffa8001d48873 0180faffff70     ADD [RAX+0x70fffffa], EAX
0xfffffa8001d48879 88d4             MOV AH, DL
0xfffffa8001d4887b 0180faffff00     ADD [RAX+0xfffffa], EAX
0xfffffa8001d48881 0000             ADD [RAX], AL
0xfffffa8001d48883 0000             ADD [RAX], AL
0xfffffa8001d48885 0000             ADD [RAX], AL
0xfffffa8001d48887 00               DB 0x0
------
ETHREAD: 0xfffffa8001c81060 Pid: 320 Tid: 460
Tags: 
Created: 2019-12-11 13:41:34 UTC+0000
Exited: 1970-01-01 00:00:00 UTC+0000
Owning Process: csrss.exe
Attached Process: csrss.exe
State: Waiting:WrUserRequest
BasePriority: 0xd
Priority: 0xd
TEB: 0x7fffffae000
StartAddress: 0x77cbc500 ntdll.dll
Win32Thread: 0xfffff900c014bac0
CrossThreadFlags: PS_CROSS_THREAD_FLAGS_DEADTHREAD
0x77cbc500 4883ec48         SUB RSP, 0x48
0x77cbc504 4c8bc9           MOV R9, RCX
0x77cbc507 488b0552da1000   MOV RAX, [RIP+0x10da52]
0x77cbc50e 4885c0           TEST RAX, RAX
0x77cbc511 0f84e3840300     JZ 0x77cf49fa
0x77cbc517 4c               DB 0x4c
------
ETHREAD: 0xfffffa8001ed4b60 Pid: 1208 Tid: 1236
Tags: 
Created: 2019-12-11 13:41:52 UTC+0000
Exited: 1970-01-01 00:00:00 UTC+0000
Owning Process: spoolsv.exe
Attached Process: spoolsv.exe
State: Waiting:UserRequest
BasePriority: 0x8
Priority: 0x9
TEB: 0x7fffffd6000
StartAddress: 0x77cbc500 ntdll.dll
Win32Thread: 0x00000000
CrossThreadFlags: PS_CROSS_THREAD_FLAGS_DEADTHREAD
0x77cbc500 4883ec48         SUB RSP, 0x48
0x77cbc504 4c8bc9           MOV R9, RCX
0x77cbc507 488b0552da1000   MOV RAX, [RIP+0x10da52]
0x77cbc50e 4885c0           TEST RAX, RAX
0x77cbc511 0f84e3840300     JZ 0x77cf49fa
0x77cbc517 4c               DB 0x4c
------
ETHREAD: 0xfffffa8001fe2060 Pid: 876 Tid: 1472
Tags: 
Created: 2019-12-11 13:41:56 UTC+0000
Exited: 1970-01-01 00:00:00 UTC+0000
Owning Process: svchost.exe
Attached Process: svchost.exe
State: Waiting:UserRequest
BasePriority: 0x8
Priority: 0x9
TEB: 0x7fffff92000
StartAddress: 0xfffff8a0018c9020 UNKNOWN
Win32Thread: 0xfffff900c1acb010
CrossThreadFlags: PS_CROSS_THREAD_FLAGS_DEADTHREAD
0xfffff8a0018c9020 e023             LOOPNZ 0xfffff8a0018c9045
0xfffff8a0018c9022 fe01             INC BYTE [RCX]
0xfffff8a0018c9024 80faff           CMP DL, 0xff
0xfffff8a0018c9027 ff20             JMP QWORD [RAX]
0xfffff8a0018c9029 7197             JNO 0xfffff8a0018c8fc2
0xfffff8a0018c902b 01a0f8ffff30     ADD [RAX+0x30fffff8], ESP
0xfffff8a0018c9031 90               NOP
0xfffff8a0018c9032 8c01             MOV [RCX], ES
0xfffff8a0018c9034 a0               DB 0xa0
0xfffff8a0018c9035 f8               CLC
0xfffff8a0018c9036 ff               DB 0xff
0xfffff8a0018c9037 ff               DB 0xff
------
ETHREAD: 0xfffffa80021b4b60 Pid: 1844 Tid: 896
Tags: 
Created: 2019-12-11 14:32:35 UTC+0000
Exited: 1970-01-01 00:00:00 UTC+0000
Owning Process: VBoxTray.exe
Attached Process: VBoxTray.exe
State: Waiting:UserRequest
BasePriority: 0xa
Priority: 0xa
TEB: 0x7fffffde000
StartAddress: 0x77cbc500 ntdll.dll
Win32Thread: 0xfffff900c1e4a4b0
CrossThreadFlags: PS_CROSS_THREAD_FLAGS_DEADTHREAD
0x77cbc500 4883ec48         SUB RSP, 0x48
0x77cbc504 4c8bc9           MOV R9, RCX
0x77cbc507 488b0552da1000   MOV RAX, [RIP+0x10da52]
0x77cbc50e 4885c0           TEST RAX, RAX
0x77cbc511 0f84e3840300     JZ 0x77cf49fa
0x77cbc517 4c               DB 0x4c
------
ETHREAD: 0xfffffa80022ab660 Pid: 720 Tid: 2740
Tags: 
Created: 2019-12-11 14:37:05 UTC+0000
Exited: 1970-01-01 00:00:00 UTC+0000
Owning Process: svchost.exe
Attached Process: svchost.exe
State: Waiting:WrQueue
BasePriority: 0x8
Priority: 0x8
TEB: 0x7fffffac000
StartAddress: 0x77cbc500 ntdll.dll
Win32Thread: 0x00000000
CrossThreadFlags: PS_CROSS_THREAD_FLAGS_DEADTHREAD
0x77cbc500 4883ec48         SUB RSP, 0x48
0x77cbc504 4c8bc9           MOV R9, RCX
0x77cbc507 488b0552da1000   MOV RAX, [RIP+0x10da52]
0x77cbc50e 4885c0           TEST RAX, RAX
0x77cbc511 0f84e3840300     JZ 0x77cf49fa
0x77cbc517 4c               DB 0x4c
------
ETHREAD: 0xfffffa8001e92310 Pid: 876 Tid: 1124
Tags: 
Created: 2019-12-11 13:41:49 UTC+0000
Exited: 2019-12-11 14:17:16 UTC+0000
Owning Process: svchost.exe
Attached Process: svchost.exe
State: Terminated
BasePriority: 0x8
Priority: 0x8
TEB: 0x00000000
StartAddress: 0x77cbc500 ntdll.dll
Win32Thread: 0x00000000
CrossThreadFlags: PS_CROSS_THREAD_FLAGS_DEADTHREAD, PS_CROSS_THREAD_FLAGS_TERMINATED
0x77cbc500 4883ec48         SUB RSP, 0x48
0x77cbc504 4c8bc9           MOV R9, RCX
0x77cbc507 488b0552da1000   MOV RAX, [RIP+0x10da52]
0x77cbc50e 4885c0           TEST RAX, RAX
0x77cbc511 0f84e3840300     JZ 0x77cf49fa
0x77cbc517 4c               DB 0x4c
------
ETHREAD: 0xfffffa8001cb1500 Pid: 492 Tid: 516
Tags: 
Created: 2019-12-11 13:41:36 UTC+0000
Exited: 1970-01-01 00:00:00 UTC+0000
Owning Process: lsass.exe
Attached Process: lsass.exe
State: Waiting:UserRequest
BasePriority: 0x9
Priority: 0xa
TEB: 0x7fffffd9000
StartAddress: 0x77cbc500 ntdll.dll
Win32Thread: 0x00000000
CrossThreadFlags: PS_CROSS_THREAD_FLAGS_DEADTHREAD
0x77cbc500 4883ec48         SUB RSP, 0x48
0x77cbc504 4c8bc9           MOV R9, RCX
0x77cbc507 488b0552da1000   MOV RAX, [RIP+0x10da52]
0x77cbc50e 4885c0           TEST RAX, RAX
0x77cbc511 0f84e3840300     JZ 0x77cf49fa
0x77cbc517 4c               DB 0x4c
------
ETHREAD: 0xfffffa8001d2b780 Pid: 652 Tid: 668
Tags: 
Created: 2019-12-11 13:41:41 UTC+0000
Exited: 1970-01-01 00:00:00 UTC+0000
Owning Process: VBoxService.ex
Attached Process: VBoxService.ex
State: Waiting:UserRequest
BasePriority: 0x8
Priority: 0x9
TEB: 0x7fffffd7000
StartAddress: 0x77cbc500 ntdll.dll
Win32Thread: 0x00000000
CrossThreadFlags: PS_CROSS_THREAD_FLAGS_DEADTHREAD
0x77cbc500 4883ec48         SUB RSP, 0x48
0x77cbc504 4c8bc9           MOV R9, RCX
0x77cbc507 488b0552da1000   MOV RAX, [RIP+0x10da52]
0x77cbc50e 4885c0           TEST RAX, RAX
0x77cbc511 0f84e3840300     JZ 0x77cf49fa
0x77cbc517 4c               DB 0x4c
------
ETHREAD: 0xfffffa8000fb5580 Pid: 2304 Tid: 1424
Tags: 
Created: 2019-12-11 14:37:14 UTC+0000
Exited: 1970-01-01 00:00:00 UTC+0000
Owning Process: VBoxTray.exe
Attached Process: VBoxTray.exe
State: Waiting:WrQueue
BasePriority: 0x8
Priority: 0x8
TEB: 0x7fffffa4000
StartAddress: 0x77cbc500 ntdll.dll
Win32Thread: 0xfffff900c00cfc30
CrossThreadFlags: PS_CROSS_THREAD_FLAGS_DEADTHREAD
0x77cbc500 4883ec48         SUB RSP, 0x48
0x77cbc504 4c8bc9           MOV R9, RCX
0x77cbc507 488b0552da1000   MOV RAX, [RIP+0x10da52]
0x77cbc50e 4885c0           TEST RAX, RAX
0x77cbc511 0f84e3840300     JZ 0x77cf49fa
0x77cbc517 4c               DB 0x4c
------
ETHREAD: 0xfffffa8001d66060 Pid: 500 Tid: 772
Tags: 
Created: 2019-12-11 13:41:41 UTC+0000
Exited: 1970-01-01 00:00:00 UTC+0000
Owning Process: lsm.exe
Attached Process: lsm.exe
State: Waiting:UserRequest
BasePriority: 0x8
Priority: 0x9
TEB: 0x7fffffac000
StartAddress: 0x77cbc500 ntdll.dll
Win32Thread: 0x00000000
CrossThreadFlags: PS_CROSS_THREAD_FLAGS_DEADTHREAD
0x77cbc500 4883ec48         SUB RSP, 0x48
0x77cbc504 4c8bc9           MOV R9, RCX
0x77cbc507 488b0552da1000   MOV RAX, [RIP+0x10da52]
0x77cbc50e 4885c0           TEST RAX, RAX
0x77cbc511 0f84e3840300     JZ 0x77cf49fa
0x77cbc517 4c               DB 0x4c
------
ETHREAD: 0xfffffa8001ebb040 Pid: 4 Tid: 1196
Tags: 
Created: 2019-12-11 13:41:51 UTC+0000
Exited: 1970-01-01 00:00:00 UTC+0000
Owning Process: System
Attached Process: System
State: Waiting:Executive
BasePriority: 0x8
Priority: 0x8
TEB: 0x00000000
StartAddress: 0xfffff8800247f010 HTTP.sys
Win32Thread: 0x00000000
CrossThreadFlags: PS_CROSS_THREAD_FLAGS_DEADTHREAD, PS_CROSS_THREAD_FLAGS_HARD_ERRORS_DISABLED
0xfffff8800247f010 48895c2410       MOV [RSP+0x10], RBX
0xfffff8800247f015 48896c2418       MOV [RSP+0x18], RBP
0xfffff8800247f01a 4889742420       MOV [RSP+0x20], RSI
0xfffff8800247f01f 57               PUSH RDI
0xfffff8800247f020 4154             PUSH R12
0xfffff8800247f022 4155             PUSH R13
0xfffff8800247f024 4156             PUSH R14
0xfffff8800247f026 4157             PUSH R15
------
ETHREAD: 0xfffffa80020c7060 Pid: 876 Tid: 1896
Tags: 
Created: 2019-12-11 13:42:03 UTC+0000
Exited: 1970-01-01 00:00:00 UTC+0000
Owning Process: svchost.exe
Attached Process: svchost.exe
State: Waiting:UserRequest
BasePriority: 0x9
Priority: 0xb
TEB: 0x7fffff68000
StartAddress: 0xfffff8a001929fc0 UNKNOWN
Win32Thread: 0xfffff900c1aca850
CrossThreadFlags: PS_CROSS_THREAD_FLAGS_DEADTHREAD
0xfffff8a001929fc0 e073             LOOPNZ 0xfffff8a00192a035
0xfffff8a001929fc2 0c02             OR AL, 0x2
0xfffff8a001929fc4 80faff           CMP DL, 0xff
0xfffff8a001929fc7 ffe0             JMP RAX
0xfffff8a001929fc9 730c             JAE 0xfffff8a001929fd7
0xfffff8a001929fcb 0280faffffd0     ADD AL, [RAX-0x2f000006]
0xfffff8a001929fd1 9f               LAHF
0xfffff8a001929fd2 92               XCHG EDX, EAX
0xfffff8a001929fd3 01               DB 0x1
0xfffff8a001929fd4 a0               DB 0xa0
0xfffff8a001929fd5 f8               CLC
0xfffff8a001929fd6 ff               DB 0xff
0xfffff8a001929fd7 ff               DB 0xff
------
ETHREAD: 0xfffffa8001028060 Pid: 2868 Tid: 1820
Tags: 
Created: 2019-12-11 14:37:23 UTC+0000
Exited: 1970-01-01 00:00:00 UTC+0000
Owning Process: SearchProtocol
Attached Process: SearchProtocol
State: Waiting:WrQueue
BasePriority: 0x4
Priority: 0x4
TEB: 0x7fffffd5000
StartAddress: 0x77cbc500 ntdll.dll
Win32Thread: 0xfffff900c1aebc30
CrossThreadFlags: PS_CROSS_THREAD_FLAGS_DEADTHREAD
0x77cbc500 4883ec48         SUB RSP, 0x48
0x77cbc504 4c8bc9           MOV R9, RCX
0x77cbc507 488b0552da1000   MOV RAX, [RIP+0x10da52]
0x77cbc50e 4885c0           TEST RAX, RAX
0x77cbc511 0f84e3840300     JZ 0x77cf49fa
0x77cbc517 4c               DB 0x4c
------
ETHREAD: 0xfffffa8001ced060 Pid: 1372 Tid: 1780
Tags: 
Created: 2019-12-11 14:16:09 UTC+0000
Exited: 1970-01-01 00:00:00 UTC+0000
Owning Process: svchost.exe
Attached Process: svchost.exe
State: Waiting:UserRequest
BasePriority: 0x8
Priority: 0x9
TEB: 0x7fffff9e000
StartAddress: 0x77cbc500 ntdll.dll
Win32Thread: 0x00000000
CrossThreadFlags: PS_CROSS_THREAD_FLAGS_DEADTHREAD
0x77cbc500 4883ec48         SUB RSP, 0x48
0x77cbc504 4c8bc9           MOV R9, RCX
0x77cbc507 488b0552da1000   MOV RAX, [RIP+0x10da52]
0x77cbc50e 4885c0           TEST RAX, RAX
0x77cbc511 0f84e3840300     JZ 0x77cf49fa
0x77cbc517 4c               DB 0x4c
------
ETHREAD: 0xfffffa8001e93240 Pid: 876 Tid: 1132
Tags: 
Created: 2019-12-11 13:41:50 UTC+0000
Exited: 1970-01-01 00:00:00 UTC+0000
Owning Process: svchost.exe
Attached Process: svchost.exe
State: Waiting:WrQueue
BasePriority: 0x8
Priority: 0x8
TEB: 0x7fffff9e000
StartAddress: 0xfffff8a0014612b0 UNKNOWN
Win32Thread: 0x00000000
CrossThreadFlags: PS_CROSS_THREAD_FLAGS_DEADTHREAD
0xfffff8a0014612b0 c035e90180faff   SAL BYTE [RIP-0x57ffe17], 0xff
0xfffff8a0014612b7 ff30             PUSH QWORD [RAX]
0xfffff8a0014612b9 5a               POP RDX
0xfffff8a0014612ba 9e               SAHF
0xfffff8a0014612bb 01a0f8ffffc0     ADD [RAX-0x3f000008], ESP
0xfffff8a0014612c1 124601           ADC AL, [RSI+0x1]
0xfffff8a0014612c4 a0               DB 0xa0
0xfffff8a0014612c5 f8               CLC
0xfffff8a0014612c6 ff               DB 0xff
0xfffff8a0014612c7 ff               DB 0xff
------
ETHREAD: 0xfffffa80020aba60 Pid: 500 Tid: 2004
Tags: 
Created: 2019-12-11 14:37:05 UTC+0000
Exited: 1970-01-01 00:00:00 UTC+0000
Owning Process: lsm.exe
Attached Process: lsm.exe
State: Waiting:WrQueue
BasePriority: 0x8
Priority: 0x8
TEB: 0x7fffffa2000
StartAddress: 0x77cbc500 ntdll.dll
Win32Thread: 0x00000000
CrossThreadFlags: PS_CROSS_THREAD_FLAGS_DEADTHREAD
0x77cbc500 4883ec48         SUB RSP, 0x48
0x77cbc504 4c8bc9           MOV R9, RCX
0x77cbc507 488b0552da1000   MOV RAX, [RIP+0x10da52]
0x77cbc50e 4885c0           TEST RAX, RAX
0x77cbc511 0f84e3840300     JZ 0x77cf49fa
0x77cbc517 4c               DB 0x4c
------
ETHREAD: 0xfffffa800104b060 Pid: 2260 Tid: 1732
Tags: 
Created: 2019-12-11 14:37:54 UTC+0000
Exited: 1970-01-01 00:00:00 UTC+0000
Owning Process: conhost.exe
Attached Process: conhost.exe
State: Waiting:WrLpcReceive
BasePriority: 0x8
Priority: 0xb
TEB: 0x7fffffdc000
StartAddress: 0x77cbc500 ntdll.dll
Win32Thread: 0xfffff900c1cf4c30
CrossThreadFlags: PS_CROSS_THREAD_FLAGS_DEADTHREAD
0x77cbc500 4883ec48         SUB RSP, 0x48
0x77cbc504 4c8bc9           MOV R9, RCX
0x77cbc507 488b0552da1000   MOV RAX, [RIP+0x10da52]
0x77cbc50e 4885c0           TEST RAX, RAX
0x77cbc511 0f84e3840300     JZ 0x77cf49fa
0x77cbc517 4c               DB 0x4c
------
ETHREAD: 0xfffffa800223dae0 Pid: 480 Tid: 2568
Tags: 
Created: 2019-12-11 14:36:31 UTC+0000
Exited: 1970-01-01 00:00:00 UTC+0000
Owning Process: SearchIndexer.
Attached Process: SearchIndexer.
State: Waiting:WrQueue
BasePriority: 0x8
Priority: 0x8
TEB: 0x7fffffd6000
StartAddress: 0x77cbc500 ntdll.dll
Win32Thread: 0xfffff900c1aec470
CrossThreadFlags: PS_CROSS_THREAD_FLAGS_DEADTHREAD
0x77cbc500 4883ec48         SUB RSP, 0x48
0x77cbc504 4c8bc9           MOV R9, RCX
0x77cbc507 488b0552da1000   MOV RAX, [RIP+0x10da52]
0x77cbc50e 4885c0           TEST RAX, RAX
0x77cbc511 0f84e3840300     JZ 0x77cf49fa
0x77cbc517 4c               DB 0x4c
------
ETHREAD: 0xfffffa800146b520 Pid: 4 Tid: 236
Tags: 
Created: 2019-12-11 13:41:25 UTC+0000
Exited: 1970-01-01 00:00:00 UTC+0000
Owning Process: System
Attached Process: System
State: Waiting:Executive
BasePriority: 0x8
Priority: 0x8
TEB: 0x00000000
StartAddress: 0xfffff8800119931c rdbss.sys
Win32Thread: 0x00000000
CrossThreadFlags: PS_CROSS_THREAD_FLAGS_DEADTHREAD
0xfffff8800119931c 48895c2408       MOV [RSP+0x8], RBX
0xfffff88001199321 48896c2410       MOV [RSP+0x10], RBP
0xfffff88001199326 4889742418       MOV [RSP+0x18], RSI
0xfffff8800119932b 57               PUSH RDI
0xfffff8800119932c 4154             PUSH R12
0xfffff8800119932e 4155             PUSH R13
0xfffff88001199330 4156             PUSH R14
0xfffff88001199332 4157             PUSH R15
------
ETHREAD: 0xfffffa8001e50630 Pid: 1044 Tid: 1048
Tags: 
Created: 2019-12-11 13:41:48 UTC+0000
Exited: 1970-01-01 00:00:00 UTC+0000
Owning Process: svchost.exe
Attached Process: svchost.exe
State: Waiting:UserRequest
BasePriority: 0x8
Priority: 0x9
TEB: 0x7fffffde000
StartAddress: 0x77cbc500 ntdll.dll
Win32Thread: 0xfffff900c1ab1c30
CrossThreadFlags: PS_CROSS_THREAD_FLAGS_DEADTHREAD
0x77cbc500 4883ec48         SUB RSP, 0x48
0x77cbc504 4c8bc9           MOV R9, RCX
0x77cbc507 488b0552da1000   MOV RAX, [RIP+0x10da52]
0x77cbc50e 4885c0           TEST RAX, RAX
0x77cbc511 0f84e3840300     JZ 0x77cf49fa
0x77cbc517 4c               DB 0x4c
------
ETHREAD: 0xfffffa80021e57d0 Pid: 2368 Tid: 2540
Tags: 
Created: 2019-12-11 14:36:58 UTC+0000
Exited: 2019-12-11 14:38:05 UTC+0000
Owning Process: svchost.exe
Attached Process: svchost.exe
State: Terminated
BasePriority: 0x8
Priority: 0x8
TEB: 0x00000000
StartAddress: 0x77cbc500 ntdll.dll
Win32Thread: 0x00000000
CrossThreadFlags: PS_CROSS_THREAD_FLAGS_DEADTHREAD, PS_CROSS_THREAD_FLAGS_TERMINATED
0x77cbc500 4883ec48         SUB RSP, 0x48
0x77cbc504 4c8bc9           MOV R9, RCX
0x77cbc507 488b0552da1000   MOV RAX, [RIP+0x10da52]
0x77cbc50e 4885c0           TEST RAX, RAX
0x77cbc511 0f84e3840300     JZ 0x77cf49fa
0x77cbc517 4c               DB 0x4c
------
ETHREAD: 0xfffffa8002074b60 Pid: 604 Tid: 2224
Tags: 
Created: 2019-12-11 14:32:41 UTC+0000
Exited: 1970-01-01 00:00:00 UTC+0000
Owning Process: explorer.exe
Attached Process: explorer.exe
State: Waiting:UserRequest
BasePriority: 0x8
Priority: 0xb
TEB: 0x7fffff96000
StartAddress: 0x77cbc500 ntdll.dll
Win32Thread: 0xfffff900c1ab2c30
CrossThreadFlags: PS_CROSS_THREAD_FLAGS_DEADTHREAD
0x77cbc500 4883ec48         SUB RSP, 0x48
0x77cbc504 4c8bc9           MOV R9, RCX
0x77cbc507 488b0552da1000   MOV RAX, [RIP+0x10da52]
0x77cbc50e 4885c0           TEST RAX, RAX
0x77cbc511 0f84e3840300     JZ 0x77cf49fa
0x77cbc517 4c               DB 0x4c
------
ETHREAD: 0xfffffa8001d30060 Pid: 652 Tid: 656
Tags: 
Created: 2019-12-11 13:41:40 UTC+0000
Exited: 1970-01-01 00:00:00 UTC+0000
Owning Process: VBoxService.ex
Attached Process: VBoxService.ex
State: Waiting:UserRequest
BasePriority: 0x8
Priority: 0x9
TEB: 0x7fffffdd000
StartAddress: 0xfffff8a0015445a0 UNKNOWN
Win32Thread: 0xfffff900c1a8fc30
CrossThreadFlags: PS_CROSS_THREAD_FLAGS_DEADTHREAD
0xfffff8a0015445a0 e003             LOOPNZ 0xfffff8a0015445a5
0xfffff8a0015445a2 d301             ROL DWORD [RCX], CL
0xfffff8a0015445a4 80faff           CMP DL, 0xff
0xfffff8a0015445a7 ffc0             INC EAX
0xfffff8a0015445a9 1f               DB 0x1f
0xfffff8a0015445aa 5a               POP RDX
0xfffff8a0015445ab 01a0f8ffffb0     ADD [RAX-0x4f000008], ESP
0xfffff8a0015445b1 4554             PUSH R12
0xfffff8a0015445b3 01               DB 0x1
0xfffff8a0015445b4 a0               DB 0xa0
0xfffff8a0015445b5 f8               CLC
0xfffff8a0015445b6 ff               DB 0xff
0xfffff8a0015445b7 ff               DB 0xff
------
ETHREAD: 0xfffffa8000cc3b60 Pid: 4 Tid: 112
Tags: 
Created: 2019-12-11 13:41:22 UTC+0000
Exited: 1970-01-01 00:00:00 UTC+0000
Owning Process: System
Attached Process: System
State: Waiting:WrQueue
BasePriority: 0x8
Priority: 0x11
TEB: 0x00000000
StartAddress: 0xfffff800027add30 ntoskrnl.exe
Win32Thread: 0x00000000
CrossThreadFlags: PS_CROSS_THREAD_FLAGS_DEADTHREAD
0xfffff800027add30 48895c2410       MOV [RSP+0x10], RBX
0xfffff800027add35 57               PUSH RDI
0xfffff800027add36 4883ec30         SUB RSP, 0x30
0xfffff800027add3a 8bf9             MOV EDI, ECX
0xfffff800027add3c 8d5110           LEA EDX, [RCX+0x10]
0xfffff800027add3f 65488b0c2588010000 MOV RCX, [GS:0x188]
------
ETHREAD: 0xfffffa80021c4b60 Pid: 604 Tid: 1796
Tags: 
Created: 2019-12-11 14:32:35 UTC+0000
Exited: 1970-01-01 00:00:00 UTC+0000
Owning Process: explorer.exe
Attached Process: explorer.exe
State: Waiting:UserRequest
BasePriority: 0x8
Priority: 0xb
TEB: 0x7fffffa2000
StartAddress: 0xfffffa80021c4ee0 UNKNOWN
Win32Thread: 0xfffff900c1e4c6b0
CrossThreadFlags: PS_CROSS_THREAD_FLAGS_DEADTHREAD
0xfffffa80021c4ee0 e04e             LOOPNZ 0xfffffa80021c4f30
0xfffffa80021c4ee2 1c02             SBB AL, 0x2
0xfffffa80021c4ee4 80faff           CMP DL, 0xff
0xfffffa80021c4ee7 ffe0             JMP RAX
0xfffffa80021c4ee9 4e1c02           SBB AL, 0x2
0xfffffa80021c4eec 80faff           CMP DL, 0xff
0xfffffa80021c4eef ff00             INC DWORD [RAX]
0xfffffa80021c4ef1 0000             ADD [RAX], AL
0xfffffa80021c4ef3 0000             ADD [RAX], AL
0xfffffa80021c4ef5 0000             ADD [RAX], AL
0xfffffa80021c4ef7 00               DB 0x0
------
ETHREAD: 0xfffffa8000f53060 Pid: 2908 Tid: 3012
Tags: 
Created: 2019-12-11 14:37:14 UTC+0000
Exited: 1970-01-01 00:00:00 UTC+0000
Owning Process: taskhost.exe
Attached Process: taskhost.exe
State: Waiting:WrQueue
BasePriority: 0x8
Priority: 0x8
TEB: 0x7fffffd5000
StartAddress: 0x77cbc500 ntdll.dll
Win32Thread: 0xfffff900c227f500
CrossThreadFlags: PS_CROSS_THREAD_FLAGS_DEADTHREAD
0x77cbc500 4883ec48         SUB RSP, 0x48
0x77cbc504 4c8bc9           MOV R9, RCX
0x77cbc507 488b0552da1000   MOV RAX, [RIP+0x10da52]
0x77cbc50e 4885c0           TEST RAX, RAX
0x77cbc511 0f84e3840300     JZ 0x77cf49fa
0x77cbc517 4c               DB 0x4c
------
ETHREAD: 0x3fb507f0 Pid: 604 Tid: 2952
Tags: ScannerOnly
Created: 2019-12-11 14:37:42 UTC+0000
Exited: 1970-01-01 00:00:00 UTC+0000
Owning Process: explorer.exe
Attached Process: explorer.exe
State: Waiting:WrQueue
BasePriority: 0x8
Priority: 0xa
TEB: 0x7fffff7e000
StartAddress: 0x77cbc500 ntdll.dll
Win32Thread: 0xfffff900c1e60c30
CrossThreadFlags: PS_CROSS_THREAD_FLAGS_DEADTHREAD
0x77cbc500 4883ec48         SUB RSP, 0x48
0x77cbc504 4c8bc9           MOV R9, RCX
0x77cbc507 488b0552da1000   MOV RAX, [RIP+0x10da52]
0x77cbc50e 4885c0           TEST RAX, RAX
0x77cbc511 0f84e3840300     JZ 0x77cf49fa
0x77cbc517 4c               DB 0x4c
------
ETHREAD: 0xfffffa80021ee060 Pid: 1844 Tid: 2164
Tags: 
Created: 2019-12-11 14:32:37 UTC+0000
Exited: 1970-01-01 00:00:00 UTC+0000
Owning Process: VBoxTray.exe
Attached Process: VBoxTray.exe
State: Waiting:WrUserRequest
BasePriority: 0x9
Priority: 0xb
TEB: 0x7fffffa6000
StartAddress: 0x77cbc500 ntdll.dll
Win32Thread: 0xfffff900c1e5ec30
CrossThreadFlags: PS_CROSS_THREAD_FLAGS_DEADTHREAD
0x77cbc500 4883ec48         SUB RSP, 0x48
0x77cbc504 4c8bc9           MOV R9, RCX
0x77cbc507 488b0552da1000   MOV RAX, [RIP+0x10da52]
0x77cbc50e 4885c0           TEST RAX, RAX
0x77cbc511 0f84e3840300     JZ 0x77cf49fa
0x77cbc517 4c               DB 0x4c
------
ETHREAD: 0xfffffa8001daa2f0 Pid: 876 Tid: 888
Tags: 
Created: 2019-12-11 13:41:43 UTC+0000
Exited: 2019-12-11 14:15:25 UTC+0000
Owning Process: svchost.exe
Attached Process: svchost.exe
State: Terminated
BasePriority: 0x8
Priority: 0x8
TEB: 0x00000000
StartAddress: 0x77cbc500 ntdll.dll
Win32Thread: 0x00000000
CrossThreadFlags: PS_CROSS_THREAD_FLAGS_DEADTHREAD, PS_CROSS_THREAD_FLAGS_TERMINATED
0x77cbc500 4883ec48         SUB RSP, 0x48
0x77cbc504 4c8bc9           MOV R9, RCX
0x77cbc507 488b0552da1000   MOV RAX, [RIP+0x10da52]
0x77cbc50e 4885c0           TEST RAX, RAX
0x77cbc511 0f84e3840300     JZ 0x77cf49fa
0x77cbc517 4c               DB 0x4c
------
ETHREAD: 0xfffffa8000d35060 Pid: 1208 Tid: 1396
Tags: 
Created: 2019-12-11 14:15:59 UTC+0000
Exited: 1970-01-01 00:00:00 UTC+0000
Owning Process: spoolsv.exe
Attached Process: spoolsv.exe
State: Waiting:UserRequest
BasePriority: 0x8
Priority: 0x9
TEB: 0x7fffff9e000
StartAddress: 0x77cbc500 ntdll.dll
Win32Thread: 0x00000000
CrossThreadFlags: PS_CROSS_THREAD_FLAGS_DEADTHREAD
0x77cbc500 4883ec48         SUB RSP, 0x48
0x77cbc504 4c8bc9           MOV R9, RCX
0x77cbc507 488b0552da1000   MOV RAX, [RIP+0x10da52]
0x77cbc50e 4885c0           TEST RAX, RAX
0x77cbc511 0f84e3840300     JZ 0x77cf49fa
0x77cbc517 4c               DB 0x4c
------
ETHREAD: 0xfffffa8000f47740 Pid: 852 Tid: 2440
Tags: 
Created: 2019-12-11 14:37:13 UTC+0000
Exited: 1970-01-01 00:00:00 UTC+0000
Owning Process: svchost.exe
Attached Process: svchost.exe
State: Waiting:WrQueue
BasePriority: 0x8
Priority: 0x8
TEB: 0x7fffffd8000
StartAddress: 0x77cbc500 ntdll.dll
Win32Thread: 0xfffff900c1ae3c30
CrossThreadFlags: PS_CROSS_THREAD_FLAGS_DEADTHREAD
0x77cbc500 4883ec48         SUB RSP, 0x48
0x77cbc504 4c8bc9           MOV R9, RCX
0x77cbc507 488b0552da1000   MOV RAX, [RIP+0x10da52]
0x77cbc50e 4885c0           TEST RAX, RAX
0x77cbc511 0f84e3840300     JZ 0x77cf49fa
0x77cbc517 4c               DB 0x4c
------
ETHREAD: 0xfffffa8001cec0e0 Pid: 1372 Tid: 1784
Tags: 
Created: 2019-12-11 14:16:09 UTC+0000
Exited: 1970-01-01 00:00:00 UTC+0000
Owning Process: svchost.exe
Attached Process: svchost.exe
State: Waiting:UserRequest
BasePriority: 0x8
Priority: 0x9
TEB: 0x7fffffa0000
StartAddress: 0x77cbc500 ntdll.dll
Win32Thread: 0x00000000
CrossThreadFlags: PS_CROSS_THREAD_FLAGS_DEADTHREAD
0x77cbc500 4883ec48         SUB RSP, 0x48
0x77cbc504 4c8bc9           MOV R9, RCX
0x77cbc507 488b0552da1000   MOV RAX, [RIP+0x10da52]
0x77cbc50e 4885c0           TEST RAX, RAX
0x77cbc511 0f84e3840300     JZ 0x77cf49fa
0x77cbc517 4c               DB 0x4c
------
ETHREAD: 0xfffffa8001fa4060 Pid: 472 Tid: 1764
Tags: 
Created: 2019-12-11 13:42:00 UTC+0000
Exited: 1970-01-01 00:00:00 UTC+0000
Owning Process: svchost.exe
Attached Process: svchost.exe
State: Waiting:UserRequest
BasePriority: 0x8
Priority: 0x8
TEB: 0x7fffff9c000
StartAddress: 0x77cbc500 ntdll.dll
Win32Thread: 0x00000000
CrossThreadFlags: PS_CROSS_THREAD_FLAGS_DEADTHREAD
0x77cbc500 4883ec48         SUB RSP, 0x48
0x77cbc504 4c8bc9           MOV R9, RCX
0x77cbc507 488b0552da1000   MOV RAX, [RIP+0x10da52]
0x77cbc50e 4885c0           TEST RAX, RAX
0x77cbc511 0f84e3840300     JZ 0x77cf49fa
0x77cbc517 4c               DB 0x4c
------
ETHREAD: 0x3fb4eb60 Pid: 1988 Tid: 2972
Tags: ScannerOnly
Created: 2019-12-11 14:37:35 UTC+0000
Exited: 1970-01-01 00:00:00 UTC+0000
Owning Process: dwm.exe
Attached Process: dwm.exe
State: Waiting:WrQueue
BasePriority: 0x8
Priority: 0x8
TEB: 0x7fffffd6000
StartAddress: 0x77cbc500 ntdll.dll
Win32Thread: 0x00000000
CrossThreadFlags: PS_CROSS_THREAD_FLAGS_DEADTHREAD
0x77cbc500 4883ec48         SUB RSP, 0x48
0x77cbc504 4c8bc9           MOV R9, RCX
0x77cbc507 488b0552da1000   MOV RAX, [RIP+0x10da52]
0x77cbc50e 4885c0           TEST RAX, RAX
0x77cbc511 0f84e3840300     JZ 0x77cf49fa
0x77cbc517 4c               DB 0x4c
------
ETHREAD: 0xfffffa80022a9b60 Pid: 852 Tid: 2756
Tags: 
Created: 2019-12-11 14:33:13 UTC+0000
Exited: 1970-01-01 00:00:00 UTC+0000
Owning Process: svchost.exe
Attached Process: svchost.exe
State: Waiting:UserRequest
BasePriority: 0x8
Priority: 0x8
TEB: 0x7fffff82000
StartAddress: 0xfffff8a001f271f0 UNKNOWN
Win32Thread: 0x00000000
CrossThreadFlags: PS_CROSS_THREAD_FLAGS_DEADTHREAD
0xfffff8a001f271f0 e09e             LOOPNZ 0xfffff8a001f27190
0xfffff8a001f271f2 2a02             SUB AL, [RDX]
0xfffff8a001f271f4 80faff           CMP DL, 0xff
0xfffff8a001f271f7 fff0             PUSH RAX
0xfffff8a001f271f9 8a0f             MOV CL, [RDI]
0xfffff8a001f271fb 02a0f8ffff00     ADD AH, [RAX+0xfffff8]
0xfffff8a001f27201 72f2             JB 0xfffff8a001f271f5
0xfffff8a001f27203 01               DB 0x1
0xfffff8a001f27204 a0               DB 0xa0
0xfffff8a001f27205 f8               CLC
0xfffff8a001f27206 ff               DB 0xff
0xfffff8a001f27207 ff               DB 0xff
------
ETHREAD: 0xfffffa8001e38060 Pid: 472 Tid: 984
Tags: 
Created: 2019-12-11 13:41:47 UTC+0000
Exited: 1970-01-01 00:00:00 UTC+0000
Owning Process: svchost.exe
Attached Process: svchost.exe
State: Waiting:WrQueue
BasePriority: 0x8
Priority: 0x8
TEB: 0x7fffffac000
StartAddress: 0xfffff8a00177c0d0 UNKNOWN
Win32Thread: 0x00000000
CrossThreadFlags: PS_CROSS_THREAD_FLAGS_DEADTHREAD
0xfffff8a00177c0d0 e083             LOOPNZ 0xfffff8a00177c055
0xfffff8a00177c0d2 e301             JRCXZ 0xfffff8a00177c0d5
0xfffff8a00177c0d4 80faff           CMP DL, 0xff
0xfffff8a00177c0d7 ff20             JMP QWORD [RAX]
0xfffff8a00177c0d9 bcfb01a0f8       MOV ESP, 0xf8a001fb
0xfffff8a00177c0de ff               DB 0xff
0xfffff8a00177c0df ffe0             JMP RAX
0xfffff8a00177c0e1 c07701a0         SAL BYTE [RDI+0x1], 0xa0
0xfffff8a00177c0e5 f8               CLC
0xfffff8a00177c0e6 ff               DB 0xff
0xfffff8a00177c0e7 ff               DB 0xff
------
ETHREAD: 0xfffffa8000d7d660 Pid: 484 Tid: 544
Tags: 
Created: 2019-12-11 13:41:39 UTC+0000
Exited: 1970-01-01 00:00:00 UTC+0000
Owning Process: services.exe
Attached Process: services.exe
State: Waiting:UserRequest
BasePriority: 0x9
Priority: 0x9
TEB: 0x7fffffdc000
StartAddress: 0x77cbc500 ntdll.dll
Win32Thread: 0x00000000
CrossThreadFlags: PS_CROSS_THREAD_FLAGS_DEADTHREAD
0x77cbc500 4883ec48         SUB RSP, 0x48
0x77cbc504 4c8bc9           MOV R9, RCX
0x77cbc507 488b0552da1000   MOV RAX, [RIP+0x10da52]
0x77cbc50e 4885c0           TEST RAX, RAX
0x77cbc511 0f84e3840300     JZ 0x77cf49fa
0x77cbc517 4c               DB 0x4c
------
ETHREAD: 0xfffffa80021eb550 Pid: 876 Tid: 2148
Tags: 
Created: 2019-12-11 14:32:37 UTC+0000
Exited: 1970-01-01 00:00:00 UTC+0000
Owning Process: svchost.exe
Attached Process: svchost.exe
State: Waiting:UserRequest
BasePriority: 0x8
Priority: 0x9
TEB: 0x7fffff90000
StartAddress: 0x77cbc500 ntdll.dll
Win32Thread: 0x00000000
CrossThreadFlags: PS_CROSS_THREAD_FLAGS_DEADTHREAD
0x77cbc500 4883ec48         SUB RSP, 0x48
0x77cbc504 4c8bc9           MOV R9, RCX
0x77cbc507 488b0552da1000   MOV RAX, [RIP+0x10da52]
0x77cbc50e 4885c0           TEST RAX, RAX
0x77cbc511 0f84e3840300     JZ 0x77cf49fa
0x77cbc517 4c               DB 0x4c
------
ETHREAD: 0xfffffa8000fb8670 Pid: 2504 Tid: 1992
Tags: 
Created: 2019-12-11 14:37:19 UTC+0000
Exited: 1970-01-01 00:00:00 UTC+0000
Owning Process: explorer.exe
Attached Process: explorer.exe
State: Waiting:UserRequest
BasePriority: 0x8
Priority: 0xb
TEB: 0x7fffff8c000
StartAddress: 0xfffff8a001851840 UNKNOWN
Win32Thread: 0xfffff900c22d0c30
CrossThreadFlags: PS_CROSS_THREAD_FLAGS_DEADTHREAD
0xfffff8a001851840 f089fb           MOV EBX, EDI
0xfffff8a001851843 0080fafffff0     ADD [RAX-0xf000006], AL
0xfffff8a001851849 cafe01           RETF 0x1fe
0xfffff8a00185184c a0f8ffff50188501a0 MOV AL, [0xa001851850fffff8]
0xfffff8a001851855 f8               CLC
0xfffff8a001851856 ff               DB 0xff
0xfffff8a001851857 ff               DB 0xff
------
ETHREAD: 0xfffffa8001e3d390 Pid: 852 Tid: 988
Tags: 
Created: 2019-12-11 13:41:48 UTC+0000
Exited: 1970-01-01 00:00:00 UTC+0000
Owning Process: svchost.exe
Attached Process: svchost.exe
State: Waiting:WrLpcReceive
BasePriority: 0x8
Priority: 0xa
TEB: 0x7fffff96000
StartAddress: 0x77cbc500 ntdll.dll
Win32Thread: 0x00000000
CrossThreadFlags: PS_CROSS_THREAD_FLAGS_DEADTHREAD
0x77cbc500 4883ec48         SUB RSP, 0x48
0x77cbc504 4c8bc9           MOV R9, RCX
0x77cbc507 488b0552da1000   MOV RAX, [RIP+0x10da52]
0x77cbc50e 4885c0           TEST RAX, RAX
0x77cbc511 0f84e3840300     JZ 0x77cf49fa
0x77cbc517 4c               DB 0x4c
------
ETHREAD: 0xfffffa8001dbd060 Pid: 1856 Tid: 952
Tags: 
Created: 2019-12-11 14:16:10 UTC+0000
Exited: 1970-01-01 00:00:00 UTC+0000
Owning Process: wmpnetwk.exe
Attached Process: wmpnetwk.exe
State: Waiting:UserRequest
BasePriority: 0x8
Priority: 0x8
TEB: 0x7fffffa2000
StartAddress: 0x77cbc500 ntdll.dll
Win32Thread: 0xfffff900c1ad8c30
CrossThreadFlags: PS_CROSS_THREAD_FLAGS_DEADTHREAD
0x77cbc500 4883ec48         SUB RSP, 0x48
0x77cbc504 4c8bc9           MOV R9, RCX
0x77cbc507 488b0552da1000   MOV RAX, [RIP+0x10da52]
0x77cbc50e 4885c0           TEST RAX, RAX
0x77cbc511 0f84e3840300     JZ 0x77cf49fa
0x77cbc517 4c               DB 0x4c
------
ETHREAD: 0xfffffa8001008a60 Pid: 1720 Tid: 2008
Tags: 
Created: 2019-12-11 14:37:21 UTC+0000
Exited: 1970-01-01 00:00:00 UTC+0000
Owning Process: SearchFilterHo
Attached Process: SearchFilterHo
State: Waiting:DelayExecution
BasePriority: 0x4
Priority: 0x4
TEB: 0x7fffffd5000
StartAddress: 0x77cbc500 ntdll.dll
Win32Thread: 0xfffff900c1aac850
CrossThreadFlags: PS_CROSS_THREAD_FLAGS_DEADTHREAD
0x77cbc500 4883ec48         SUB RSP, 0x48
0x77cbc504 4c8bc9           MOV R9, RCX
0x77cbc507 488b0552da1000   MOV RAX, [RIP+0x10da52]
0x77cbc50e 4885c0           TEST RAX, RAX
0x77cbc511 0f84e3840300     JZ 0x77cf49fa
0x77cbc517 4c               DB 0x4c
------
ETHREAD: 0xfffffa8000fb1b60 Pid: 2304 Tid: 2560
Tags: 
Created: 2019-12-11 14:37:14 UTC+0000
Exited: 1970-01-01 00:00:00 UTC+0000
Owning Process: VBoxTray.exe
Attached Process: VBoxTray.exe
State: Waiting:Executive
BasePriority: 0x8
Priority: 0x8
TEB: 0x7fffffae000
StartAddress: 0x77cbc500 ntdll.dll
Win32Thread: 0xfffff900c226d4f0
CrossThreadFlags: PS_CROSS_THREAD_FLAGS_DEADTHREAD
0x77cbc500 4883ec48         SUB RSP, 0x48
0x77cbc504 4c8bc9           MOV R9, RCX
0x77cbc507 488b0552da1000   MOV RAX, [RIP+0x10da52]
0x77cbc50e 4885c0           TEST RAX, RAX
0x77cbc511 0f84e3840300     JZ 0x77cf49fa
0x77cbc517 4c               DB 0x4c
------
ETHREAD: 0x3faf2060 Pid: 604 Tid: 2072
Tags: ScannerOnly
Created: 2019-12-11 14:37:52 UTC+0000
Exited: 1970-01-01 00:00:00 UTC+0000
Owning Process: explorer.exe
Attached Process: explorer.exe
State: Waiting:WrQueue
BasePriority: 0x8
Priority: 0xa
TEB: 0x7fffff72000
StartAddress: 0x77cbc500 ntdll.dll
Win32Thread: 0x00000000
CrossThreadFlags: PS_CROSS_THREAD_FLAGS_DEADTHREAD
0x77cbc500 4883ec48         SUB RSP, 0x48
0x77cbc504 4c8bc9           MOV R9, RCX
0x77cbc507 488b0552da1000   MOV RAX, [RIP+0x10da52]
0x77cbc50e 4885c0           TEST RAX, RAX
0x77cbc511 0f84e3840300     JZ 0x77cf49fa
0x77cbc517 4c               DB 0x4c
------
ETHREAD: 0xfffffa8001f0c570 Pid: 876 Tid: 1184
Tags: 
Created: 2019-12-11 14:17:04 UTC+0000
Exited: 2019-12-11 14:32:09 UTC+0000
Owning Process: svchost.exe
Attached Process: svchost.exe
State: Terminated
BasePriority: 0x8
Priority: 0x8
TEB: 0x00000000
StartAddress: 0x77cbc500 ntdll.dll
Win32Thread: 0x00000000
CrossThreadFlags: PS_CROSS_THREAD_FLAGS_DEADTHREAD, PS_CROSS_THREAD_FLAGS_TERMINATED
0x77cbc500 4883ec48         SUB RSP, 0x48
0x77cbc504 4c8bc9           MOV R9, RCX
0x77cbc507 488b0552da1000   MOV RAX, [RIP+0x10da52]
0x77cbc50e 4885c0           TEST RAX, RAX
0x77cbc511 0f84e3840300     JZ 0x77cf49fa
0x77cbc517 4c               DB 0x4c
------
ETHREAD: 0xfffffa8001c969f0 Pid: 424 Tid: 476
Tags: 
Created: 2019-12-11 13:41:35 UTC+0000
Exited: 1970-01-01 00:00:00 UTC+0000
Owning Process: wininit.exe
Attached Process: wininit.exe
State: Waiting:UserRequest
BasePriority: 0xd
Priority: 0xd
TEB: 0x7fffffd5000
StartAddress: 0x77cbc500 ntdll.dll
Win32Thread: 0x00000000
CrossThreadFlags: PS_CROSS_THREAD_FLAGS_DEADTHREAD
0x77cbc500 4883ec48         SUB RSP, 0x48
0x77cbc504 4c8bc9           MOV R9, RCX
0x77cbc507 488b0552da1000   MOV RAX, [RIP+0x10da52]
0x77cbc50e 4885c0           TEST RAX, RAX
0x77cbc511 0f84e3840300     JZ 0x77cf49fa
0x77cbc517 4c               DB 0x4c
------
ETHREAD: 0xfffffa8001dbc660 Pid: 852 Tid: 1776
Tags: 
Created: 2019-12-11 14:32:24 UTC+0000
Exited: 2019-12-11 14:32:24 UTC+0000
Owning Process: svchost.exe
Attached Process: svchost.exe
State: Terminated
BasePriority: 0x8
Priority: 0x9
TEB: 0x00000000
StartAddress: 0x77cbc500 ntdll.dll
Win32Thread: 0x00000000
CrossThreadFlags: PS_CROSS_THREAD_FLAGS_DEADTHREAD, PS_CROSS_THREAD_FLAGS_TERMINATED
0x77cbc500 4883ec48         SUB RSP, 0x48
0x77cbc504 4c8bc9           MOV R9, RCX
0x77cbc507 488b0552da1000   MOV RAX, [RIP+0x10da52]
0x77cbc50e 4885c0           TEST RAX, RAX
0x77cbc511 0f84e3840300     JZ 0x77cf49fa
0x77cbc517 4c               DB 0x4c
------
ETHREAD: 0xfffffa8001d63060 Pid: 500 Tid: 760
Tags: 
Created: 2019-12-11 13:41:41 UTC+0000
Exited: 1970-01-01 00:00:00 UTC+0000
Owning Process: lsm.exe
Attached Process: lsm.exe
State: Waiting:WrLpcReceive
BasePriority: 0x8
Priority: 0x9
TEB: 0x7fffffd6000
StartAddress: 0x77cbc500 ntdll.dll
Win32Thread: 0x00000000
CrossThreadFlags: PS_CROSS_THREAD_FLAGS_DEADTHREAD
0x77cbc500 4883ec48         SUB RSP, 0x48
0x77cbc504 4c8bc9           MOV R9, RCX
0x77cbc507 488b0552da1000   MOV RAX, [RIP+0x10da52]
0x77cbc50e 4885c0           TEST RAX, RAX
0x77cbc511 0f84e3840300     JZ 0x77cf49fa
0x77cbc517 4c               DB 0x4c
------
ETHREAD: 0xfffffa8000cb6b60 Pid: 4 Tid: 28
Tags: 
Created: 2019-12-11 13:41:22 UTC+0000
Exited: 1970-01-01 00:00:00 UTC+0000
Owning Process: System
Attached Process: System
State: Waiting:WrQueue
BasePriority: 0xd
Priority: 0xd
TEB: 0x00000000
StartAddress: 0xfffff800026a9910 ntoskrnl.exe
Win32Thread: 0x00000000
CrossThreadFlags: PS_CROSS_THREAD_FLAGS_DEADTHREAD
0xfffff800026a9910 4c8bdc           MOV R11, RSP
0xfffff800026a9913 49895b10         MOV [R11+0x10], RBX
0xfffff800026a9917 49896b18         MOV [R11+0x18], RBP
0xfffff800026a991b 49897320         MOV [R11+0x20], RSI
0xfffff800026a991f 57               PUSH RDI
0xfffff800026a9920 4154             PUSH R12
0xfffff800026a9922 4155             PUSH R13
0xfffff800026a9924 4156             PUSH R14
0xfffff800026a9926 4157             PUSH R15
------
ETHREAD: 0xfffffa8001cc4060 Pid: 492 Tid: 520
Tags: 
Created: 2019-12-11 13:41:37 UTC+0000
Exited: 1970-01-01 00:00:00 UTC+0000
Owning Process: lsass.exe
Attached Process: lsass.exe
State: Waiting:UserRequest
BasePriority: 0x9
Priority: 0x9
TEB: 0x7fffffd7000
StartAddress: 0x77cbc500 ntdll.dll
Win32Thread: 0x00000000
CrossThreadFlags: PS_CROSS_THREAD_FLAGS_DEADTHREAD
0x77cbc500 4883ec48         SUB RSP, 0x48
0x77cbc504 4c8bc9           MOV R9, RCX
0x77cbc507 488b0552da1000   MOV RAX, [RIP+0x10da52]
0x77cbc50e 4885c0           TEST RAX, RAX
0x77cbc511 0f84e3840300     JZ 0x77cf49fa
0x77cbc517 4c               DB 0x4c
------
ETHREAD: 0xfffffa8001d01580 Pid: 588 Tid: 612
Tags: 
Created: 2019-12-11 13:41:39 UTC+0000
Exited: 2019-12-11 13:41:47 UTC+0000
Owning Process: svchost.exe
Attached Process: svchost.exe
State: Terminated
BasePriority: 0x8
Priority: 0x9
TEB: 0x00000000
StartAddress: 0x77cbc500 ntdll.dll
Win32Thread: 0x00000000
CrossThreadFlags: PS_CROSS_THREAD_FLAGS_DEADTHREAD, PS_CROSS_THREAD_FLAGS_TERMINATED
0x77cbc500 4883ec48         SUB RSP, 0x48
0x77cbc504 4c8bc9           MOV R9, RCX
0x77cbc507 488b0552da1000   MOV RAX, [RIP+0x10da52]
0x77cbc50e 4885c0           TEST RAX, RAX
0x77cbc511 0f84e3840300     JZ 0x77cf49fa
0x77cbc517 4c               DB 0x4c
------
ETHREAD: 0xfffffa8002241a40 Pid: 852 Tid: 2460
Tags: 
Created: 2019-12-11 14:32:52 UTC+0000
Exited: 1970-01-01 00:00:00 UTC+0000
Owning Process: svchost.exe
Attached Process: svchost.exe
State: Waiting:UserRequest
BasePriority: 0x8
Priority: 0x9
TEB: 0x7fffff8c000
StartAddress: 0x77cbc500 ntdll.dll
Win32Thread: 0xfffff900c1ae8850
CrossThreadFlags: PS_CROSS_THREAD_FLAGS_DEADTHREAD
0x77cbc500 4883ec48         SUB RSP, 0x48
0x77cbc504 4c8bc9           MOV R9, RCX
0x77cbc507 488b0552da1000   MOV RAX, [RIP+0x10da52]
0x77cbc50e 4885c0           TEST RAX, RAX
0x77cbc511 0f84e3840300     JZ 0x77cf49fa
0x77cbc517 4c               DB 0x4c
------
ETHREAD: 0xfffffa8001e25060 Pid: 472 Tid: 292
Tags: 
Created: 2019-12-11 13:41:47 UTC+0000
Exited: 1970-01-01 00:00:00 UTC+0000
Owning Process: svchost.exe
Attached Process: svchost.exe
State: Waiting:UserRequest
BasePriority: 0x8
Priority: 0xa
TEB: 0x7fffffdc000
StartAddress: 0x77cbc500 ntdll.dll
Win32Thread: 0x00000000
CrossThreadFlags: PS_CROSS_THREAD_FLAGS_DEADTHREAD
0x77cbc500 4883ec48         SUB RSP, 0x48
0x77cbc504 4c8bc9           MOV R9, RCX
0x77cbc507 488b0552da1000   MOV RAX, [RIP+0x10da52]
0x77cbc50e 4885c0           TEST RAX, RAX
0x77cbc511 0f84e3840300     JZ 0x77cf49fa
0x77cbc517 4c               DB 0x4c
------
ETHREAD: 0xfffffa80021f7b60 Pid: 852 Tid: 2256
Tags: 
Created: 2019-12-11 14:32:46 UTC+0000
Exited: 1970-01-01 00:00:00 UTC+0000
Owning Process: svchost.exe
Attached Process: svchost.exe
State: Waiting:DelayExecution
BasePriority: 0x8
Priority: 0x9
TEB: 0x7fffffa0000
StartAddress: 0x77cbc500 ntdll.dll
Win32Thread: 0x00000000
CrossThreadFlags: PS_CROSS_THREAD_FLAGS_DEADTHREAD
0x77cbc500 4883ec48         SUB RSP, 0x48
0x77cbc504 4c8bc9           MOV R9, RCX
0x77cbc507 488b0552da1000   MOV RAX, [RIP+0x10da52]
0x77cbc50e 4885c0           TEST RAX, RAX
0x77cbc511 0f84e3840300     JZ 0x77cf49fa
0x77cbc517 4c               DB 0x4c
------
ETHREAD: 0xfffffa8000cbd040 Pid: 4 Tid: 80
Tags: 
Created: 2019-12-11 13:41:22 UTC+0000
Exited: 1970-01-01 00:00:00 UTC+0000
Owning Process: System
Attached Process: System
State: Waiting:Suspended
BasePriority: 0x8
Priority: 0x1f
TEB: 0x00000000
StartAddress: 0xfffff8000265e10c ntoskrnl.exe
Win32Thread: 0x00000000
CrossThreadFlags: PS_CROSS_THREAD_FLAGS_DEADTHREAD
0xfffff8000265e10c 48895c2410       MOV [RSP+0x10], RBX
0xfffff8000265e111 48896c2418       MOV [RSP+0x18], RBP
0xfffff8000265e116 4889742420       MOV [RSP+0x20], RSI
0xfffff8000265e11b 57               PUSH RDI
0xfffff8000265e11c 4883ec40         SUB RSP, 0x40
0xfffff8000265e120 48               DB 0x48
0xfffff8000265e121 8b               DB 0x8b
0xfffff8000265e122 05               DB 0x5
0xfffff8000265e123 b9               DB 0xb9
------
ETHREAD: 0xfffffa8001ee7060 Pid: 1248 Tid: 1256
Tags: 
Created: 2019-12-11 13:41:52 UTC+0000
Exited: 1970-01-01 00:00:00 UTC+0000
Owning Process: svchost.exe
Attached Process: svchost.exe
State: Waiting:UserRequest
BasePriority: 0x8
Priority: 0x8
TEB: 0x7fffffdc000
StartAddress: 0x77cbc500 ntdll.dll
Win32Thread: 0x00000000
CrossThreadFlags: PS_CROSS_THREAD_FLAGS_DEADTHREAD
0x77cbc500 4883ec48         SUB RSP, 0x48
0x77cbc504 4c8bc9           MOV R9, RCX
0x77cbc507 488b0552da1000   MOV RAX, [RIP+0x10da52]
0x77cbc50e 4885c0           TEST RAX, RAX
0x77cbc511 0f84e3840300     JZ 0x77cf49fa
0x77cbc517 4c               DB 0x4c
------
ETHREAD: 0xfffffa8001cb9b60 Pid: 1372 Tid: 1884
Tags: 
Created: 2019-12-11 14:16:09 UTC+0000
Exited: 2019-12-11 14:16:09 UTC+0000
Owning Process: svchost.exe
Attached Process: svchost.exe
State: Terminated
BasePriority: 0x8
Priority: 0x9
TEB: 0x00000000
StartAddress: 0x77cbc500 ntdll.dll
Win32Thread: 0x00000000
CrossThreadFlags: PS_CROSS_THREAD_FLAGS_DEADTHREAD, PS_CROSS_THREAD_FLAGS_TERMINATED
0x77cbc500 4883ec48         SUB RSP, 0x48
0x77cbc504 4c8bc9           MOV R9, RCX
0x77cbc507 488b0552da1000   MOV RAX, [RIP+0x10da52]
0x77cbc50e 4885c0           TEST RAX, RAX
0x77cbc511 0f84e3840300     JZ 0x77cf49fa
0x77cbc517 4c               DB 0x4c
------
ETHREAD: 0xfffffa8001c48060 Pid: 368 Tid: 396
Tags: 
Created: 2019-12-11 13:41:33 UTC+0000
Exited: 1970-01-01 00:00:00 UTC+0000
Owning Process: csrss.exe
Attached Process: csrss.exe
State: Waiting:WrLpcReceive
BasePriority: 0xd
Priority: 0xe
TEB: 0x7fffffd6000
StartAddress: 0x77cbc500 ntdll.dll
Win32Thread: 0x00000000
CrossThreadFlags: PS_CROSS_THREAD_FLAGS_DEADTHREAD
0x77cbc500 4883ec48         SUB RSP, 0x48
0x77cbc504 4c8bc9           MOV R9, RCX
0x77cbc507 488b0552da1000   MOV RAX, [RIP+0x10da52]
0x77cbc50e 4885c0           TEST RAX, RAX
0x77cbc511 0f84e3840300     JZ 0x77cf49fa
0x77cbc517 4c               DB 0x4c
------
ETHREAD: 0xfffffa800221da50 Pid: 2368 Tid: 2388
Tags: 
Created: 2019-12-11 14:32:51 UTC+0000
Exited: 1970-01-01 00:00:00 UTC+0000
Owning Process: svchost.exe
Attached Process: svchost.exe
State: Waiting:UserRequest
BasePriority: 0x8
Priority: 0x8
TEB: 0x7fffffd5000
StartAddress: 0x77cbc500 ntdll.dll
Win32Thread: 0x00000000
CrossThreadFlags: PS_CROSS_THREAD_FLAGS_DEADTHREAD
0x77cbc500 4883ec48         SUB RSP, 0x48
0x77cbc504 4c8bc9           MOV R9, RCX
0x77cbc507 488b0552da1000   MOV RAX, [RIP+0x10da52]
0x77cbc50e 4885c0           TEST RAX, RAX
0x77cbc511 0f84e3840300     JZ 0x77cf49fa
0x77cbc517 4c               DB 0x4c
------
ETHREAD: 0xfffffa8001343590 Pid: 4 Tid: 208
Tags: 
Created: 2019-12-11 13:41:22 UTC+0000
Exited: 1970-01-01 00:00:00 UTC+0000
Owning Process: System
Attached Process: System
State: Waiting:Executive
BasePriority: 0x8
Priority: 0x8
TEB: 0x00000000
StartAddress: 0xfffff880018dd900 volsnap.sys
Win32Thread: 0x00000000
CrossThreadFlags: PS_CROSS_THREAD_FLAGS_DEADTHREAD
0xfffff880018dd900 48895c2408       MOV [RSP+0x8], RBX
0xfffff880018dd905 48896c2410       MOV [RSP+0x10], RBP
0xfffff880018dd90a 4889742418       MOV [RSP+0x18], RSI
0xfffff880018dd90f 57               PUSH RDI
0xfffff880018dd910 4883ec30         SUB RSP, 0x30
0xfffff880018dd914 488b7928         MOV RDI, [RCX+0x28]
------
ETHREAD: 0xfffffa8001508960 Pid: 2760 Tid: 2820
Tags: 
Created: 2019-12-11 14:37:05 UTC+0000
Exited: 1970-01-01 00:00:00 UTC+0000
Owning Process: csrss.exe
Attached Process: csrss.exe
State: Waiting:WrLpcReply
BasePriority: 0xf
Priority: 0xf
TEB: 0x7fffffda000
StartAddress: 0x77cbc500 ntdll.dll
Win32Thread: 0xfffff900c00c7010
CrossThreadFlags: PS_CROSS_THREAD_FLAGS_DEADTHREAD
0x77cbc500 4883ec48         SUB RSP, 0x48
0x77cbc504 4c8bc9           MOV R9, RCX
0x77cbc507 488b0552da1000   MOV RAX, [RIP+0x10da52]
0x77cbc50e 4885c0           TEST RAX, RAX
0x77cbc511 0f84e3840300     JZ 0x77cf49fa
0x77cbc517 4c               DB 0x4c
------
ETHREAD: 0xfffffa8001e521c0 Pid: 1044 Tid: 1052
Tags: 
Created: 2019-12-11 13:41:48 UTC+0000
Exited: 1970-01-01 00:00:00 UTC+0000
Owning Process: svchost.exe
Attached Process: svchost.exe
State: Waiting:UserRequest
BasePriority: 0x8
Priority: 0x8
TEB: 0x7fffffdc000
StartAddress: 0x77cbc500 ntdll.dll
Win32Thread: 0x00000000
CrossThreadFlags: PS_CROSS_THREAD_FLAGS_DEADTHREAD
0x77cbc500 4883ec48         SUB RSP, 0x48
0x77cbc504 4c8bc9           MOV R9, RCX
0x77cbc507 488b0552da1000   MOV RAX, [RIP+0x10da52]
0x77cbc50e 4885c0           TEST RAX, RAX
0x77cbc511 0f84e3840300     JZ 0x77cf49fa
0x77cbc517 4c               DB 0x4c
------
ETHREAD: 0xfffffa8001edcb60 Pid: 1248 Tid: 1252
Tags: 
Created: 2019-12-11 13:41:52 UTC+0000
Exited: 1970-01-01 00:00:00 UTC+0000
Owning Process: svchost.exe
Attached Process: svchost.exe
State: Waiting:UserRequest
BasePriority: 0x8
Priority: 0x9
TEB: 0x7fffffde000
StartAddress: 0x77cbc500 ntdll.dll
Win32Thread: 0xfffff900c1ab66b0
CrossThreadFlags: PS_CROSS_THREAD_FLAGS_DEADTHREAD
0x77cbc500 4883ec48         SUB RSP, 0x48
0x77cbc504 4c8bc9           MOV R9, RCX
0x77cbc507 488b0552da1000   MOV RAX, [RIP+0x10da52]
0x77cbc50e 4885c0           TEST RAX, RAX
0x77cbc511 0f84e3840300     JZ 0x77cf49fa
0x77cbc517 4c               DB 0x4c
------
ETHREAD: 0xfffffa8001d3eae0 Pid: 652 Tid: 692
Tags: 
Created: 2019-12-11 13:41:41 UTC+0000
Exited: 1970-01-01 00:00:00 UTC+0000
Owning Process: VBoxService.ex
Attached Process: VBoxService.ex
State: Waiting:UserRequest
BasePriority: 0x8
Priority: 0x8
TEB: 0x7fffffa8000
StartAddress: 0x77cbc500 ntdll.dll
Win32Thread: 0x00000000
CrossThreadFlags: PS_CROSS_THREAD_FLAGS_DEADTHREAD
0x77cbc500 4883ec48         SUB RSP, 0x48
0x77cbc504 4c8bc9           MOV R9, RCX
0x77cbc507 488b0552da1000   MOV RAX, [RIP+0x10da52]
0x77cbc50e 4885c0           TEST RAX, RAX
0x77cbc511 0f84e3840300     JZ 0x77cf49fa
0x77cbc517 4c               DB 0x4c
------
ETHREAD: 0x3fb4c470 Pid: 2868 Tid: 2612
Tags: ScannerOnly
Created: 2019-12-11 14:37:24 UTC+0000
Exited: 1970-01-01 00:00:00 UTC+0000
Owning Process: SearchProtocol
Attached Process: SearchProtocol
State: Waiting:WrQueue
BasePriority: 0x4
Priority: 0x4
TEB: 0x7fffffac000
StartAddress: 0x77cbc500 ntdll.dll
Win32Thread: 0xfffff900c1aec850
CrossThreadFlags: PS_CROSS_THREAD_FLAGS_DEADTHREAD
0x77cbc500 4883ec48         SUB RSP, 0x48
0x77cbc504 4c8bc9           MOV R9, RCX
0x77cbc507 488b0552da1000   MOV RAX, [RIP+0x10da52]
0x77cbc50e 4885c0           TEST RAX, RAX
0x77cbc511 0f84e3840300     JZ 0x77cf49fa
0x77cbc517 4c               DB 0x4c
------
ETHREAD: 0xfffffa8000f9eb60 Pid: 852 Tid: 1668
Tags: 
Created: 2019-12-11 14:37:15 UTC+0000
Exited: 1970-01-01 00:00:00 UTC+0000
Owning Process: svchost.exe
Attached Process: svchost.exe
State: Waiting:WrUserRequest
BasePriority: 0x8
Priority: 0xa
TEB: 0x7fffff9c000
StartAddress: 0x77cbc500 ntdll.dll
Win32Thread: 0xfffff900c1ae1470
CrossThreadFlags: PS_CROSS_THREAD_FLAGS_DEADTHREAD
0x77cbc500 4883ec48         SUB RSP, 0x48
0x77cbc504 4c8bc9           MOV R9, RCX
0x77cbc507 488b0552da1000   MOV RAX, [RIP+0x10da52]
0x77cbc50e 4885c0           TEST RAX, RAX
0x77cbc511 0f84e3840300     JZ 0x77cf49fa
0x77cbc517 4c               DB 0x4c
------
ETHREAD: 0xfffffa8001cf94f0 Pid: 588 Tid: 632
Tags: 
Created: 2019-12-11 13:41:39 UTC+0000
Exited: 1970-01-01 00:00:00 UTC+0000
Owning Process: svchost.exe
Attached Process: svchost.exe
State: Waiting:UserRequest
BasePriority: 0x8
Priority: 0x9
TEB: 0x7fffffd8000
StartAddress: 0xfffff8a00155a990 UNKNOWN
Win32Thread: 0xfffff900c1a9d6b0
CrossThreadFlags: PS_CROSS_THREAD_FLAGS_DEADTHREAD
0xfffff8a00155a990 7098             JO 0xfffff8a00155a92a
0xfffff8a00155a992 cf               IRET
0xfffff8a00155a993 0180faffff70     ADD [RAX+0x70fffffa], EAX
0xfffff8a00155a999 98               CWDE
0xfffff8a00155a99a cf               IRET
0xfffff8a00155a99b 0180faffffa0     ADD [RAX-0x5f000006], EAX
0xfffff8a00155a9a1 a95501a0f8       TEST EAX, 0xf8a00155
0xfffff8a00155a9a6 ff               DB 0xff
0xfffff8a00155a9a7 ff               DB 0xff
------
ETHREAD: 0xfffffa8000f4a5b0 Pid: 852 Tid: 2508
Tags: 
Created: 2019-12-11 14:37:13 UTC+0000
Exited: 2019-12-11 14:37:14 UTC+0000
Owning Process: svchost.exe
Attached Process: svchost.exe
State: Terminated
BasePriority: 0x8
Priority: 0x9
TEB: 0x00000000
StartAddress: 0x77cbc500 ntdll.dll
Win32Thread: 0x00000000
CrossThreadFlags: PS_CROSS_THREAD_FLAGS_DEADTHREAD, PS_CROSS_THREAD_FLAGS_TERMINATED
0x77cbc500 4883ec48         SUB RSP, 0x48
0x77cbc504 4c8bc9           MOV R9, RCX
0x77cbc507 488b0552da1000   MOV RAX, [RIP+0x10da52]
0x77cbc50e 4885c0           TEST RAX, RAX
0x77cbc511 0f84e3840300     JZ 0x77cf49fa
0x77cbc517 4c               DB 0x4c
------
ETHREAD: 0xfffffa8001048b60 Pid: 1988 Tid: 2984
Tags: 
Created: 2019-12-11 14:37:35 UTC+0000
Exited: 1970-01-01 00:00:00 UTC+0000
Owning Process: dwm.exe
Attached Process: dwm.exe
State: Waiting:WrQueue
BasePriority: 0x8
Priority: 0x8
TEB: 0x7fffffd8000
StartAddress: 0x77cbc500 ntdll.dll
Win32Thread: 0x00000000
CrossThreadFlags: PS_CROSS_THREAD_FLAGS_DEADTHREAD
0x77cbc500 4883ec48         SUB RSP, 0x48
0x77cbc504 4c8bc9           MOV R9, RCX
0x77cbc507 488b0552da1000   MOV RAX, [RIP+0x10da52]
0x77cbc50e 4885c0           TEST RAX, RAX
0x77cbc511 0f84e3840300     JZ 0x77cf49fa
0x77cbc517 4c               DB 0x4c
------
ETHREAD: 0xfffffa8002145b60 Pid: 876 Tid: 2032
Tags: 
Created: 2019-12-11 14:16:16 UTC+0000
Exited: 1970-01-01 00:00:00 UTC+0000
Owning Process: svchost.exe
Attached Process: svchost.exe
State: Waiting:UserRequest
BasePriority: 0x8
Priority: 0x9
TEB: 0x7fffff78000
StartAddress: 0xfffff8a001b121d0 UNKNOWN
Win32Thread: 0xfffff900c1ad3c30
CrossThreadFlags: PS_CROSS_THREAD_FLAGS_DEADTHREAD
0xfffff8a001b121d0 e05e             LOOPNZ 0xfffff8a001b12230
0xfffff8a001b121d2 1402             ADC AL, 0x2
0xfffff8a001b121d4 80faff           CMP DL, 0xff
0xfffff8a001b121d7 ffe0             JMP RAX
0xfffff8a001b121d9 5e               POP RSI
0xfffff8a001b121da 1402             ADC AL, 0x2
0xfffff8a001b121dc 80faff           CMP DL, 0xff
0xfffff8a001b121df ffe0             JMP RAX
0xfffff8a001b121e1 21b101a0f8ff     AND [RCX-0x75fff], ESI
0xfffff8a001b121e7 ff               DB 0xff
------
ETHREAD: 0xfffffa8001deb2f0 Pid: 376 Tid: 996
Tags: 
Created: 2019-12-11 13:41:45 UTC+0000
Exited: 1970-01-01 00:00:00 UTC+0000
Owning Process: psxss.exe
Attached Process: psxss.exe
State: Waiting:WrLpcReceive
BasePriority: 0xd
Priority: 0xd
TEB: 0x7fffffa8000
StartAddress: 0x77cbc500 ntdll.dll
Win32Thread: 0x00000000
CrossThreadFlags: PS_CROSS_THREAD_FLAGS_DEADTHREAD
0x77cbc500 4883ec48         SUB RSP, 0x48
0x77cbc504 4c8bc9           MOV R9, RCX
0x77cbc507 488b0552da1000   MOV RAX, [RIP+0x10da52]
0x77cbc50e 4885c0           TEST RAX, RAX
0x77cbc511 0f84e3840300     JZ 0x77cf49fa
0x77cbc517 4c               DB 0x4c
------
ETHREAD: 0xfffffa8001ed4060 Pid: 1372 Tid: 3048
Tags: 
Created: 2019-12-11 14:34:14 UTC+0000
Exited: 1970-01-01 00:00:00 UTC+0000
Owning Process: svchost.exe
Attached Process: svchost.exe
State: Waiting:WrQueue
BasePriority: 0x8
Priority: 0x8
TEB: 0x7fffff9c000
StartAddress: 0x77cbc500 ntdll.dll
Win32Thread: 0x00000000
CrossThreadFlags: PS_CROSS_THREAD_FLAGS_DEADTHREAD
0x77cbc500 4883ec48         SUB RSP, 0x48
0x77cbc504 4c8bc9           MOV R9, RCX
0x77cbc507 488b0552da1000   MOV RAX, [RIP+0x10da52]
0x77cbc50e 4885c0           TEST RAX, RAX
0x77cbc511 0f84e3840300     JZ 0x77cf49fa
0x77cbc517 4c               DB 0x4c
------
ETHREAD: 0xfffffa80022425c0 Pid: 852 Tid: 2468
Tags: 
Created: 2019-12-11 14:32:52 UTC+0000
Exited: 1970-01-01 00:00:00 UTC+0000
Owning Process: svchost.exe
Attached Process: svchost.exe
State: Waiting:UserRequest
BasePriority: 0x8
Priority: 0x9
TEB: 0x7fffff88000
StartAddress: 0x77cbc500 ntdll.dll
Win32Thread: 0x00000000
CrossThreadFlags: PS_CROSS_THREAD_FLAGS_DEADTHREAD
0x77cbc500 4883ec48         SUB RSP, 0x48
0x77cbc504 4c8bc9           MOV R9, RCX
0x77cbc507 488b0552da1000   MOV RAX, [RIP+0x10da52]
0x77cbc50e 4885c0           TEST RAX, RAX
0x77cbc511 0f84e3840300     JZ 0x77cf49fa
0x77cbc517 4c               DB 0x4c
------
ETHREAD: 0xfffffa8000e623a0 Pid: 1508 Tid: 1588
Tags: 
Created: 2019-12-11 14:16:07 UTC+0000
Exited: 1970-01-01 00:00:00 UTC+0000
Owning Process: sppsvc.exe
Attached Process: sppsvc.exe
State: Waiting:UserRequest
BasePriority: 0x8
Priority: 0x8
TEB: 0x7fffffd5000
StartAddress: 0x77cbc500 ntdll.dll
Win32Thread: 0x00000000
CrossThreadFlags: PS_CROSS_THREAD_FLAGS_DEADTHREAD
0x77cbc500 4883ec48         SUB RSP, 0x48
0x77cbc504 4c8bc9           MOV R9, RCX
0x77cbc507 488b0552da1000   MOV RAX, [RIP+0x10da52]
0x77cbc50e 4885c0           TEST RAX, RAX
0x77cbc511 0f84e3840300     JZ 0x77cf49fa
0x77cbc517 4c               DB 0x4c
------
ETHREAD: 0xfffffa8001468680 Pid: 4 Tid: 232
Tags: 
Created: 2019-12-11 13:41:25 UTC+0000
Exited: 1970-01-01 00:00:00 UTC+0000
Owning Process: System
Attached Process: System
State: Waiting:Executive
BasePriority: 0x8
Priority: 0x8
TEB: 0x00000000
StartAddress: 0xfffff88002c08a90 VBoxSF.sys
Win32Thread: 0x00000000
CrossThreadFlags: PS_CROSS_THREAD_FLAGS_DEADTHREAD
0xfffff88002c08a90 48895c2408       MOV [RSP+0x8], RBX
0xfffff88002c08a95 55               PUSH RBP
0xfffff88002c08a96 56               PUSH RSI
0xfffff88002c08a97 57               PUSH RDI
0xfffff88002c08a98 4154             PUSH R12
0xfffff88002c08a9a 4155             PUSH R13
0xfffff88002c08a9c 4883ec50         SUB RSP, 0x50
0xfffff88002c08aa0 65               DB 0x65
0xfffff88002c08aa1 48               DB 0x48
0xfffff88002c08aa2 8b               DB 0x8b
0xfffff88002c08aa3 3c25             CMP AL, 0x25
0xfffff88002c08aa5 8801             MOV [RCX], AL
0xfffff88002c08aa7 00               DB 0x0
------
ETHREAD: 0xfffffa8000f96060 Pid: 2504 Tid: 3056
Tags: 
Created: 2019-12-11 14:37:14 UTC+0000
Exited: 1970-01-01 00:00:00 UTC+0000
Owning Process: explorer.exe
Attached Process: explorer.exe
State: Waiting:WrUserRequest
BasePriority: 0x8
Priority: 0xc
TEB: 0x7fffff9e000
StartAddress: 0x77cbc500 ntdll.dll
Win32Thread: 0xfffff900c227bc30
CrossThreadFlags: PS_CROSS_THREAD_FLAGS_DEADTHREAD
0x77cbc500 4883ec48         SUB RSP, 0x48
0x77cbc504 4c8bc9           MOV R9, RCX
0x77cbc507 488b0552da1000   MOV RAX, [RIP+0x10da52]
0x77cbc50e 4885c0           TEST RAX, RAX
0x77cbc511 0f84e3840300     JZ 0x77cf49fa
0x77cbc517 4c               DB 0x4c
------
ETHREAD: 0xfffffa8002055060 Pid: 492 Tid: 904
Tags: 
Created: 2019-12-11 14:32:10 UTC+0000
Exited: 1970-01-01 00:00:00 UTC+0000
Owning Process: lsass.exe
Attached Process: lsass.exe
State: Waiting:WrQueue
BasePriority: 0x9
Priority: 0x9
TEB: 0x7fffffde000
StartAddress: 0xfffff8a001ad9580 UNKNOWN
Win32Thread: 0x00000000
CrossThreadFlags: PS_CROSS_THREAD_FLAGS_DEADTHREAD
0xfffff8a001ad9580 e053             LOOPNZ 0xfffff8a001ad95d5
0xfffff8a001ad9582 050280faff       ADD EAX, 0xfffa8002
0xfffff8a001ad9587 ffa0021002a0     JMP QWORD [RAX-0x5ffdeffe]
0xfffff8a001ad958d f8               CLC
0xfffff8a001ad958e ff               DB 0xff
0xfffff8a001ad958f ff9095ad01a0     CALL QWORD [RAX-0x5ffe526b]
0xfffff8a001ad9595 f8               CLC
0xfffff8a001ad9596 ff               DB 0xff
0xfffff8a001ad9597 ff               DB 0xff
------
ETHREAD: 0x3fac9b60 Pid: 1988 Tid: 2972
Tags: ScannerOnly
Created: 2019-12-11 14:37:35 UTC+0000
Exited: 1970-01-01 00:00:00 UTC+0000
Owning Process: dwm.exe
Attached Process: dwm.exe
State: Waiting:WrQueue
BasePriority: 0x8
Priority: 0x8
TEB: 0x7fffffd6000
StartAddress: 0x77cbc500 ntdll.dll
Win32Thread: 0x00000000
CrossThreadFlags: PS_CROSS_THREAD_FLAGS_DEADTHREAD
0x77cbc500 4883ec48         SUB RSP, 0x48
0x77cbc504 4c8bc9           MOV R9, RCX
0x77cbc507 488b0552da1000   MOV RAX, [RIP+0x10da52]
0x77cbc50e 4885c0           TEST RAX, RAX
0x77cbc511 0f84e3840300     JZ 0x77cf49fa
0x77cbc517 4c               DB 0x4c
------
ETHREAD: 0xfffffa8000f63740 Pid: 2908 Tid: 2724
Tags: 
Created: 2019-12-11 14:37:14 UTC+0000
Exited: 1970-01-01 00:00:00 UTC+0000
Owning Process: taskhost.exe
Attached Process: taskhost.exe
State: Waiting:UserRequest
BasePriority: 0x8
Priority: 0x8
TEB: 0x7fffffae000
StartAddress: 0x77cbc500 ntdll.dll
Win32Thread: 0x00000000
CrossThreadFlags: PS_CROSS_THREAD_FLAGS_DEADTHREAD
0x77cbc500 4883ec48         SUB RSP, 0x48
0x77cbc504 4c8bc9           MOV R9, RCX
0x77cbc507 488b0552da1000   MOV RAX, [RIP+0x10da52]
0x77cbc50e 4885c0           TEST RAX, RAX
0x77cbc511 0f84e3840300     JZ 0x77cf49fa
0x77cbc517 4c               DB 0x4c
------
ETHREAD: 0xfffffa8001dae5d0 Pid: 876 Tid: 1980
Tags: 
Created: 2019-12-11 14:25:05 UTC+0000
Exited: 1970-01-01 00:00:00 UTC+0000
Owning Process: svchost.exe
Attached Process: svchost.exe
State: Waiting:WrQueue
BasePriority: 0x8
Priority: 0x8
TEB: 0x7fffffd5000
StartAddress: 0xfffff8a002150590 UNKNOWN
Win32Thread: 0xfffff900c1ac1c30
CrossThreadFlags: PS_CROSS_THREAD_FLAGS_DEADTHREAD
0xfffff8a002150590 50               PUSH RAX
0xfffff8a002150591 e9da0180fa       JMP 0xfffff89ffc950770
0xfffff8a002150596 ff               DB 0xff
0xfffff8a002150597 ff50e9           CALL QWORD [RAX-0x17]
0xfffff8a00215059a da01             FIADD DWORD [RCX]
0xfffff8a00215059c 80faff           CMP DL, 0xff
0xfffff8a00215059f ffa0051502a0     JMP QWORD [RAX-0x5ffdeafb]
0xfffff8a0021505a5 f8               CLC
0xfffff8a0021505a6 ff               DB 0xff
0xfffff8a0021505a7 ff               DB 0xff
------
ETHREAD: 0xfffffa8000ff9670 Pid: 2504 Tid: 3032
Tags: 
Created: 2019-12-11 14:37:19 UTC+0000
Exited: 1970-01-01 00:00:00 UTC+0000
Owning Process: explorer.exe
Attached Process: explorer.exe
State: Waiting:UserRequest
BasePriority: 0x8
Priority: 0xa
TEB: 0x7fffff9a000
StartAddress: 0x77cbc500 ntdll.dll
Win32Thread: 0xfffff900c1a9dc30
CrossThreadFlags: PS_CROSS_THREAD_FLAGS_DEADTHREAD
0x77cbc500 4883ec48         SUB RSP, 0x48
0x77cbc504 4c8bc9           MOV R9, RCX
0x77cbc507 488b0552da1000   MOV RAX, [RIP+0x10da52]
0x77cbc50e 4885c0           TEST RAX, RAX
0x77cbc511 0f84e3840300     JZ 0x77cf49fa
0x77cbc517 4c               DB 0x4c
------
ETHREAD: 0xfffffa800107b060 Pid: 2260 Tid: 1108
Tags: 
Created: 2019-12-11 14:37:54 UTC+0000
Exited: 1970-01-01 00:00:00 UTC+0000
Owning Process: conhost.exe
Attached Process: conhost.exe
State: Waiting:WrUserRequest
BasePriority: 0x8
Priority: 0xb
TEB: 0x7fffffde000
StartAddress: 0x77cbc500 ntdll.dll
Win32Thread: 0xfffff900c1c8c9a0
CrossThreadFlags: PS_CROSS_THREAD_FLAGS_DEADTHREAD
0x77cbc500 4883ec48         SUB RSP, 0x48
0x77cbc504 4c8bc9           MOV R9, RCX
0x77cbc507 488b0552da1000   MOV RAX, [RIP+0x10da52]
0x77cbc50e 4885c0           TEST RAX, RAX
0x77cbc511 0f84e3840300     JZ 0x77cf49fa
0x77cbc517 4c               DB 0x4c
------
ETHREAD: 0xfffffa80021dc060 Pid: 1844 Tid: 2084
Tags: 
Created: 2019-12-11 14:32:37 UTC+0000
Exited: 1970-01-01 00:00:00 UTC+0000
Owning Process: VBoxTray.exe
Attached Process: VBoxTray.exe
State: Waiting:Executive
BasePriority: 0x8
Priority: 0x8
TEB: 0x7fffffd6000
StartAddress: 0x77cbc500 ntdll.dll
Win32Thread: 0xfffff900c1e54850
CrossThreadFlags: PS_CROSS_THREAD_FLAGS_DEADTHREAD
0x77cbc500 4883ec48         SUB RSP, 0x48
0x77cbc504 4c8bc9           MOV R9, RCX
0x77cbc507 488b0552da1000   MOV RAX, [RIP+0x10da52]
0x77cbc50e 4885c0           TEST RAX, RAX
0x77cbc511 0f84e3840300     JZ 0x77cf49fa
0x77cbc517 4c               DB 0x4c
------
ETHREAD: 0xfffffa8001d3e5e0 Pid: 652 Tid: 696
Tags: 
Created: 2019-12-11 13:41:41 UTC+0000
Exited: 1970-01-01 00:00:00 UTC+0000
Owning Process: VBoxService.ex
Attached Process: VBoxService.ex
State: Waiting:UserRequest
BasePriority: 0x8
Priority: 0x8
TEB: 0x7fffffa6000
StartAddress: 0x77cbc500 ntdll.dll
Win32Thread: 0x00000000
CrossThreadFlags: PS_CROSS_THREAD_FLAGS_DEADTHREAD
0x77cbc500 4883ec48         SUB RSP, 0x48
0x77cbc504 4c8bc9           MOV R9, RCX
0x77cbc507 488b0552da1000   MOV RAX, [RIP+0x10da52]
0x77cbc50e 4885c0           TEST RAX, RAX
0x77cbc511 0f84e3840300     JZ 0x77cf49fa
0x77cbc517 4c               DB 0x4c
------
ETHREAD: 0xfffffa8001fd3a50 Pid: 1372 Tid: 1468
Tags: 
Created: 2019-12-11 13:41:56 UTC+0000
Exited: 1970-01-01 00:00:00 UTC+0000
Owning Process: svchost.exe
Attached Process: svchost.exe
State: Waiting:WrQueue
BasePriority: 0x8
Priority: 0xa
TEB: 0x7fffffae000
StartAddress: 0xfffff8a0019dc960 UNKNOWN
Win32Thread: 0x00000000
CrossThreadFlags: PS_CROSS_THREAD_FLAGS_DEADTHREAD
0xfffff8a0019dc960 d03dfd0180fa     SAR BYTE [RIP-0x57ffe03], 0x1
0xfffff8a0019dc966 ff               DB 0xff
0xfffff8a0019dc967 ffd0             CALL RAX
0xfffff8a0019dc969 3dfd0180fa       CMP EAX, 0xfa8001fd
0xfffff8a0019dc96e ff               DB 0xff
0xfffff8a0019dc96f ff70c9           PUSH QWORD [RAX-0x37]
0xfffff8a0019dc972 9d               POPF
0xfffff8a0019dc973 01               DB 0x1
0xfffff8a0019dc974 a0               DB 0xa0
0xfffff8a0019dc975 f8               CLC
0xfffff8a0019dc976 ff               DB 0xff
0xfffff8a0019dc977 ff               DB 0xff
------
ETHREAD: 0xfffffa8001d3d060 Pid: 652 Tid: 676
Tags: 
Created: 2019-12-11 13:41:41 UTC+0000
Exited: 1970-01-01 00:00:00 UTC+0000
Owning Process: VBoxService.ex
Attached Process: VBoxService.ex
State: Waiting:Executive
BasePriority: 0x8
Priority: 0x8
TEB: 0x7fffffd3000
StartAddress: 0x77cbc500 ntdll.dll
Win32Thread: 0x00000000
CrossThreadFlags: PS_CROSS_THREAD_FLAGS_DEADTHREAD
0x77cbc500 4883ec48         SUB RSP, 0x48
0x77cbc504 4c8bc9           MOV R9, RCX
0x77cbc507 488b0552da1000   MOV RAX, [RIP+0x10da52]
0x77cbc50e 4885c0           TEST RAX, RAX
0x77cbc511 0f84e3840300     JZ 0x77cf49fa
0x77cbc517 4c               DB 0x4c
------
ETHREAD: 0xfffffa8000e9b680 Pid: 2660 Tid: 2792
Tags: 
Created: 2019-12-11 14:36:44 UTC+0000
Exited: 1970-01-01 00:00:00 UTC+0000
Owning Process: svchost.exe
Attached Process: svchost.exe
State: Waiting:WrQueue
BasePriority: 0x8
Priority: 0x8
TEB: 0x7fffffdc000
StartAddress: 0x77cbc500 ntdll.dll
Win32Thread: 0x00000000
CrossThreadFlags: PS_CROSS_THREAD_FLAGS_DEADTHREAD
0x77cbc500 4883ec48         SUB RSP, 0x48
0x77cbc504 4c8bc9           MOV R9, RCX
0x77cbc507 488b0552da1000   MOV RAX, [RIP+0x10da52]
0x77cbc50e 4885c0           TEST RAX, RAX
0x77cbc511 0f84e3840300     JZ 0x77cf49fa
0x77cbc517 4c               DB 0x4c
------
ETHREAD: 0xfffffa80010333e0 Pid: 1512 Tid: 848
Tags: 
Created: 2019-12-11 14:37:23 UTC+0000
Exited: 1970-01-01 00:00:00 UTC+0000
Owning Process: WinRAR.exe
Attached Process: WinRAR.exe
State: Waiting:UserRequest
BasePriority: 0x8
Priority: 0xa
TEB: 0x7fffffd5000
StartAddress: 0x77cbc500 ntdll.dll
Win32Thread: 0xfffff900c1abec30
CrossThreadFlags: PS_CROSS_THREAD_FLAGS_DEADTHREAD
0x77cbc500 4883ec48         SUB RSP, 0x48
0x77cbc504 4c8bc9           MOV R9, RCX
0x77cbc507 488b0552da1000   MOV RAX, [RIP+0x10da52]
0x77cbc50e 4885c0           TEST RAX, RAX
0x77cbc511 0f84e3840300     JZ 0x77cf49fa
0x77cbc517 4c               DB 0x4c
------
ETHREAD: 0x3fb405d0 Pid: 2304 Tid: 260
Tags: ScannerOnly
Created: 2019-12-11 14:37:36 UTC+0000
Exited: 1970-01-01 00:00:00 UTC+0000
Owning Process: VBoxTray.exe
Attached Process: VBoxTray.exe
State: Waiting:WrQueue
BasePriority: 0x8
Priority: 0x8
TEB: 0x7fffff9e000
StartAddress: 0x77cbc500 ntdll.dll
Win32Thread: 0x00000000
CrossThreadFlags: PS_CROSS_THREAD_FLAGS_DEADTHREAD
0x77cbc500 4883ec48         SUB RSP, 0x48
0x77cbc504 4c8bc9           MOV R9, RCX
0x77cbc507 488b0552da1000   MOV RAX, [RIP+0x10da52]
0x77cbc50e 4885c0           TEST RAX, RAX
0x77cbc511 0f84e3840300     JZ 0x77cf49fa
0x77cbc517 4c               DB 0x4c
------
ETHREAD: 0x3fb466f0 Pid: 480 Tid: 2404
Tags: ScannerOnly
Created: 2019-12-11 14:37:27 UTC+0000
Exited: 2019-12-11 14:37:27 UTC+0000
Owning Process: SearchIndexer.
Attached Process: SearchIndexer.
State: Terminated
BasePriority: 0x8
Priority: 0x8
TEB: 0x00000000
StartAddress: 0x77cbc500 ntdll.dll
Win32Thread: 0x00000000
CrossThreadFlags: PS_CROSS_THREAD_FLAGS_DEADTHREAD, PS_CROSS_THREAD_FLAGS_TERMINATED
0x77cbc500 4883ec48         SUB RSP, 0x48
0x77cbc504 4c8bc9           MOV R9, RCX
0x77cbc507 488b0552da1000   MOV RAX, [RIP+0x10da52]
0x77cbc50e 4885c0           TEST RAX, RAX
0x77cbc511 0f84e3840300     JZ 0x77cf49fa
0x77cbc517 4c               DB 0x4c
------
ETHREAD: 0xfffffa8001d60060 Pid: 500 Tid: 756
Tags: 
Created: 2019-12-11 13:41:41 UTC+0000
Exited: 1970-01-01 00:00:00 UTC+0000
Owning Process: lsm.exe
Attached Process: lsm.exe
State: Waiting:WrLpcReceive
BasePriority: 0x8
Priority: 0x9
TEB: 0x7fffffd8000
StartAddress: 0x77cbc500 ntdll.dll
Win32Thread: 0x00000000
CrossThreadFlags: PS_CROSS_THREAD_FLAGS_DEADTHREAD
0x77cbc500 4883ec48         SUB RSP, 0x48
0x77cbc504 4c8bc9           MOV R9, RCX
0x77cbc507 488b0552da1000   MOV RAX, [RIP+0x10da52]
0x77cbc50e 4885c0           TEST RAX, RAX
0x77cbc511 0f84e3840300     JZ 0x77cf49fa
0x77cbc517 4c               DB 0x4c
------
ETHREAD: 0xfffffa80010585f0 Pid: 852 Tid: 616
Tags: 
Created: 2019-12-11 14:37:54 UTC+0000
Exited: 1970-01-01 00:00:00 UTC+0000
Owning Process: svchost.exe
Attached Process: svchost.exe
State: Waiting:WrQueue
BasePriority: 0x8
Priority: 0x8
TEB: 0x7fffff9e000
StartAddress: 0x77cbc500 ntdll.dll
Win32Thread: 0x00000000
CrossThreadFlags: PS_CROSS_THREAD_FLAGS_DEADTHREAD
0x77cbc500 4883ec48         SUB RSP, 0x48
0x77cbc504 4c8bc9           MOV R9, RCX
0x77cbc507 488b0552da1000   MOV RAX, [RIP+0x10da52]
0x77cbc50e 4885c0           TEST RAX, RAX
0x77cbc511 0f84e3840300     JZ 0x77cf49fa
0x77cbc517 4c               DB 0x4c
------
ETHREAD: 0xfffffa8001e769b0 Pid: 604 Tid: 2384
Tags: 
Created: 2019-12-11 14:34:28 UTC+0000
Exited: 1970-01-01 00:00:00 UTC+0000
Owning Process: explorer.exe
Attached Process: explorer.exe
State: Waiting:WrUserRequest
BasePriority: 0xa
Priority: 0xc
TEB: 0x7fffff7c000
StartAddress: 0x77cbc500 ntdll.dll
Win32Thread: 0xfffff900c1e92870
CrossThreadFlags: PS_CROSS_THREAD_FLAGS_DEADTHREAD
0x77cbc500 4883ec48         SUB RSP, 0x48
0x77cbc504 4c8bc9           MOV R9, RCX
0x77cbc507 488b0552da1000   MOV RAX, [RIP+0x10da52]
0x77cbc50e 4885c0           TEST RAX, RAX
0x77cbc511 0f84e3840300     JZ 0x77cf49fa
0x77cbc517 4c               DB 0x4c
------
ETHREAD: 0xfffffa80010579f0 Pid: 604 Tid: 2988
Tags: 
Created: 2019-12-11 14:37:42 UTC+0000
Exited: 1970-01-01 00:00:00 UTC+0000
Owning Process: explorer.exe
Attached Process: explorer.exe
State: Waiting:WrQueue
BasePriority: 0x8
Priority: 0x9
TEB: 0x7fffff82000
StartAddress: 0x77cbc500 ntdll.dll
Win32Thread: 0xfffff900c1f1f010
CrossThreadFlags: PS_CROSS_THREAD_FLAGS_DEADTHREAD
0x77cbc500 4883ec48         SUB RSP, 0x48
0x77cbc504 4c8bc9           MOV R9, RCX
0x77cbc507 488b0552da1000   MOV RAX, [RIP+0x10da52]
0x77cbc50e 4885c0           TEST RAX, RAX
0x77cbc511 0f84e3840300     JZ 0x77cf49fa
0x77cbc517 4c               DB 0x4c
------
ETHREAD: 0xfffffa8001ded660 Pid: 376 Tid: 1020
Tags: 
Created: 2019-12-11 13:41:45 UTC+0000
Exited: 1970-01-01 00:00:00 UTC+0000
Owning Process: psxss.exe
Attached Process: psxss.exe
State: Waiting:WrLpcReceive
BasePriority: 0xd
Priority: 0xd
TEB: 0x7fffff9c000
StartAddress: 0x77cbc500 ntdll.dll
Win32Thread: 0x00000000
CrossThreadFlags: PS_CROSS_THREAD_FLAGS_DEADTHREAD
0x77cbc500 4883ec48         SUB RSP, 0x48
0x77cbc504 4c8bc9           MOV R9, RCX
0x77cbc507 488b0552da1000   MOV RAX, [RIP+0x10da52]
0x77cbc50e 4885c0           TEST RAX, RAX
0x77cbc511 0f84e3840300     JZ 0x77cf49fa
0x77cbc517 4c               DB 0x4c
------
ETHREAD: 0x3faae7d0 Pid: 2868 Tid: 2720
Tags: ScannerOnly
Created: 2019-12-11 14:37:23 UTC+0000
Exited: 1970-01-01 00:00:00 UTC+0000
Owning Process: SearchProtocol
Attached Process: SearchProtocol
State: Waiting:DelayExecution
BasePriority: 0x4
Priority: 0x4
TEB: 0x7fffffae000
StartAddress: 0x77cbc500 ntdll.dll
Win32Thread: 0xfffff900c1aeb470
CrossThreadFlags: PS_CROSS_THREAD_FLAGS_DEADTHREAD
0x77cbc500 4883ec48         SUB RSP, 0x48
0x77cbc504 4c8bc9           MOV R9, RCX
0x77cbc507 488b0552da1000   MOV RAX, [RIP+0x10da52]
0x77cbc50e 4885c0           TEST RAX, RAX
0x77cbc511 0f84e3840300     JZ 0x77cf49fa
0x77cbc517 4c               DB 0x4c
------
ETHREAD: 0xfffffa8001e57060 Pid: 816 Tid: 1068
Tags: 
Created: 2019-12-11 13:41:48 UTC+0000
Exited: 1970-01-01 00:00:00 UTC+0000
Owning Process: svchost.exe
Attached Process: svchost.exe
State: Waiting:UserRequest
BasePriority: 0x8
Priority: 0x9
TEB: 0x7fffff9a000
StartAddress: 0x77cbc500 ntdll.dll
Win32Thread: 0x00000000
CrossThreadFlags: PS_CROSS_THREAD_FLAGS_DEADTHREAD
0x77cbc500 4883ec48         SUB RSP, 0x48
0x77cbc504 4c8bc9           MOV R9, RCX
0x77cbc507 488b0552da1000   MOV RAX, [RIP+0x10da52]
0x77cbc50e 4885c0           TEST RAX, RAX
0x77cbc511 0f84e3840300     JZ 0x77cf49fa
0x77cbc517 4c               DB 0x4c
------
ETHREAD: 0xfffffa8000cabb60 Pid: 4 Tid: 20
Tags: 
Created: 1970-01-01 00:00:00 UTC+0000
Exited: 1970-01-01 00:00:00 UTC+0000
Owning Process: System
Attached Process: System
State: Waiting:Executive
BasePriority: 0xd
Priority: 0xf
TEB: 0x00000000
StartAddress: 0xfffff800027b1e60 ntoskrnl.exe
Win32Thread: 0x00000000
CrossThreadFlags: PS_CROSS_THREAD_FLAGS_DEADTHREAD
0xfffff800027b1e60 48895c2410       MOV [RSP+0x10], RBX
0xfffff800027b1e65 48896c2418       MOV [RSP+0x18], RBP
0xfffff800027b1e6a 56               PUSH RSI
0xfffff800027b1e6b 57               PUSH RDI
0xfffff800027b1e6c 4154             PUSH R12
0xfffff800027b1e6e 4155             PUSH R13
0xfffff800027b1e70 4156             PUSH R14
0xfffff800027b1e72 48               DB 0x48
0xfffff800027b1e73 81               DB 0x81
0xfffff800027b1e74 ec               IN AL, DX
0xfffff800027b1e75 800000           ADD BYTE [RAX], 0x0
------
ETHREAD: 0xfffffa8002200720 Pid: 816 Tid: 2292
Tags: 
Created: 2019-12-11 14:32:50 UTC+0000
Exited: 1970-01-01 00:00:00 UTC+0000
Owning Process: svchost.exe
Attached Process: svchost.exe
State: Waiting:UserRequest
BasePriority: 0x8
Priority: 0x9
TEB: 0x7fffff90000
StartAddress: 0x77cbc500 ntdll.dll
Win32Thread: 0xfffff900c1ad9470
CrossThreadFlags: PS_CROSS_THREAD_FLAGS_DEADTHREAD
0x77cbc500 4883ec48         SUB RSP, 0x48
0x77cbc504 4c8bc9           MOV R9, RCX
0x77cbc507 488b0552da1000   MOV RAX, [RIP+0x10da52]
0x77cbc50e 4885c0           TEST RAX, RAX
0x77cbc511 0f84e3840300     JZ 0x77cf49fa
0x77cbc517 4c               DB 0x4c
------
ETHREAD: 0xfffffa800219d600 Pid: 1988 Tid: 288
Tags: 
Created: 2019-12-11 14:32:27 UTC+0000
Exited: 1970-01-01 00:00:00 UTC+0000
Owning Process: dwm.exe
Attached Process: dwm.exe
State: Waiting:UserRequest
BasePriority: 0xf
Priority: 0xf
TEB: 0x7fffffdc000
StartAddress: 0x77cbc500 ntdll.dll
Win32Thread: 0xfffff900c1aac7a0
CrossThreadFlags: PS_CROSS_THREAD_FLAGS_DEADTHREAD
0x77cbc500 4883ec48         SUB RSP, 0x48
0x77cbc504 4c8bc9           MOV R9, RCX
0x77cbc507 488b0552da1000   MOV RAX, [RIP+0x10da52]
0x77cbc50e 4885c0           TEST RAX, RAX
0x77cbc511 0f84e3840300     JZ 0x77cf49fa
0x77cbc517 4c               DB 0x4c
------
ETHREAD: 0xfffffa8001026500 Pid: 2868 Tid: 2824
Tags: 
Created: 2019-12-11 14:37:23 UTC+0000
Exited: 1970-01-01 00:00:00 UTC+0000
Owning Process: SearchProtocol
Attached Process: SearchProtocol
State: Waiting:UserRequest
BasePriority: 0x4
Priority: 0x4
TEB: 0x7fffffda000
StartAddress: 0x77cbc500 ntdll.dll
Win32Thread: 0xfffff900c1ae76b0
CrossThreadFlags: PS_CROSS_THREAD_FLAGS_DEADTHREAD
0x77cbc500 4883ec48         SUB RSP, 0x48
0x77cbc504 4c8bc9           MOV R9, RCX
0x77cbc507 488b0552da1000   MOV RAX, [RIP+0x10da52]
0x77cbc50e 4885c0           TEST RAX, RAX
0x77cbc511 0f84e3840300     JZ 0x77cf49fa
0x77cbc517 4c               DB 0x4c
------
ETHREAD: 0xfffffa800148d040 Pid: 4 Tid: 240
Tags: 
Created: 2019-12-11 13:41:25 UTC+0000
Exited: 1970-01-01 00:00:00 UTC+0000
Owning Process: System
Attached Process: System
State: Waiting:Executive
BasePriority: 0x8
Priority: 0x8
TEB: 0x00000000
StartAddress: 0xfffff8800494f62c blbdrive.sys
Win32Thread: 0x00000000
CrossThreadFlags: PS_CROSS_THREAD_FLAGS_DEADTHREAD
0xfffff8800494f62c 488bc4           MOV RAX, RSP
0xfffff8800494f62f 48895808         MOV [RAX+0x8], RBX
0xfffff8800494f633 48896810         MOV [RAX+0x10], RBP
0xfffff8800494f637 48897018         MOV [RAX+0x18], RSI
0xfffff8800494f63b 48897820         MOV [RAX+0x20], RDI
0xfffff8800494f63f 4154             PUSH R12
0xfffff8800494f641 48               DB 0x48
0xfffff8800494f642 83               DB 0x83
0xfffff8800494f643 ec               IN AL, DX
------
ETHREAD: 0xfffffa8001025860 Pid: 2868 Tid: 736
Tags: 
Created: 2019-12-11 14:37:23 UTC+0000
Exited: 1970-01-01 00:00:00 UTC+0000
Owning Process: SearchProtocol
Attached Process: SearchProtocol
State: Waiting:UserRequest
BasePriority: 0x4
Priority: 0x4
TEB: 0x7fffffdc000
StartAddress: 0x77cbc500 ntdll.dll
Win32Thread: 0x00000000
CrossThreadFlags: PS_CROSS_THREAD_FLAGS_DEADTHREAD
0x77cbc500 4883ec48         SUB RSP, 0x48
0x77cbc504 4c8bc9           MOV R9, RCX
0x77cbc507 488b0552da1000   MOV RAX, [RIP+0x10da52]
0x77cbc50e 4885c0           TEST RAX, RAX
0x77cbc511 0f84e3840300     JZ 0x77cf49fa
0x77cbc517 4c               DB 0x4c
------
ETHREAD: 0xfffffa8001507060 Pid: 948 Tid: 1832
Tags: 
Created: 2019-12-11 14:16:07 UTC+0000
Exited: 2019-12-11 14:16:19 UTC+0000
Owning Process: svchost.exe
Attached Process: svchost.exe
State: Terminated
BasePriority: 0x4
Priority: 0x5
TEB: 0x00000000
StartAddress: 0xfffffa80015073e0 UNKNOWN
Win32Thread: 0x00000000
CrossThreadFlags: PS_CROSS_THREAD_FLAGS_DEADTHREAD, PS_CROSS_THREAD_FLAGS_TERMINATED
0xfffffa80015073e0 e073             LOOPNZ 0xfffffa8001507455
0xfffffa80015073e2 50               PUSH RAX
0xfffffa80015073e3 0180faffffe0     ADD [RAX-0x1f000006], EAX
0xfffffa80015073e9 7350             JAE 0xfffffa800150743b
0xfffffa80015073eb 0180faffff00     ADD [RAX+0xfffffa], EAX
0xfffffa80015073f1 0000             ADD [RAX], AL
0xfffffa80015073f3 0000             ADD [RAX], AL
0xfffffa80015073f5 0000             ADD [RAX], AL
0xfffffa80015073f7 00               DB 0x0
------
ETHREAD: 0xfffffa8001df68a0 Pid: 1988 Tid: 1816
Tags: 
Created: 2019-12-11 14:32:25 UTC+0000
Exited: 1970-01-01 00:00:00 UTC+0000
Owning Process: dwm.exe
Attached Process: dwm.exe
State: Waiting:UserRequest
BasePriority: 0x8
Priority: 0xa
TEB: 0x7fffffde000
StartAddress: 0x77cbc500 ntdll.dll
Win32Thread: 0xfffff900c1a9b780
CrossThreadFlags: PS_CROSS_THREAD_FLAGS_DEADTHREAD
0x77cbc500 4883ec48         SUB RSP, 0x48
0x77cbc504 4c8bc9           MOV R9, RCX
0x77cbc507 488b0552da1000   MOV RAX, [RIP+0x10da52]
0x77cbc50e 4885c0           TEST RAX, RAX
0x77cbc511 0f84e3840300     JZ 0x77cf49fa
0x77cbc517 4c               DB 0x4c
------
ETHREAD: 0xfffffa8000caa610 Pid: 320 Tid: 348
Tags: 
Created: 2019-12-11 13:41:32 UTC+0000
Exited: 1970-01-01 00:00:00 UTC+0000
Owning Process: csrss.exe
Attached Process: csrss.exe
State: Waiting:UserRequest
BasePriority: 0xd
Priority: 0xe
TEB: 0x7fffffd8000
StartAddress: 0xfffff8a001329e10 UNKNOWN
Win32Thread: 0xfffff900c1a9d2d0
CrossThreadFlags: PS_CROSS_THREAD_FLAGS_DEADTHREAD
0xfffff8a001329e10 90               NOP
0xfffff8a001329e11 a9ca0080fa       TEST EAX, 0xfa8000ca
0xfffff8a001329e16 ff               DB 0xff
0xfffff8a001329e17 ff90a9ca0080     CALL QWORD [RAX-0x7fff3557]
0xfffff8a001329e1d fa               CLI
0xfffff8a001329e1e ff               DB 0xff
0xfffff8a001329e1f ff20             JMP QWORD [RAX]
0xfffff8a001329e21 9e               SAHF
0xfffff8a001329e22 3201             XOR AL, [RCX]
0xfffff8a001329e24 a0               DB 0xa0
0xfffff8a001329e25 f8               CLC
0xfffff8a001329e26 ff               DB 0xff
0xfffff8a001329e27 ff               DB 0xff
------
ETHREAD: 0xfffffa8001bc9060 Pid: 604 Tid: 864
Tags: 
Created: 2019-12-11 14:32:25 UTC+0000
Exited: 1970-01-01 00:00:00 UTC+0000
Owning Process: explorer.exe
Attached Process: explorer.exe
State: Waiting:WrUserRequest
BasePriority: 0x8
Priority: 0xc
TEB: 0x7fffffde000
StartAddress: 0x77cbc500 ntdll.dll
Win32Thread: 0xfffff900c01bd3d0
CrossThreadFlags: PS_CROSS_THREAD_FLAGS_DEADTHREAD
0x77cbc500 4883ec48         SUB RSP, 0x48
0x77cbc504 4c8bc9           MOV R9, RCX
0x77cbc507 488b0552da1000   MOV RAX, [RIP+0x10da52]
0x77cbc50e 4885c0           TEST RAX, RAX
0x77cbc511 0f84e3840300     JZ 0x77cf49fa
0x77cbc517 4c               DB 0x4c
------
ETHREAD: 0xfffffa80022ab060 Pid: 2808 Tid: 2860
Tags: 
Created: 2019-12-11 14:37:05 UTC+0000
Exited: 1970-01-01 00:00:00 UTC+0000
Owning Process: winlogon.exe
Attached Process: winlogon.exe
State: Waiting:WrQueue
BasePriority: 0xd
Priority: 0xd
TEB: 0x7fffffd8000
StartAddress: 0xfffff8a0022a9610 UNKNOWN
Win32Thread: 0xfffff900c01fbc30
CrossThreadFlags: PS_CROSS_THREAD_FLAGS_DEADTHREAD
0xfffff8a0022a9610 e0b3             LOOPNZ 0xfffff8a0022a95c5
0xfffff8a0022a9612 2a02             SUB AL, [RDX]
0xfffff8a0022a9614 80faff           CMP DL, 0xff
0xfffff8a0022a9617 ffe0             JMP RAX
0xfffff8a0022a9619 b32a             MOV BL, 0x2a
0xfffff8a0022a961b 0280faffff20     ADD AL, [RAX+0x20fffffa]
0xfffff8a0022a9621 96               XCHG ESI, EAX
0xfffff8a0022a9622 2a02             SUB AL, [RDX]
0xfffff8a0022a9624 a0               DB 0xa0
0xfffff8a0022a9625 f8               CLC
0xfffff8a0022a9626 ff               DB 0xff
0xfffff8a0022a9627 ff               DB 0xff
------
ETHREAD: 0x3fa8da60 Pid: 1720 Tid: 2008
Tags: ScannerOnly
Created: 2019-12-11 14:37:21 UTC+0000
Exited: 1970-01-01 00:00:00 UTC+0000
Owning Process: SearchFilterHo
Attached Process: SearchFilterHo
State: Waiting:DelayExecution
BasePriority: 0x4
Priority: 0x4
TEB: 0x7fffffd5000
StartAddress: 0x77cbc500 ntdll.dll
Win32Thread: 0xfffff900c1aac850
CrossThreadFlags: PS_CROSS_THREAD_FLAGS_DEADTHREAD
0x77cbc500 4883ec48         SUB RSP, 0x48
0x77cbc504 4c8bc9           MOV R9, RCX
0x77cbc507 488b0552da1000   MOV RAX, [RIP+0x10da52]
0x77cbc50e 4885c0           TEST RAX, RAX
0x77cbc511 0f84e3840300     JZ 0x77cf49fa
0x77cbc517 4c               DB 0x4c
------
ETHREAD: 0x3fb6eaa0 Pid: 3004 Tid: 2736
Tags: ScannerOnly
Created: 2019-12-11 14:37:44 UTC+0000
Exited: 1970-01-01 00:00:00 UTC+0000
Owning Process: dwm.exe
Attached Process: dwm.exe
State: Waiting:WrQueue
BasePriority: 0x8
Priority: 0x8
TEB: 0x7fffffd4000
StartAddress: 0x77cbc500 ntdll.dll
Win32Thread: 0x00000000
CrossThreadFlags: PS_CROSS_THREAD_FLAGS_DEADTHREAD
0x77cbc500 4883ec48         SUB RSP, 0x48
0x77cbc504 4c8bc9           MOV R9, RCX
0x77cbc507 488b0552da1000   MOV RAX, [RIP+0x10da52]
0x77cbc50e 4885c0           TEST RAX, RAX
0x77cbc511 0f84e3840300     JZ 0x77cf49fa
0x77cbc517 4c               DB 0x4c
------
ETHREAD: 0xfffffa8001030660 Pid: 1512 Tid: 1996
Tags: 
Created: 2019-12-11 14:37:23 UTC+0000
Exited: 1970-01-01 00:00:00 UTC+0000
Owning Process: WinRAR.exe
Attached Process: WinRAR.exe
State: Waiting:WrQueue
BasePriority: 0x8
Priority: 0x8
TEB: 0x7fffffd7000
StartAddress: 0x77cbc500 ntdll.dll
Win32Thread: 0x00000000
CrossThreadFlags: PS_CROSS_THREAD_FLAGS_DEADTHREAD
0x77cbc500 4883ec48         SUB RSP, 0x48
0x77cbc504 4c8bc9           MOV R9, RCX
0x77cbc507 488b0552da1000   MOV RAX, [RIP+0x10da52]
0x77cbc50e 4885c0           TEST RAX, RAX
0x77cbc511 0f84e3840300     JZ 0x77cf49fa
0x77cbc517 4c               DB 0x4c
------
ETHREAD: 0xfffffa8001d26620 Pid: 484 Tid: 644
Tags: 
Created: 2019-12-11 13:41:40 UTC+0000
Exited: 1970-01-01 00:00:00 UTC+0000
Owning Process: services.exe
Attached Process: services.exe
State: Waiting:WrQueue
BasePriority: 0x9
Priority: 0xa
TEB: 0x7fffffaa000
StartAddress: 0xfffff8a001952a80 UNKNOWN
Win32Thread: 0x00000000
CrossThreadFlags: PS_CROSS_THREAD_FLAGS_DEADTHREAD
0xfffff8a001952a80 a069d20180faffffa0 MOV AL, [0xa0fffffa8001d269]
0xfffff8a001952a89 69d20180faff     IMUL EDX, EDX, 0xfffa8001
0xfffff8a001952a8f ff902a9501a0     CALL QWORD [RAX-0x5ffe6ad6]
0xfffff8a001952a95 f8               CLC
0xfffff8a001952a96 ff               DB 0xff
0xfffff8a001952a97 ff               DB 0xff
------
ETHREAD: 0xfffffa8002271b60 Pid: 492 Tid: 2696
Tags: 
Created: 2019-12-11 14:33:02 UTC+0000
Exited: 1970-01-01 00:00:00 UTC+0000
Owning Process: lsass.exe
Attached Process: lsass.exe
State: Waiting:UserRequest
BasePriority: 0x9
Priority: 0xb
TEB: 0x7fffffa8000
StartAddress: 0x77cbc500 ntdll.dll
Win32Thread: 0x00000000
CrossThreadFlags: PS_CROSS_THREAD_FLAGS_DEADTHREAD
0x77cbc500 4883ec48         SUB RSP, 0x48
0x77cbc504 4c8bc9           MOV R9, RCX
0x77cbc507 488b0552da1000   MOV RAX, [RIP+0x10da52]
0x77cbc50e 4885c0           TEST RAX, RAX
0x77cbc511 0f84e3840300     JZ 0x77cf49fa
0x77cbc517 4c               DB 0x4c
------
ETHREAD: 0xfffffa800214d060 Pid: 480 Tid: 1224
Tags: 
Created: 2019-12-11 14:16:16 UTC+0000
Exited: 1970-01-01 00:00:00 UTC+0000
Owning Process: SearchIndexer.
Attached Process: SearchIndexer.
State: Waiting:UserRequest
BasePriority: 0x8
Priority: 0x9
TEB: 0x7fffffa6000
StartAddress: 0x77cbc500 ntdll.dll
Win32Thread: 0x00000000
CrossThreadFlags: PS_CROSS_THREAD_FLAGS_DEADTHREAD
0x77cbc500 4883ec48         SUB RSP, 0x48
0x77cbc504 4c8bc9           MOV R9, RCX
0x77cbc507 488b0552da1000   MOV RAX, [RIP+0x10da52]
0x77cbc50e 4885c0           TEST RAX, RAX
0x77cbc511 0f84e3840300     JZ 0x77cf49fa
0x77cbc517 4c               DB 0x4c
------
ETHREAD: 0xfffffa8000e6c950 Pid: 2524 Tid: 2052
Tags: 
Created: 2019-12-11 14:37:21 UTC+0000
Exited: 1970-01-01 00:00:00 UTC+0000
Owning Process: SearchProtocol
Attached Process: SearchProtocol
State: Waiting:UserRequest
BasePriority: 0x4
Priority: 0x4
TEB: 0x7fffffdc000
StartAddress: 0x77cbc500 ntdll.dll
Win32Thread: 0x00000000
CrossThreadFlags: PS_CROSS_THREAD_FLAGS_DEADTHREAD
0x77cbc500 4883ec48         SUB RSP, 0x48
0x77cbc504 4c8bc9           MOV R9, RCX
0x77cbc507 488b0552da1000   MOV RAX, [RIP+0x10da52]
0x77cbc50e 4885c0           TEST RAX, RAX
0x77cbc511 0f84e3840300     JZ 0x77cf49fa
0x77cbc517 4c               DB 0x4c
------
ETHREAD: 0xfffffa8002190060 Pid: 604 Tid: 2220
Tags: 
Created: 2019-12-11 14:32:41 UTC+0000
Exited: 1970-01-01 00:00:00 UTC+0000
Owning Process: explorer.exe
Attached Process: explorer.exe
State: Waiting:UserRequest
BasePriority: 0x8
Priority: 0xa
TEB: 0x7fffff9a000
StartAddress: 0xfffffa80021903e0 UNKNOWN
Win32Thread: 0xfffff900c2191010
CrossThreadFlags: PS_CROSS_THREAD_FLAGS_DEADTHREAD
0xfffffa80021903e0 e003             LOOPNZ 0xfffffa80021903e5
0xfffffa80021903e2 1902             SBB [RDX], EAX
0xfffffa80021903e4 80faff           CMP DL, 0xff
0xfffffa80021903e7 ffe0             JMP RAX
0xfffffa80021903e9 0319             ADD EBX, [RCX]
0xfffffa80021903eb 0280faffff00     ADD AL, [RAX+0xfffffa]
0xfffffa80021903f1 0000             ADD [RAX], AL
0xfffffa80021903f3 0000             ADD [RAX], AL
0xfffffa80021903f5 0000             ADD [RAX], AL
0xfffffa80021903f7 00               DB 0x0
------
ETHREAD: 0x3fb30500 Pid: 2868 Tid: 2824
Tags: ScannerOnly
Created: 2019-12-11 14:37:23 UTC+0000
Exited: 1970-01-01 00:00:00 UTC+0000
Owning Process: SearchProtocol
Attached Process: SearchProtocol
State: Waiting:UserRequest
BasePriority: 0x4
Priority: 0x4
TEB: 0x7fffffda000
StartAddress: 0x77cbc500 ntdll.dll
Win32Thread: 0xfffff900c1ae76b0
CrossThreadFlags: PS_CROSS_THREAD_FLAGS_DEADTHREAD
0x77cbc500 4883ec48         SUB RSP, 0x48
0x77cbc504 4c8bc9           MOV R9, RCX
0x77cbc507 488b0552da1000   MOV RAX, [RIP+0x10da52]
0x77cbc50e 4885c0           TEST RAX, RAX
0x77cbc511 0f84e3840300     JZ 0x77cf49fa
0x77cbc517 4c               DB 0x4c
------
ETHREAD: 0xfffffa800206d630 Pid: 876 Tid: 496
Tags: 
Created: 2019-12-11 14:15:28 UTC+0000
Exited: 1970-01-01 00:00:00 UTC+0000
Owning Process: svchost.exe
Attached Process: svchost.exe
State: Waiting:UserRequest
BasePriority: 0x8
Priority: 0x8
TEB: 0x7fffff80000
StartAddress: 0x77cbc500 ntdll.dll
Win32Thread: 0x00000000
CrossThreadFlags: PS_CROSS_THREAD_FLAGS_DEADTHREAD
0x77cbc500 4883ec48         SUB RSP, 0x48
0x77cbc504 4c8bc9           MOV R9, RCX
0x77cbc507 488b0552da1000   MOV RAX, [RIP+0x10da52]
0x77cbc50e 4885c0           TEST RAX, RAX
0x77cbc511 0f84e3840300     JZ 0x77cf49fa
0x77cbc517 4c               DB 0x4c
------
ETHREAD: 0x3fa8eb60 Pid: 2524 Tid: 2668
Tags: ScannerOnly
Created: 2019-12-11 14:37:21 UTC+0000
Exited: 1970-01-01 00:00:00 UTC+0000
Owning Process: SearchProtocol
Attached Process: SearchProtocol
State: Waiting:WrQueue
BasePriority: 0x4
Priority: 0x4
TEB: 0x7fffffd4000
StartAddress: 0x77cbc500 ntdll.dll
Win32Thread: 0xfffff900c2301c30
CrossThreadFlags: PS_CROSS_THREAD_FLAGS_DEADTHREAD
0x77cbc500 4883ec48         SUB RSP, 0x48
0x77cbc504 4c8bc9           MOV R9, RCX
0x77cbc507 488b0552da1000   MOV RAX, [RIP+0x10da52]
0x77cbc50e 4885c0           TEST RAX, RAX
0x77cbc511 0f84e3840300     JZ 0x77cf49fa
0x77cbc517 4c               DB 0x4c
------
ETHREAD: 0xfffffa8001c62ad0 Pid: 368 Tid: 432
Tags: 
Created: 2019-12-11 13:41:34 UTC+0000
Exited: 1970-01-01 00:00:00 UTC+0000
Owning Process: csrss.exe
Attached Process: csrss.exe
State: Waiting:WrLpcReceive
BasePriority: 0xd
Priority: 0xe
TEB: 0x7fffffde000
StartAddress: 0x77cbc500 ntdll.dll
Win32Thread: 0xfffff900c01d8c30
CrossThreadFlags: PS_CROSS_THREAD_FLAGS_DEADTHREAD
0x77cbc500 4883ec48         SUB RSP, 0x48
0x77cbc504 4c8bc9           MOV R9, RCX
0x77cbc507 488b0552da1000   MOV RAX, [RIP+0x10da52]
0x77cbc50e 4885c0           TEST RAX, RAX
0x77cbc511 0f84e3840300     JZ 0x77cf49fa
0x77cbc517 4c               DB 0x4c
------
ETHREAD: 0xfffffa8001e04b60 Pid: 852 Tid: 336
Tags: 
Created: 2019-12-11 13:41:45 UTC+0000
Exited: 1970-01-01 00:00:00 UTC+0000
Owning Process: svchost.exe
Attached Process: svchost.exe
State: Waiting:UserRequest
BasePriority: 0x8
Priority: 0x9
TEB: 0x7fffffae000
StartAddress: 0xfffff8a001707e50 UNKNOWN
Win32Thread: 0xfffff900c1aa2c30
CrossThreadFlags: PS_CROSS_THREAD_FLAGS_DEADTHREAD
0xfffff8a001707e50 e04e             LOOPNZ 0xfffff8a001707ea0
0xfffff8a001707e52 e001             LOOPNZ 0xfffff8a001707e55
0xfffff8a001707e54 80faff           CMP DL, 0xff
0xfffff8a001707e57 ffe0             JMP RAX
0xfffff8a001707e59 4ee001           LOOPNZ 0xfffff8a001707e5d
0xfffff8a001707e5c 80faff           CMP DL, 0xff
0xfffff8a001707e5f ff607e           JMP QWORD [RAX+0x7e]
0xfffff8a001707e62 7001             JO 0xfffff8a001707e65
0xfffff8a001707e64 a0               DB 0xa0
0xfffff8a001707e65 f8               CLC
0xfffff8a001707e66 ff               DB 0xff
0xfffff8a001707e67 ff               DB 0xff
------
ETHREAD: 0xfffffa8001d51640 Pid: 720 Tid: 744
Tags: 
Created: 2019-12-11 13:41:41 UTC+0000
Exited: 2019-12-11 14:15:13 UTC+0000
Owning Process: svchost.exe
Attached Process: svchost.exe
State: Terminated
BasePriority: 0x8
Priority: 0x8
TEB: 0x00000000
StartAddress: 0x77cbc500 ntdll.dll
Win32Thread: 0x00000000
CrossThreadFlags: PS_CROSS_THREAD_FLAGS_DEADTHREAD, PS_CROSS_THREAD_FLAGS_TERMINATED
0x77cbc500 4883ec48         SUB RSP, 0x48
0x77cbc504 4c8bc9           MOV R9, RCX
0x77cbc507 488b0552da1000   MOV RAX, [RIP+0x10da52]
0x77cbc50e 4885c0           TEST RAX, RAX
0x77cbc511 0f84e3840300     JZ 0x77cf49fa
0x77cbc517 4c               DB 0x4c
------
ETHREAD: 0xfffffa8001e2ba60 Pid: 876 Tid: 704
Tags: 
Created: 2019-12-11 13:41:47 UTC+0000
Exited: 2019-12-11 13:41:47 UTC+0000
Owning Process: svchost.exe
Attached Process: svchost.exe
State: Terminated
BasePriority: 0x8
Priority: 0x8
TEB: 0x00000000
StartAddress: 0x77cbc500 ntdll.dll
Win32Thread: 0x00000000
CrossThreadFlags: PS_CROSS_THREAD_FLAGS_DEADTHREAD, PS_CROSS_THREAD_FLAGS_TERMINATED
0x77cbc500 4883ec48         SUB RSP, 0x48
0x77cbc504 4c8bc9           MOV R9, RCX
0x77cbc507 488b0552da1000   MOV RAX, [RIP+0x10da52]
0x77cbc50e 4885c0           TEST RAX, RAX
0x77cbc511 0f84e3840300     JZ 0x77cf49fa
0x77cbc517 4c               DB 0x4c
------
ETHREAD: 0xfffffa8001e55060 Pid: 1044 Tid: 1060
Tags: 
Created: 2019-12-11 13:41:48 UTC+0000
Exited: 2019-12-11 14:15:16 UTC+0000
Owning Process: svchost.exe
Attached Process: svchost.exe
State: Terminated
BasePriority: 0x8
Priority: 0x8
TEB: 0x00000000
StartAddress: 0xfffffa8001e553e0 UNKNOWN
Win32Thread: 0x00000000
CrossThreadFlags: PS_CROSS_THREAD_FLAGS_DEADTHREAD, PS_CROSS_THREAD_FLAGS_TERMINATED
0xfffffa8001e553e0 e053             LOOPNZ 0xfffffa8001e55435
0xfffffa8001e553e2 e501             IN EAX, 0x1
0xfffffa8001e553e4 80faff           CMP DL, 0xff
0xfffffa8001e553e7 ffe0             JMP RAX
0xfffffa8001e553e9 53               PUSH RBX
0xfffffa8001e553ea e501             IN EAX, 0x1
0xfffffa8001e553ec 80faff           CMP DL, 0xff
0xfffffa8001e553ef ff00             INC DWORD [RAX]
0xfffffa8001e553f1 0000             ADD [RAX], AL
0xfffffa8001e553f3 0000             ADD [RAX], AL
0xfffffa8001e553f5 0000             ADD [RAX], AL
0xfffffa8001e553f7 00               DB 0x0
------
ETHREAD: 0xfffffa8000fb6060 Pid: 2304 Tid: 564
Tags: 
Created: 2019-12-11 14:37:14 UTC+0000
Exited: 1970-01-01 00:00:00 UTC+0000
Owning Process: VBoxTray.exe
Attached Process: VBoxTray.exe
State: Waiting:UserRequest
BasePriority: 0x8
Priority: 0x8
TEB: 0x7fffffa2000
StartAddress: 0x77cbc500 ntdll.dll
Win32Thread: 0x00000000
CrossThreadFlags: PS_CROSS_THREAD_FLAGS_DEADTHREAD
0x77cbc500 4883ec48         SUB RSP, 0x48
0x77cbc504 4c8bc9           MOV R9, RCX
0x77cbc507 488b0552da1000   MOV RAX, [RIP+0x10da52]
0x77cbc50e 4885c0           TEST RAX, RAX
0x77cbc511 0f84e3840300     JZ 0x77cf49fa
0x77cbc517 4c               DB 0x4c
------
ETHREAD: 0xfffffa8001e36060 Pid: 416 Tid: 2580
Tags: 
Created: 2019-12-11 14:37:05 UTC+0000
Exited: 1970-01-01 00:00:00 UTC+0000
Owning Process: winlogon.exe
Attached Process: winlogon.exe
State: Waiting:WrQueue
BasePriority: 0xd
Priority: 0xd
TEB: 0x7fffffd5000
StartAddress: 0x77cbc500 ntdll.dll
Win32Thread: 0x00000000
CrossThreadFlags: PS_CROSS_THREAD_FLAGS_DEADTHREAD
0x77cbc500 4883ec48         SUB RSP, 0x48
0x77cbc504 4c8bc9           MOV R9, RCX
0x77cbc507 488b0552da1000   MOV RAX, [RIP+0x10da52]
0x77cbc50e 4885c0           TEST RAX, RAX
0x77cbc511 0f84e3840300     JZ 0x77cf49fa
0x77cbc517 4c               DB 0x4c
------
ETHREAD: 0xfffffa80022475b0 Pid: 2064 Tid: 2624
Tags: 
Created: 2019-12-11 14:34:28 UTC+0000
Exited: 1970-01-01 00:00:00 UTC+0000
Owning Process: audiodg.exe
Attached Process: audiodg.exe
State: Waiting:WrQueue
BasePriority: 0x8
Priority: 0xa
TEB: 0x7fffffaa000
StartAddress: 0x77cbc500 ntdll.dll
Win32Thread: 0xfffff900c1ad1010
CrossThreadFlags: PS_CROSS_THREAD_FLAGS_DEADTHREAD
0x77cbc500 4883ec48         SUB RSP, 0x48
0x77cbc504 4c8bc9           MOV R9, RCX
0x77cbc507 488b0552da1000   MOV RAX, [RIP+0x10da52]
0x77cbc50e 4885c0           TEST RAX, RAX
0x77cbc511 0f84e3840300     JZ 0x77cf49fa
0x77cbc517 4c               DB 0x4c
------
ETHREAD: 0xfffffa8001e37640 Pid: 852 Tid: 960
Tags: 
Created: 2019-12-11 13:41:47 UTC+0000
Exited: 1970-01-01 00:00:00 UTC+0000
Owning Process: svchost.exe
Attached Process: svchost.exe
State: Waiting:UserRequest
BasePriority: 0x8
Priority: 0x9
TEB: 0x7fffff9a000
StartAddress: 0xfffff8a001775d50 UNKNOWN
Win32Thread: 0x00000000
CrossThreadFlags: PS_CROSS_THREAD_FLAGS_DEADTHREAD
0xfffff8a001775d50 c079e301         SAR BYTE [RCX-0x1d], 0x1
0xfffff8a001775d54 80faff           CMP DL, 0xff
0xfffff8a001775d57 ffc0             INC EAX
0xfffff8a001775d59 79e3             JNS 0xfffff8a001775d3e
0xfffff8a001775d5b 0180faffff60     ADD [RAX+0x60fffffa], EAX
0xfffff8a001775d61 5d               POP RBP
0xfffff8a001775d62 7701             JA 0xfffff8a001775d65
0xfffff8a001775d64 a0               DB 0xa0
0xfffff8a001775d65 f8               CLC
0xfffff8a001775d66 ff               DB 0xff
0xfffff8a001775d67 ff               DB 0xff
------
ETHREAD: 0x3fb3a060 Pid: 1512 Tid: 2492
Tags: ScannerOnly
Created: 2019-12-11 14:37:23 UTC+0000
Exited: 1970-01-01 00:00:00 UTC+0000
Owning Process: WinRAR.exe
Attached Process: WinRAR.exe
State: Waiting:WrQueue
BasePriority: 0x8
Priority: 0x9
TEB: 0x7fffffdb000
StartAddress: 0x77cbc500 ntdll.dll
Win32Thread: 0x00000000
CrossThreadFlags: PS_CROSS_THREAD_FLAGS_DEADTHREAD
0x77cbc500 4883ec48         SUB RSP, 0x48
0x77cbc504 4c8bc9           MOV R9, RCX
0x77cbc507 488b0552da1000   MOV RAX, [RIP+0x10da52]
0x77cbc50e 4885c0           TEST RAX, RAX
0x77cbc511 0f84e3840300     JZ 0x77cf49fa
0x77cbc517 4c               DB 0x4c
------
ETHREAD: 0xfffffa80021e9060 Pid: 604 Tid: 2204
Tags: 
Created: 2019-12-11 14:32:41 UTC+0000
Exited: 1970-01-01 00:00:00 UTC+0000
Owning Process: explorer.exe
Attached Process: explorer.exe
State: Waiting:UserRequest
BasePriority: 0x8
Priority: 0x9
TEB: 0x7fffff9e000
StartAddress: 0x77cbc500 ntdll.dll
Win32Thread: 0xfffff900c1abcc30
CrossThreadFlags: PS_CROSS_THREAD_FLAGS_DEADTHREAD
0x77cbc500 4883ec48         SUB RSP, 0x48
0x77cbc504 4c8bc9           MOV R9, RCX
0x77cbc507 488b0552da1000   MOV RAX, [RIP+0x10da52]
0x77cbc50e 4885c0           TEST RAX, RAX
0x77cbc511 0f84e3840300     JZ 0x77cf49fa
0x77cbc517 4c               DB 0x4c
------
ETHREAD: 0xfffffa800226db60 Pid: 2368 Tid: 2700
Tags: 
Created: 2019-12-11 14:33:03 UTC+0000
Exited: 1970-01-01 00:00:00 UTC+0000
Owning Process: svchost.exe
Attached Process: svchost.exe
State: Waiting:WrQueue
BasePriority: 0x8
Priority: 0x8
TEB: 0x7fffffae000
StartAddress: 0x77cbc500 ntdll.dll
Win32Thread: 0x00000000
CrossThreadFlags: PS_CROSS_THREAD_FLAGS_DEADTHREAD
0x77cbc500 4883ec48         SUB RSP, 0x48
0x77cbc504 4c8bc9           MOV R9, RCX
0x77cbc507 488b0552da1000   MOV RAX, [RIP+0x10da52]
0x77cbc50e 4885c0           TEST RAX, RAX
0x77cbc511 0f84e3840300     JZ 0x77cf49fa
0x77cbc517 4c               DB 0x4c
------
ETHREAD: 0xfffffa800103c6f0 Pid: 480 Tid: 2404
Tags: 
Created: 2019-12-11 14:37:27 UTC+0000
Exited: 2019-12-11 14:37:27 UTC+0000
Owning Process: SearchIndexer.
Attached Process: SearchIndexer.
State: Terminated
BasePriority: 0x8
Priority: 0x8
TEB: 0x00000000
StartAddress: 0x77cbc500 ntdll.dll
Win32Thread: 0x00000000
CrossThreadFlags: PS_CROSS_THREAD_FLAGS_DEADTHREAD, PS_CROSS_THREAD_FLAGS_TERMINATED
0x77cbc500 4883ec48         SUB RSP, 0x48
0x77cbc504 4c8bc9           MOV R9, RCX
0x77cbc507 488b0552da1000   MOV RAX, [RIP+0x10da52]
0x77cbc50e 4885c0           TEST RAX, RAX
0x77cbc511 0f84e3840300     JZ 0x77cf49fa
0x77cbc517 4c               DB 0x4c
------
ETHREAD: 0xfffffa800220d660 Pid: 472 Tid: 2324
Tags: 
Created: 2019-12-11 14:32:50 UTC+0000
Exited: 1970-01-01 00:00:00 UTC+0000
Owning Process: svchost.exe
Attached Process: svchost.exe
State: Waiting:UserRequest
BasePriority: 0x8
Priority: 0x9
TEB: 0x7fffff96000
StartAddress: 0x77cbc500 ntdll.dll
Win32Thread: 0x00000000
CrossThreadFlags: PS_CROSS_THREAD_FLAGS_DEADTHREAD
0x77cbc500 4883ec48         SUB RSP, 0x48
0x77cbc504 4c8bc9           MOV R9, RCX
0x77cbc507 488b0552da1000   MOV RAX, [RIP+0x10da52]
0x77cbc50e 4885c0           TEST RAX, RAX
0x77cbc511 0f84e3840300     JZ 0x77cf49fa
0x77cbc517 4c               DB 0x4c
------
ETHREAD: 0x3fb77060 Pid: 604 Tid: 2072
Tags: ScannerOnly
Created: 2019-12-11 14:37:52 UTC+0000
Exited: 1970-01-01 00:00:00 UTC+0000
Owning Process: explorer.exe
Attached Process: explorer.exe
State: Waiting:WrQueue
BasePriority: 0x8
Priority: 0xa
TEB: 0x7fffff72000
StartAddress: 0x77cbc500 ntdll.dll
Win32Thread: 0x00000000
CrossThreadFlags: PS_CROSS_THREAD_FLAGS_DEADTHREAD
0x77cbc500 4883ec48         SUB RSP, 0x48
0x77cbc504 4c8bc9           MOV R9, RCX
0x77cbc507 488b0552da1000   MOV RAX, [RIP+0x10da52]
0x77cbc50e 4885c0           TEST RAX, RAX
0x77cbc511 0f84e3840300     JZ 0x77cf49fa
0x77cbc517 4c               DB 0x4c
------
ETHREAD: 0xfffffa80022643e0 Pid: 604 Tid: 2556
Tags: 
Created: 2019-12-11 14:32:54 UTC+0000
Exited: 1970-01-01 00:00:00 UTC+0000
Owning Process: explorer.exe
Attached Process: explorer.exe
State: Waiting:WrQueue
BasePriority: 0x8
Priority: 0xa
TEB: 0x7fffff84000
StartAddress: 0xfffff8a001f35140 UNKNOWN
Win32Thread: 0x00000000
CrossThreadFlags: PS_CROSS_THREAD_FLAGS_DEADTHREAD
0xfffff8a001f35140 60               DB 0x60
0xfffff8a001f35141 47260280faffffd0 ADD AL, [R8-0x2f000006]
0xfffff8a001f35149 45fd             STD
0xfffff8a001f3514b 01a0f8ffff50     ADD [RAX+0x50fffff8], ESP
0xfffff8a001f35151 51               PUSH RCX
0xfffff8a001f35152 f3               DB 0xf3
0xfffff8a001f35153 01               DB 0x1
0xfffff8a001f35154 a0               DB 0xa0
0xfffff8a001f35155 f8               CLC
0xfffff8a001f35156 ff               DB 0xff
0xfffff8a001f35157 ff               DB 0xff
------
ETHREAD: 0xfffffa800100a950 Pid: 2524 Tid: 440
Tags: 
Created: 2019-12-11 14:37:21 UTC+0000
Exited: 1970-01-01 00:00:00 UTC+0000
Owning Process: SearchProtocol
Attached Process: SearchProtocol
State: Waiting:DelayExecution
BasePriority: 0x4
Priority: 0x4
TEB: 0x7fffffac000
StartAddress: 0x77cbc500 ntdll.dll
Win32Thread: 0xfffff900c22f1c30
CrossThreadFlags: PS_CROSS_THREAD_FLAGS_DEADTHREAD
0x77cbc500 4883ec48         SUB RSP, 0x48
0x77cbc504 4c8bc9           MOV R9, RCX
0x77cbc507 488b0552da1000   MOV RAX, [RIP+0x10da52]
0x77cbc50e 4885c0           TEST RAX, RAX
0x77cbc511 0f84e3840300     JZ 0x77cf49fa
0x77cbc517 4c               DB 0x4c
------
ETHREAD: 0xfffffa800221f060 Pid: 2368 Tid: 2392
Tags: 
Created: 2019-12-11 14:32:51 UTC+0000
Exited: 2019-12-11 14:32:53 UTC+0000
Owning Process: svchost.exe
Attached Process: svchost.exe
State: Terminated
BasePriority: 0x8
Priority: 0x9
TEB: 0x00000000
StartAddress: 0xfffffa800221f3e0 UNKNOWN
Win32Thread: 0x00000000
CrossThreadFlags: PS_CROSS_THREAD_FLAGS_DEADTHREAD, PS_CROSS_THREAD_FLAGS_TERMINATED
0xfffffa800221f3e0 e0f3             LOOPNZ 0xfffffa800221f3d5
0xfffffa800221f3e2 2102             AND [RDX], EAX
0xfffffa800221f3e4 80faff           CMP DL, 0xff
0xfffffa800221f3e7 ffe0             JMP RAX
0xfffffa800221f3e9 f32102           AND [RDX], EAX
0xfffffa800221f3ec 80faff           CMP DL, 0xff
0xfffffa800221f3ef ff00             INC DWORD [RAX]
0xfffffa800221f3f1 0000             ADD [RAX], AL
0xfffffa800221f3f3 0000             ADD [RAX], AL
0xfffffa800221f3f5 0000             ADD [RAX], AL
0xfffffa800221f3f7 00               DB 0x0
------
ETHREAD: 0xfffffa8000eb65c0 Pid: 2660 Tid: 3024
Tags: 
Created: 2019-12-11 14:35:14 UTC+0000
Exited: 1970-01-01 00:00:00 UTC+0000
Owning Process: svchost.exe
Attached Process: svchost.exe
State: Waiting:UserRequest
BasePriority: 0x8
Priority: 0x8
TEB: 0x7fffffae000
StartAddress: 0x77cbc500 ntdll.dll
Win32Thread: 0x00000000
CrossThreadFlags: PS_CROSS_THREAD_FLAGS_DEADTHREAD
0x77cbc500 4883ec48         SUB RSP, 0x48
0x77cbc504 4c8bc9           MOV R9, RCX
0x77cbc507 488b0552da1000   MOV RAX, [RIP+0x10da52]
0x77cbc50e 4885c0           TEST RAX, RAX
0x77cbc511 0f84e3840300     JZ 0x77cf49fa
0x77cbc517 4c               DB 0x4c
------
ETHREAD: 0xfffffa8000e85670 Pid: 816 Tid: 1656
Tags: 
Created: 2019-12-11 14:37:08 UTC+0000
Exited: 1970-01-01 00:00:00 UTC+0000
Owning Process: svchost.exe
Attached Process: svchost.exe
State: Waiting:WrQueue
BasePriority: 0x8
Priority: 0x8
TEB: 0x7fffffd8000
StartAddress: 0x77cbc500 ntdll.dll
Win32Thread: 0x00000000
CrossThreadFlags: PS_CROSS_THREAD_FLAGS_DEADTHREAD
0x77cbc500 4883ec48         SUB RSP, 0x48
0x77cbc504 4c8bc9           MOV R9, RCX
0x77cbc507 488b0552da1000   MOV RAX, [RIP+0x10da52]
0x77cbc50e 4885c0           TEST RAX, RAX
0x77cbc511 0f84e3840300     JZ 0x77cf49fa
0x77cbc517 4c               DB 0x4c
------
ETHREAD: 0xfffffa8000d34b60 Pid: 1208 Tid: 1364
Tags: 
Created: 2019-12-11 14:15:59 UTC+0000
Exited: 1970-01-01 00:00:00 UTC+0000
Owning Process: spoolsv.exe
Attached Process: spoolsv.exe
State: Waiting:UserRequest
BasePriority: 0x8
Priority: 0x8
TEB: 0x7fffffa0000
StartAddress: 0x77cbc500 ntdll.dll
Win32Thread: 0x00000000
CrossThreadFlags: PS_CROSS_THREAD_FLAGS_DEADTHREAD
0x77cbc500 4883ec48         SUB RSP, 0x48
0x77cbc504 4c8bc9           MOV R9, RCX
0x77cbc507 488b0552da1000   MOV RAX, [RIP+0x10da52]
0x77cbc50e 4885c0           TEST RAX, RAX
0x77cbc511 0f84e3840300     JZ 0x77cf49fa
0x77cbc517 4c               DB 0x4c
------
ETHREAD: 0xfffffa80020989f0 Pid: 1508 Tid: 1540
Tags: 
Created: 2019-12-11 14:16:07 UTC+0000
Exited: 1970-01-01 00:00:00 UTC+0000
Owning Process: sppsvc.exe
Attached Process: sppsvc.exe
State: Waiting:UserRequest
BasePriority: 0x8
Priority: 0x8
TEB: 0x7fffffdb000
StartAddress: 0x77cbc500 ntdll.dll
Win32Thread: 0x00000000
CrossThreadFlags: PS_CROSS_THREAD_FLAGS_DEADTHREAD
0x77cbc500 4883ec48         SUB RSP, 0x48
0x77cbc504 4c8bc9           MOV R9, RCX
0x77cbc507 488b0552da1000   MOV RAX, [RIP+0x10da52]
0x77cbc50e 4885c0           TEST RAX, RAX
0x77cbc511 0f84e3840300     JZ 0x77cf49fa
0x77cbc517 4c               DB 0x4c
------
ETHREAD: 0xfffffa8001e42060 Pid: 876 Tid: 1664
Tags: 
Created: 2019-12-11 14:32:24 UTC+0000
Exited: 2019-12-11 14:32:24 UTC+0000
Owning Process: svchost.exe
Attached Process: svchost.exe
State: Terminated
BasePriority: 0x8
Priority: 0x9
TEB: 0x00000000
StartAddress: 0x77cbc500 ntdll.dll
Win32Thread: 0x00000000
CrossThreadFlags: PS_CROSS_THREAD_FLAGS_DEADTHREAD, PS_CROSS_THREAD_FLAGS_TERMINATED
0x77cbc500 4883ec48         SUB RSP, 0x48
0x77cbc504 4c8bc9           MOV R9, RCX
0x77cbc507 488b0552da1000   MOV RAX, [RIP+0x10da52]
0x77cbc50e 4885c0           TEST RAX, RAX
0x77cbc511 0f84e3840300     JZ 0x77cf49fa
0x77cbc517 4c               DB 0x4c
------
ETHREAD: 0x3faad620 Pid: 2868 Tid: 1136
Tags: ScannerOnly
Created: 2019-12-11 14:37:23 UTC+0000
Exited: 1970-01-01 00:00:00 UTC+0000
Owning Process: SearchProtocol
Attached Process: SearchProtocol
State: Waiting:WrQueue
BasePriority: 0x4
Priority: 0x5
TEB: 0x7fffffd3000
StartAddress: 0x77cbc500 ntdll.dll
Win32Thread: 0xfffff900c1aeb850
CrossThreadFlags: PS_CROSS_THREAD_FLAGS_DEADTHREAD
0x77cbc500 4883ec48         SUB RSP, 0x48
0x77cbc504 4c8bc9           MOV R9, RCX
0x77cbc507 488b0552da1000   MOV RAX, [RIP+0x10da52]
0x77cbc50e 4885c0           TEST RAX, RAX
0x77cbc511 0f84e3840300     JZ 0x77cf49fa
0x77cbc517 4c               DB 0x4c
------
ETHREAD: 0xfffffa8001f142d0 Pid: 4 Tid: 1292
Tags: 
Created: 2019-12-11 13:41:53 UTC+0000
Exited: 1970-01-01 00:00:00 UTC+0000
Owning Process: System
Attached Process: System
State: Waiting:Executive
BasePriority: 0x8
Priority: 0x8
TEB: 0x00000000
StartAddress: 0xfffff88002523230 mpsdrv.sys
Win32Thread: 0x00000000
CrossThreadFlags: PS_CROSS_THREAD_FLAGS_DEADTHREAD
0xfffff88002523230 4c8bdc           MOV R11, RSP
0xfffff88002523233 49895b10         MOV [R11+0x10], RBX
0xfffff88002523237 49897318         MOV [R11+0x18], RSI
0xfffff8800252323b 57               PUSH RDI
0xfffff8800252323c 4883ec70         SUB RSP, 0x70
0xfffff88002523240 488d0519490000   LEA RAX, [RIP+0x4919]
0xfffff88002523247 49               DB 0x49
------
ETHREAD: 0xfffffa800133a680 Pid: 4 Tid: 196
Tags: 
Created: 2019-12-11 13:41:22 UTC+0000
Exited: 1970-01-01 00:00:00 UTC+0000
Owning Process: System
Attached Process: System
State: Waiting:Executive
BasePriority: 0x8
Priority: 0x8
TEB: 0x00000000
StartAddress: 0xfffff880018dd900 volsnap.sys
Win32Thread: 0x00000000
CrossThreadFlags: PS_CROSS_THREAD_FLAGS_DEADTHREAD
0xfffff880018dd900 48895c2408       MOV [RSP+0x8], RBX
0xfffff880018dd905 48896c2410       MOV [RSP+0x10], RBP
0xfffff880018dd90a 4889742418       MOV [RSP+0x18], RSI
0xfffff880018dd90f 57               PUSH RDI
0xfffff880018dd910 4883ec30         SUB RSP, 0x30
0xfffff880018dd914 488b7928         MOV RDI, [RCX+0x28]
------
ETHREAD: 0xfffffa8001dc6060 Pid: 376 Tid: 936
Tags: 
Created: 2019-12-11 13:41:43 UTC+0000
Exited: 1970-01-01 00:00:00 UTC+0000
Owning Process: psxss.exe
Attached Process: psxss.exe
State: Waiting:UserRequest
BasePriority: 0xd
Priority: 0xd
TEB: 0x7fffffd3000
StartAddress: 0x77cbc500 ntdll.dll
Win32Thread: 0x00000000
CrossThreadFlags: PS_CROSS_THREAD_FLAGS_DEADTHREAD
0x77cbc500 4883ec48         SUB RSP, 0x48
0x77cbc504 4c8bc9           MOV R9, RCX
0x77cbc507 488b0552da1000   MOV RAX, [RIP+0x10da52]
0x77cbc50e 4885c0           TEST RAX, RAX
0x77cbc511 0f84e3840300     JZ 0x77cf49fa
0x77cbc517 4c               DB 0x4c
------
ETHREAD: 0xfffffa8000cbf040 Pid: 4 Tid: 88
Tags: 
Created: 2019-12-11 13:41:22 UTC+0000
Exited: 1970-01-01 00:00:00 UTC+0000
Owning Process: System
Attached Process: System
State: Waiting:WrFreePage
BasePriority: 0x8
Priority: 0x11
TEB: 0x00000000
StartAddress: 0xfffff8000262f230 ntoskrnl.exe
Win32Thread: 0x00000000
CrossThreadFlags: PS_CROSS_THREAD_FLAGS_DEADTHREAD
0xfffff8000262f230 48895c2408       MOV [RSP+0x8], RBX
0xfffff8000262f235 48896c2418       MOV [RSP+0x18], RBP
0xfffff8000262f23a 48897c2420       MOV [RSP+0x20], RDI
0xfffff8000262f23f 4154             PUSH R12
0xfffff8000262f241 4883ec50         SUB RSP, 0x50
0xfffff8000262f245 e8               DB 0xe8
0xfffff8000262f246 16               DB 0x16
0xfffff8000262f247 ca               DB 0xca
------
ETHREAD: 0xfffffa8000cb9040 Pid: 4 Tid: 48
Tags: 
Created: 2019-12-11 13:41:22 UTC+0000
Exited: 1970-01-01 00:00:00 UTC+0000
Owning Process: System
Attached Process: System
State: Waiting:WrQueue
BasePriority: 0xc
Priority: 0xf
TEB: 0x00000000
StartAddress: 0xfffff800026a9910 ntoskrnl.exe
Win32Thread: 0x00000000
CrossThreadFlags: PS_CROSS_THREAD_FLAGS_DEADTHREAD
0xfffff800026a9910 4c8bdc           MOV R11, RSP
0xfffff800026a9913 49895b10         MOV [R11+0x10], RBX
0xfffff800026a9917 49896b18         MOV [R11+0x18], RBP
0xfffff800026a991b 49897320         MOV [R11+0x20], RSI
0xfffff800026a991f 57               PUSH RDI
0xfffff800026a9920 4154             PUSH R12
0xfffff800026a9922 4155             PUSH R13
0xfffff800026a9924 4156             PUSH R14
0xfffff800026a9926 4157             PUSH R15
------
ETHREAD: 0xfffffa8001cf9b60 Pid: 588 Tid: 600
Tags: 
Created: 2019-12-11 13:41:39 UTC+0000
Exited: 2019-12-11 14:18:22 UTC+0000
Owning Process: svchost.exe
Attached Process: svchost.exe
State: Terminated
BasePriority: 0x8
Priority: 0x8
TEB: 0x00000000
StartAddress: 0x77cbc500 ntdll.dll
Win32Thread: 0x00000000
CrossThreadFlags: PS_CROSS_THREAD_FLAGS_DEADTHREAD, PS_CROSS_THREAD_FLAGS_TERMINATED
0x77cbc500 4883ec48         SUB RSP, 0x48
0x77cbc504 4c8bc9           MOV R9, RCX
0x77cbc507 488b0552da1000   MOV RAX, [RIP+0x10da52]
0x77cbc50e 4885c0           TEST RAX, RAX
0x77cbc511 0f84e3840300     JZ 0x77cf49fa
0x77cbc517 4c               DB 0x4c
------
ETHREAD: 0xfffffa8000f7d9e0 Pid: 2504 Tid: 808
Tags: 
Created: 2019-12-11 14:37:14 UTC+0000
Exited: 1970-01-01 00:00:00 UTC+0000
Owning Process: explorer.exe
Attached Process: explorer.exe
State: Waiting:UserRequest
BasePriority: 0x8
Priority: 0x8
TEB: 0x7fffffae000
StartAddress: 0x77cbc500 ntdll.dll
Win32Thread: 0xfffff900c22c3c30
CrossThreadFlags: PS_CROSS_THREAD_FLAGS_DEADTHREAD
0x77cbc500 4883ec48         SUB RSP, 0x48
0x77cbc504 4c8bc9           MOV R9, RCX
0x77cbc507 488b0552da1000   MOV RAX, [RIP+0x10da52]
0x77cbc50e 4885c0           TEST RAX, RAX
0x77cbc511 0f84e3840300     JZ 0x77cf49fa
0x77cbc517 4c               DB 0x4c
------
ETHREAD: 0xfffffa8001de64b0 Pid: 296 Tid: 1748
Tags: 
Created: 2019-12-11 14:32:24 UTC+0000
Exited: 1970-01-01 00:00:00 UTC+0000
Owning Process: taskhost.exe
Attached Process: taskhost.exe
State: Waiting:UserRequest
BasePriority: 0x8
Priority: 0x9
TEB: 0x7fffffdd000
StartAddress: 0x77cbc500 ntdll.dll
Win32Thread: 0xfffff900c2193010
CrossThreadFlags: PS_CROSS_THREAD_FLAGS_DEADTHREAD
0x77cbc500 4883ec48         SUB RSP, 0x48
0x77cbc504 4c8bc9           MOV R9, RCX
0x77cbc507 488b0552da1000   MOV RAX, [RIP+0x10da52]
0x77cbc50e 4885c0           TEST RAX, RAX
0x77cbc511 0f84e3840300     JZ 0x77cf49fa
0x77cbc517 4c               DB 0x4c
------
ETHREAD: 0xfffffa8001fe9060 Pid: 1044 Tid: 1496
Tags: 
Created: 2019-12-11 13:41:56 UTC+0000
Exited: 1970-01-01 00:00:00 UTC+0000
Owning Process: svchost.exe
Attached Process: svchost.exe
State: Waiting:WrQueue
BasePriority: 0x8
Priority: 0x9
TEB: 0x7fffff9a000
StartAddress: 0xfffff8a001a97620 UNKNOWN
Win32Thread: 0x00000000
CrossThreadFlags: PS_CROSS_THREAD_FLAGS_DEADTHREAD
0xfffff8a001a97620 e093             LOOPNZ 0xfffff8a001a975b5
0xfffff8a001a97622 fe01             INC BYTE [RCX]
0xfffff8a001a97624 80faff           CMP DL, 0xff
0xfffff8a001a97627 ffe0             JMP RAX
0xfffff8a001a97629 93               XCHG EBX, EAX
0xfffff8a001a9762a fe01             INC BYTE [RCX]
0xfffff8a001a9762c 80faff           CMP DL, 0xff
0xfffff8a001a9762f ff30             PUSH QWORD [RAX]
0xfffff8a001a97631 76a9             JBE 0xfffff8a001a975dc
0xfffff8a001a97633 01               DB 0x1
0xfffff8a001a97634 a0               DB 0xa0
0xfffff8a001a97635 f8               CLC
0xfffff8a001a97636 ff               DB 0xff
0xfffff8a001a97637 ff               DB 0xff
------
ETHREAD: 0xfffffa8000f841c0 Pid: 2908 Tid: 2484
Tags: 
Created: 2019-12-11 14:37:14 UTC+0000
Exited: 1970-01-01 00:00:00 UTC+0000
Owning Process: taskhost.exe
Attached Process: taskhost.exe
State: Waiting:UserRequest
BasePriority: 0x8
Priority: 0xa
TEB: 0x7fffffac000
StartAddress: 0xfffff8a001c40e60 UNKNOWN
Win32Thread: 0xfffff900c21e4c30
CrossThreadFlags: PS_CROSS_THREAD_FLAGS_DEADTHREAD
0xfffff8a001c40e60 4045f8           CLC
0xfffff8a001c40e63 0080faffff20     ADD [RAX+0x20fffffa], AL
0xfffff8a001c40e69 d7               XLAT BYTE [RBX+AL]
0xfffff8a001c40e6a 0502a0f8ff       ADD EAX, 0xfff8a002
0xfffff8a001c40e6f ff700e           PUSH QWORD [RAX+0xe]
0xfffff8a001c40e72 c4               DB 0xc4
0xfffff8a001c40e73 01               DB 0x1
0xfffff8a001c40e74 a0               DB 0xa0
0xfffff8a001c40e75 f8               CLC
0xfffff8a001c40e76 ff               DB 0xff
0xfffff8a001c40e77 ff               DB 0xff
------
ETHREAD: 0xfffffa8001d4a060 Pid: 720 Tid: 724
Tags: 
Created: 2019-12-11 13:41:41 UTC+0000
Exited: 1970-01-01 00:00:00 UTC+0000
Owning Process: svchost.exe
Attached Process: svchost.exe
State: Waiting:UserRequest
BasePriority: 0x8
Priority: 0x9
TEB: 0x7fffffdd000
StartAddress: 0x77cbc500 ntdll.dll
Win32Thread: 0x00000000
CrossThreadFlags: PS_CROSS_THREAD_FLAGS_DEADTHREAD
0x77cbc500 4883ec48         SUB RSP, 0x48
0x77cbc504 4c8bc9           MOV R9, RCX
0x77cbc507 488b0552da1000   MOV RAX, [RIP+0x10da52]
0x77cbc50e 4885c0           TEST RAX, RAX
0x77cbc511 0f84e3840300     JZ 0x77cf49fa
0x77cbc517 4c               DB 0x4c
------
ETHREAD: 0xfffffa8000efea60 Pid: 472 Tid: 2532
Tags: 
Created: 2019-12-11 14:37:19 UTC+0000
Exited: 1970-01-01 00:00:00 UTC+0000
Owning Process: svchost.exe
Attached Process: svchost.exe
State: Waiting:UserRequest
BasePriority: 0x8
Priority: 0x8
TEB: 0x7fffffaa000
StartAddress: 0x77cbc500 ntdll.dll
Win32Thread: 0xfffff900c1ae4c30
CrossThreadFlags: PS_CROSS_THREAD_FLAGS_DEADTHREAD
0x77cbc500 4883ec48         SUB RSP, 0x48
0x77cbc504 4c8bc9           MOV R9, RCX
0x77cbc507 488b0552da1000   MOV RAX, [RIP+0x10da52]
0x77cbc50e 4885c0           TEST RAX, RAX
0x77cbc511 0f84e3840300     JZ 0x77cf49fa
0x77cbc517 4c               DB 0x4c
------
ETHREAD: 0xfffffa8001eab060 Pid: 876 Tid: 2028
Tags: 
Created: 2019-12-11 14:16:17 UTC+0000
Exited: 2019-12-11 14:21:18 UTC+0000
Owning Process: svchost.exe
Attached Process: svchost.exe
State: Terminated
BasePriority: 0xf
Priority: 0xf
TEB: 0x00000000
StartAddress: 0x77cbc500 ntdll.dll
Win32Thread: 0x00000000
CrossThreadFlags: PS_CROSS_THREAD_FLAGS_DEADTHREAD, PS_CROSS_THREAD_FLAGS_TERMINATED
0x77cbc500 4883ec48         SUB RSP, 0x48
0x77cbc504 4c8bc9           MOV R9, RCX
0x77cbc507 488b0552da1000   MOV RAX, [RIP+0x10da52]
0x77cbc50e 4885c0           TEST RAX, RAX
0x77cbc511 0f84e3840300     JZ 0x77cf49fa
0x77cbc517 4c               DB 0x4c
------
ETHREAD: 0xfffffa80021c82c0 Pid: 604 Tid: 628
Tags: 
Created: 2019-12-11 14:32:36 UTC+0000
Exited: 1970-01-01 00:00:00 UTC+0000
Owning Process: explorer.exe
Attached Process: explorer.exe
State: Waiting:UserRequest
BasePriority: 0x8
Priority: 0xa
TEB: 0x7fffffaa000
StartAddress: 0x77cbc500 ntdll.dll
Win32Thread: 0xfffff900c1aecc30
CrossThreadFlags: PS_CROSS_THREAD_FLAGS_DEADTHREAD
0x77cbc500 4883ec48         SUB RSP, 0x48
0x77cbc504 4c8bc9           MOV R9, RCX
0x77cbc507 488b0552da1000   MOV RAX, [RIP+0x10da52]
0x77cbc50e 4885c0           TEST RAX, RAX
0x77cbc511 0f84e3840300     JZ 0x77cf49fa
0x77cbc517 4c               DB 0x4c
------
ETHREAD: 0x3fb1a630 Pid: 1512 Tid: 584
Tags: ScannerOnly
Created: 2019-12-11 14:37:23 UTC+0000
Exited: 1970-01-01 00:00:00 UTC+0000
Owning Process: WinRAR.exe
Attached Process: WinRAR.exe
State: Waiting:WrUserRequest
BasePriority: 0x8
Priority: 0xa
TEB: 0x7fffffdd000
StartAddress: 0xfffff8a002275430 UNKNOWN
Win32Thread: 0xfffff900c21cfae0
CrossThreadFlags: PS_CROSS_THREAD_FLAGS_DEADTHREAD
0xfffff8a002275430 b009             MOV AL, 0x9
0xfffff8a002275432 0101             ADD [RCX], EAX
0xfffff8a002275434 80faff           CMP DL, 0xff
0xfffff8a002275437 ffb009010180     PUSH QWORD [RAX-0x7ffefef7]
0xfffff8a00227543d fa               CLI
0xfffff8a00227543e ff               DB 0xff
0xfffff8a00227543f ff4054           INC DWORD [RAX+0x54]
0xfffff8a002275442 27               DB 0x27
0xfffff8a002275443 02               DB 0x2
0xfffff8a002275444 a0               DB 0xa0
0xfffff8a002275445 f8               CLC
0xfffff8a002275446 ff               DB 0xff
0xfffff8a002275447 ff               DB 0xff
------
ETHREAD: 0xfffffa8001ddb6a0 Pid: 852 Tid: 968
Tags: 
Created: 2019-12-11 13:41:45 UTC+0000
Exited: 1970-01-01 00:00:00 UTC+0000
Owning Process: svchost.exe
Attached Process: svchost.exe
State: Waiting:UserRequest
BasePriority: 0x8
Priority: 0xa
TEB: 0x7fffffac000
StartAddress: 0x77cbc500 ntdll.dll
Win32Thread: 0xfffff900c1aa9010
CrossThreadFlags: PS_CROSS_THREAD_FLAGS_DEADTHREAD
0x77cbc500 4883ec48         SUB RSP, 0x48
0x77cbc504 4c8bc9           MOV R9, RCX
0x77cbc507 488b0552da1000   MOV RAX, [RIP+0x10da52]
0x77cbc50e 4885c0           TEST RAX, RAX
0x77cbc511 0f84e3840300     JZ 0x77cf49fa
0x77cbc517 4c               DB 0x4c
------
ETHREAD: 0xfffffa8002242b60 Pid: 852 Tid: 2464
Tags: 
Created: 2019-12-11 14:32:52 UTC+0000
Exited: 1970-01-01 00:00:00 UTC+0000
Owning Process: svchost.exe
Attached Process: svchost.exe
State: Waiting:UserRequest
BasePriority: 0x8
Priority: 0x9
TEB: 0x7fffff8a000
StartAddress: 0xfffff8a001ece5f0 UNKNOWN
Win32Thread: 0x00000000
CrossThreadFlags: PS_CROSS_THREAD_FLAGS_DEADTHREAD
0xfffff8a001ece5f0 e02e             LOOPNZ 0xfffff8a001ece620
0xfffff8a001ece5f2 2402             AND AL, 0x2
0xfffff8a001ece5f4 80faff           CMP DL, 0xff
0xfffff8a001ece5f7 ffe0             JMP RAX
0xfffff8a001ece5f9 2e2402           AND AL, 0x2
0xfffff8a001ece5fc 80faff           CMP DL, 0xff
0xfffff8a001ece5ff ff00             INC DWORD [RAX]
0xfffff8a001ece601 e6ec             OUT 0xec, AL
0xfffff8a001ece603 01               DB 0x1
0xfffff8a001ece604 a0               DB 0xa0
0xfffff8a001ece605 f8               CLC
0xfffff8a001ece606 ff               DB 0xff
0xfffff8a001ece607 ff               DB 0xff
------
ETHREAD: 0xfffffa8002201b60 Pid: 2504 Tid: 2928
Tags: 
Created: 2019-12-11 14:37:20 UTC+0000
Exited: 1970-01-01 00:00:00 UTC+0000
Owning Process: explorer.exe
Attached Process: explorer.exe
State: Waiting:WrQueue
BasePriority: 0x8
Priority: 0xa
TEB: 0x7fffff88000
StartAddress: 0x77cbc500 ntdll.dll
Win32Thread: 0xfffff900c22efc30
CrossThreadFlags: PS_CROSS_THREAD_FLAGS_DEADTHREAD
0x77cbc500 4883ec48         SUB RSP, 0x48
0x77cbc504 4c8bc9           MOV R9, RCX
0x77cbc507 488b0552da1000   MOV RAX, [RIP+0x10da52]
0x77cbc50e 4885c0           TEST RAX, RAX
0x77cbc511 0f84e3840300     JZ 0x77cf49fa
0x77cbc517 4c               DB 0x4c
------
ETHREAD: 0xfffffa8001390060 Pid: 320 Tid: 352
Tags: 
Created: 2019-12-11 13:41:33 UTC+0000
Exited: 1970-01-01 00:00:00 UTC+0000
Owning Process: csrss.exe
Attached Process: csrss.exe
State: Waiting:WrLpcReceive
BasePriority: 0xd
Priority: 0xe
TEB: 0x7fffffd6000
StartAddress: 0x77cbc500 ntdll.dll
Win32Thread: 0xfffff900c00dcc30
CrossThreadFlags: PS_CROSS_THREAD_FLAGS_DEADTHREAD
0x77cbc500 4883ec48         SUB RSP, 0x48
0x77cbc504 4c8bc9           MOV R9, RCX
0x77cbc507 488b0552da1000   MOV RAX, [RIP+0x10da52]
0x77cbc50e 4885c0           TEST RAX, RAX
0x77cbc511 0f84e3840300     JZ 0x77cf49fa
0x77cbc517 4c               DB 0x4c
------
ETHREAD: 0xfffffa800214e950 Pid: 480 Tid: 2020
Tags: 
Created: 2019-12-11 14:16:16 UTC+0000
Exited: 1970-01-01 00:00:00 UTC+0000
Owning Process: SearchIndexer.
Attached Process: SearchIndexer.
State: Waiting:UserRequest
BasePriority: 0x8
Priority: 0x8
TEB: 0x7fffffa2000
StartAddress: 0x77cbc500 ntdll.dll
Win32Thread: 0x00000000
CrossThreadFlags: PS_CROSS_THREAD_FLAGS_DEADTHREAD
0x77cbc500 4883ec48         SUB RSP, 0x48
0x77cbc504 4c8bc9           MOV R9, RCX
0x77cbc507 488b0552da1000   MOV RAX, [RIP+0x10da52]
0x77cbc50e 4885c0           TEST RAX, RAX
0x77cbc511 0f84e3840300     JZ 0x77cf49fa
0x77cbc517 4c               DB 0x4c
------
ETHREAD: 0xfffffa8001ef1060 Pid: 876 Tid: 1276
Tags: 
Created: 2019-12-11 13:41:52 UTC+0000
Exited: 2019-12-11 13:41:52 UTC+0000
Owning Process: svchost.exe
Attached Process: svchost.exe
State: Terminated
BasePriority: 0x8
Priority: 0x9
TEB: 0x00000000
StartAddress: 0x77cbc500 ntdll.dll
Win32Thread: 0x00000000
CrossThreadFlags: PS_CROSS_THREAD_FLAGS_DEADTHREAD, PS_CROSS_THREAD_FLAGS_TERMINATED
0x77cbc500 4883ec48         SUB RSP, 0x48
0x77cbc504 4c8bc9           MOV R9, RCX
0x77cbc507 488b0552da1000   MOV RAX, [RIP+0x10da52]
0x77cbc50e 4885c0           TEST RAX, RAX
0x77cbc511 0f84e3840300     JZ 0x77cf49fa
0x77cbc517 4c               DB 0x4c
------
ETHREAD: 0xfffffa8000f781b0 Pid: 2504 Tid: 2120
Tags: 
Created: 2019-12-11 14:37:14 UTC+0000
Exited: 1970-01-01 00:00:00 UTC+0000
Owning Process: explorer.exe
Attached Process: explorer.exe
State: Waiting:WrQueue
BasePriority: 0x8
Priority: 0xb
TEB: 0x7fffffa6000
StartAddress: 0x77cbc500 ntdll.dll
Win32Thread: 0xfffff900c2265480
CrossThreadFlags: PS_CROSS_THREAD_FLAGS_DEADTHREAD
0x77cbc500 4883ec48         SUB RSP, 0x48
0x77cbc504 4c8bc9           MOV R9, RCX
0x77cbc507 488b0552da1000   MOV RAX, [RIP+0x10da52]
0x77cbc50e 4885c0           TEST RAX, RAX
0x77cbc511 0f84e3840300     JZ 0x77cf49fa
0x77cbc517 4c               DB 0x4c
------
ETHREAD: 0xfffffa8000ec3b60 Pid: 2504 Tid: 2156
Tags: 
Created: 2019-12-11 14:37:19 UTC+0000
Exited: 1970-01-01 00:00:00 UTC+0000
Owning Process: explorer.exe
Attached Process: explorer.exe
State: Waiting:UserRequest
BasePriority: 0x8
Priority: 0xa
TEB: 0x7fffff92000
StartAddress: 0x77cbc500 ntdll.dll
Win32Thread: 0xfffff900c2171010
CrossThreadFlags: PS_CROSS_THREAD_FLAGS_DEADTHREAD
0x77cbc500 4883ec48         SUB RSP, 0x48
0x77cbc504 4c8bc9           MOV R9, RCX
0x77cbc507 488b0552da1000   MOV RAX, [RIP+0x10da52]
0x77cbc50e 4885c0           TEST RAX, RAX
0x77cbc511 0f84e3840300     JZ 0x77cf49fa
0x77cbc517 4c               DB 0x4c
------
ETHREAD: 0xfffffa8001337680 Pid: 4 Tid: 184
Tags: 
Created: 2019-12-11 13:41:22 UTC+0000
Exited: 1970-01-01 00:00:00 UTC+0000
Owning Process: System
Attached Process: System
State: Waiting:Executive
BasePriority: 0x8
Priority: 0x8
TEB: 0x00000000
StartAddress: 0xfffff880018dd900 volsnap.sys
Win32Thread: 0x00000000
CrossThreadFlags: PS_CROSS_THREAD_FLAGS_DEADTHREAD
0xfffff880018dd900 48895c2408       MOV [RSP+0x8], RBX
0xfffff880018dd905 48896c2410       MOV [RSP+0x10], RBP
0xfffff880018dd90a 4889742418       MOV [RSP+0x18], RSI
0xfffff880018dd90f 57               PUSH RDI
0xfffff880018dd910 4883ec30         SUB RSP, 0x30
0xfffff880018dd914 488b7928         MOV RDI, [RCX+0x28]
------
ETHREAD: 0x3fb14060 Pid: 2524 Tid: 2476
Tags: ScannerOnly
Created: 2019-12-11 14:37:21 UTC+0000
Exited: 1970-01-01 00:00:00 UTC+0000
Owning Process: SearchProtocol
Attached Process: SearchProtocol
State: Waiting:WrQueue
BasePriority: 0x4
Priority: 0x4
TEB: 0x7fffffae000
StartAddress: 0x77cbc500 ntdll.dll
Win32Thread: 0xfffff900c1e01c30
CrossThreadFlags: PS_CROSS_THREAD_FLAGS_DEADTHREAD
0x77cbc500 4883ec48         SUB RSP, 0x48
0x77cbc504 4c8bc9           MOV R9, RCX
0x77cbc507 488b0552da1000   MOV RAX, [RIP+0x10da52]
0x77cbc50e 4885c0           TEST RAX, RAX
0x77cbc511 0f84e3840300     JZ 0x77cf49fa
0x77cbc517 4c               DB 0x4c
------
ETHREAD: 0xfffffa8000f406c0 Pid: 472 Tid: 2252
Tags: 
Created: 2019-12-11 14:37:13 UTC+0000
Exited: 1970-01-01 00:00:00 UTC+0000
Owning Process: svchost.exe
Attached Process: svchost.exe
State: Waiting:UserRequest
BasePriority: 0x8
Priority: 0x9
TEB: 0x7fffffd4000
StartAddress: 0x77cbc500 ntdll.dll
Win32Thread: 0xfffff900c1ae8c30
CrossThreadFlags: PS_CROSS_THREAD_FLAGS_DEADTHREAD
0x77cbc500 4883ec48         SUB RSP, 0x48
0x77cbc504 4c8bc9           MOV R9, RCX
0x77cbc507 488b0552da1000   MOV RAX, [RIP+0x10da52]
0x77cbc50e 4885c0           TEST RAX, RAX
0x77cbc511 0f84e3840300     JZ 0x77cf49fa
0x77cbc517 4c               DB 0x4c
------
ETHREAD: 0xfffffa80021cf520 Pid: 604 Tid: 788
Tags: 
Created: 2019-12-11 14:32:36 UTC+0000
Exited: 1970-01-01 00:00:00 UTC+0000
Owning Process: explorer.exe
Attached Process: explorer.exe
State: Waiting:WrUserRequest
BasePriority: 0x8
Priority: 0xc
TEB: 0x7fffffa0000
StartAddress: 0x77cbc500 ntdll.dll
Win32Thread: 0xfffff900c1f01c30
CrossThreadFlags: PS_CROSS_THREAD_FLAGS_DEADTHREAD
0x77cbc500 4883ec48         SUB RSP, 0x48
0x77cbc504 4c8bc9           MOV R9, RCX
0x77cbc507 488b0552da1000   MOV RAX, [RIP+0x10da52]
0x77cbc50e 4885c0           TEST RAX, RAX
0x77cbc511 0f84e3840300     JZ 0x77cf49fa
0x77cbc517 4c               DB 0x4c
------
ETHREAD: 0xfffffa8001e92b60 Pid: 876 Tid: 1140
Tags: 
Created: 2019-12-11 13:41:50 UTC+0000
Exited: 1970-01-01 00:00:00 UTC+0000
Owning Process: svchost.exe
Attached Process: svchost.exe
State: Waiting:UserRequest
BasePriority: 0x8
Priority: 0x8
TEB: 0x7fffff9c000
StartAddress: 0x77cbc500 ntdll.dll
Win32Thread: 0x00000000
CrossThreadFlags: PS_CROSS_THREAD_FLAGS_DEADTHREAD
0x77cbc500 4883ec48         SUB RSP, 0x48
0x77cbc504 4c8bc9           MOV R9, RCX
0x77cbc507 488b0552da1000   MOV RAX, [RIP+0x10da52]
0x77cbc50e 4885c0           TEST RAX, RAX
0x77cbc511 0f84e3840300     JZ 0x77cf49fa
0x77cbc517 4c               DB 0x4c
------
ETHREAD: 0xfffffa8000fa8b60 Pid: 2504 Tid: 2344
Tags: 
Created: 2019-12-11 14:37:14 UTC+0000
Exited: 1970-01-01 00:00:00 UTC+0000
Owning Process: explorer.exe
Attached Process: explorer.exe
State: Waiting:UserRequest
BasePriority: 0x8
Priority: 0xa
TEB: 0x7fffffa0000
StartAddress: 0x77cbc500 ntdll.dll
Win32Thread: 0xfffff900c1acaa10
CrossThreadFlags: PS_CROSS_THREAD_FLAGS_DEADTHREAD
0x77cbc500 4883ec48         SUB RSP, 0x48
0x77cbc504 4c8bc9           MOV R9, RCX
0x77cbc507 488b0552da1000   MOV RAX, [RIP+0x10da52]
0x77cbc50e 4885c0           TEST RAX, RAX
0x77cbc511 0f84e3840300     JZ 0x77cf49fa
0x77cbc517 4c               DB 0x4c
------
ETHREAD: 0xfffffa8001fd7060 Pid: 1044 Tid: 1480
Tags: 
Created: 2019-12-11 13:41:56 UTC+0000
Exited: 1970-01-01 00:00:00 UTC+0000
Owning Process: svchost.exe
Attached Process: svchost.exe
State: Waiting:UserRequest
BasePriority: 0x8
Priority: 0x8
TEB: 0x7fffff9e000
StartAddress: 0x77cbc500 ntdll.dll
Win32Thread: 0x00000000
CrossThreadFlags: PS_CROSS_THREAD_FLAGS_DEADTHREAD
0x77cbc500 4883ec48         SUB RSP, 0x48
0x77cbc504 4c8bc9           MOV R9, RCX
0x77cbc507 488b0552da1000   MOV RAX, [RIP+0x10da52]
0x77cbc50e 4885c0           TEST RAX, RAX
0x77cbc511 0f84e3840300     JZ 0x77cf49fa
0x77cbc517 4c               DB 0x4c
------
ETHREAD: 0xfffffa8001d37060 Pid: 876 Tid: 716
Tags: 
Created: 2019-12-11 14:16:09 UTC+0000
Exited: 2019-12-11 14:18:13 UTC+0000
Owning Process: svchost.exe
Attached Process: svchost.exe
State: Terminated
BasePriority: 0x8
Priority: 0x8
TEB: 0x00000000
StartAddress: 0x77cbc500 ntdll.dll
Win32Thread: 0x00000000
CrossThreadFlags: PS_CROSS_THREAD_FLAGS_DEADTHREAD, PS_CROSS_THREAD_FLAGS_TERMINATED
0x77cbc500 4883ec48         SUB RSP, 0x48
0x77cbc504 4c8bc9           MOV R9, RCX
0x77cbc507 488b0552da1000   MOV RAX, [RIP+0x10da52]
0x77cbc50e 4885c0           TEST RAX, RAX
0x77cbc511 0f84e3840300     JZ 0x77cf49fa
0x77cbc517 4c               DB 0x4c
------
ETHREAD: 0xfffffa8001de2060 Pid: 376 Tid: 972
Tags: 
Created: 2019-12-11 13:41:45 UTC+0000
Exited: 1970-01-01 00:00:00 UTC+0000
Owning Process: psxss.exe
Attached Process: psxss.exe
State: Waiting:WrUserRequest
BasePriority: 0xd
Priority: 0xf
TEB: 0x7fffffaa000
StartAddress: 0xfffff8a001655b80 UNKNOWN
Win32Thread: 0xfffff900c1aa9850
CrossThreadFlags: PS_CROSS_THREAD_FLAGS_DEADTHREAD
0xfffff8a001655b80 e023             LOOPNZ 0xfffff8a001655ba5
0xfffff8a001655b82 de01             FIADD WORD [RCX]
0xfffff8a001655b84 80faff           CMP DL, 0xff
0xfffff8a001655b87 ff00             INC DWORD [RAX]
0xfffff8a001655b89 ba7001a0f8       MOV EDX, 0xf8a00170
0xfffff8a001655b8e ff               DB 0xff
0xfffff8a001655b8f ff905b6501a0     CALL QWORD [RAX-0x5ffe9aa5]
0xfffff8a001655b95 f8               CLC
0xfffff8a001655b96 ff               DB 0xff
0xfffff8a001655b97 ff               DB 0xff
------
ETHREAD: 0x3fa98060 Pid: 480 Tid: 2840
Tags: ScannerOnly
Created: 2019-12-11 14:37:21 UTC+0000
Exited: 1970-01-01 00:00:00 UTC+0000
Owning Process: SearchIndexer.
Attached Process: SearchIndexer.
State: Waiting:WrQueue
BasePriority: 0x8
Priority: 0x8
TEB: 0x7fffff9e000
StartAddress: 0x77cbc500 ntdll.dll
Win32Thread: 0x00000000
CrossThreadFlags: PS_CROSS_THREAD_FLAGS_DEADTHREAD
0x77cbc500 4883ec48         SUB RSP, 0x48
0x77cbc504 4c8bc9           MOV R9, RCX
0x77cbc507 488b0552da1000   MOV RAX, [RIP+0x10da52]
0x77cbc50e 4885c0           TEST RAX, RAX
0x77cbc511 0f84e3840300     JZ 0x77cf49fa
0x77cbc517 4c               DB 0x4c
------
ETHREAD: 0xfffffa8001c456d0 Pid: 376 Tid: 380
Tags: 
Created: 2019-12-11 13:41:33 UTC+0000
Exited: 1970-01-01 00:00:00 UTC+0000
Owning Process: psxss.exe
Attached Process: psxss.exe
State: Waiting:DelayExecution
BasePriority: 0xd
Priority: 0xd
TEB: 0x7fffffde000
StartAddress: 0xfffff8a00131d390 UNKNOWN
Win32Thread: 0xfffff900c00ecc30
CrossThreadFlags: PS_CROSS_THREAD_FLAGS_DEADTHREAD
0xfffff8a00131d390 50               PUSH RAX
0xfffff8a00131d391 5a               POP RDX
0xfffff8a00131d392 c4               DB 0xc4
0xfffff8a00131d393 0180faffff50     ADD [RAX+0x50fffffa], EAX
0xfffff8a00131d399 5a               POP RDX
0xfffff8a00131d39a c4               DB 0xc4
0xfffff8a00131d39b 0180faffffa0     ADD [RAX-0x5f000006], EAX
0xfffff8a00131d3a1 d331             SAL DWORD [RCX], CL
0xfffff8a00131d3a3 01               DB 0x1
0xfffff8a00131d3a4 a0               DB 0xa0
0xfffff8a00131d3a5 f8               CLC
0xfffff8a00131d3a6 ff               DB 0xff
0xfffff8a00131d3a7 ff               DB 0xff
------
ETHREAD: 0xfffffa8001c395f0 Pid: 1856 Tid: 1836
Tags: 
Created: 2019-12-11 14:16:08 UTC+0000
Exited: 1970-01-01 00:00:00 UTC+0000
Owning Process: wmpnetwk.exe
Attached Process: wmpnetwk.exe
State: Waiting:UserRequest
BasePriority: 0x8
Priority: 0x8
TEB: 0x7fffffd5000
StartAddress: 0x77cbc500 ntdll.dll
Win32Thread: 0x00000000
CrossThreadFlags: PS_CROSS_THREAD_FLAGS_DEADTHREAD
0x77cbc500 4883ec48         SUB RSP, 0x48
0x77cbc504 4c8bc9           MOV R9, RCX
0x77cbc507 488b0552da1000   MOV RAX, [RIP+0x10da52]
0x77cbc50e 4885c0           TEST RAX, RAX
0x77cbc511 0f84e3840300     JZ 0x77cf49fa
0x77cbc517 4c               DB 0x4c
------
ETHREAD: 0xfffffa80022ba630 Pid: 2424 Tid: 2420
Tags: 
Created: 2019-12-11 14:35:14 UTC+0000
Exited: 1970-01-01 00:00:00 UTC+0000
Owning Process: mspaint.exe
Attached Process: mspaint.exe
State: Waiting:WrUserRequest
BasePriority: 0x8
Priority: 0xa
TEB: 0x7fffffdd000
StartAddress: 0x77cbc500 ntdll.dll
Win32Thread: 0xfffff900c1ed0850
CrossThreadFlags: PS_CROSS_THREAD_FLAGS_DEADTHREAD
0x77cbc500 4883ec48         SUB RSP, 0x48
0x77cbc504 4c8bc9           MOV R9, RCX
0x77cbc507 488b0552da1000   MOV RAX, [RIP+0x10da52]
0x77cbc50e 4885c0           TEST RAX, RAX
0x77cbc511 0f84e3840300     JZ 0x77cf49fa
0x77cbc517 4c               DB 0x4c
------
ETHREAD: 0xfffffa80012cc040 Pid: 4 Tid: 172
Tags: 
Created: 2019-12-11 13:41:22 UTC+0000
Exited: 1970-01-01 00:00:00 UTC+0000
Owning Process: System
Attached Process: System
State: Waiting:Executive
BasePriority: 0x8
Priority: 0x8
TEB: 0x00000000
StartAddress: 0xfffff880014eac50 ndis.sys
Win32Thread: 0x00000000
CrossThreadFlags: PS_CROSS_THREAD_FLAGS_DEADTHREAD
0xfffff880014eac50 4883ec38         SUB RSP, 0x38
0xfffff880014eac54 488d442448       LEA RAX, [RSP+0x48]
0xfffff880014eac59 488d0d803d0600   LEA RCX, [RIP+0x63d80]
0xfffff880014eac60 4533c9           XOR R9D, R9D
0xfffff880014eac63 4533c0           XOR R8D, R8D
0xfffff880014eac66 33d2             XOR EDX, EDX
------
ETHREAD: 0xfffffa8000eff660 Pid: 3004 Tid: 2512
Tags: 
Created: 2019-12-11 14:37:14 UTC+0000
Exited: 1970-01-01 00:00:00 UTC+0000
Owning Process: dwm.exe
Attached Process: dwm.exe
State: Waiting:UserRequest
BasePriority: 0x8
Priority: 0xa
TEB: 0x7fffffde000
StartAddress: 0x77cbc500 ntdll.dll
Win32Thread: 0xfffff900c01f2c30
CrossThreadFlags: PS_CROSS_THREAD_FLAGS_DEADTHREAD
0x77cbc500 4883ec48         SUB RSP, 0x48
0x77cbc504 4c8bc9           MOV R9, RCX
0x77cbc507 488b0552da1000   MOV RAX, [RIP+0x10da52]
0x77cbc50e 4885c0           TEST RAX, RAX
0x77cbc511 0f84e3840300     JZ 0x77cf49fa
0x77cbc517 4c               DB 0x4c
------
ETHREAD: 0xfffffa8001deeb60 Pid: 376 Tid: 212
Tags: 
Created: 2019-12-11 13:41:45 UTC+0000
Exited: 1970-01-01 00:00:00 UTC+0000
Owning Process: psxss.exe
Attached Process: psxss.exe
State: Waiting:WrLpcReceive
BasePriority: 0xd
Priority: 0xd
TEB: 0x7fffff98000
StartAddress: 0x77cbc500 ntdll.dll
Win32Thread: 0x00000000
CrossThreadFlags: PS_CROSS_THREAD_FLAGS_DEADTHREAD
0x77cbc500 4883ec48         SUB RSP, 0x48
0x77cbc504 4c8bc9           MOV R9, RCX
0x77cbc507 488b0552da1000   MOV RAX, [RIP+0x10da52]
0x77cbc50e 4885c0           TEST RAX, RAX
0x77cbc511 0f84e3840300     JZ 0x77cf49fa
0x77cbc517 4c               DB 0x4c
------
ETHREAD: 0xfffffa80021a93d0 Pid: 604 Tid: 1952
Tags: 
Created: 2019-12-11 14:32:29 UTC+0000
Exited: 1970-01-01 00:00:00 UTC+0000
Owning Process: explorer.exe
Attached Process: explorer.exe
State: Waiting:UserRequest
BasePriority: 0x9
Priority: 0xb
TEB: 0x7fffffd3000
StartAddress: 0x77cbc500 ntdll.dll
Win32Thread: 0xfffff900c1b0a790
CrossThreadFlags: PS_CROSS_THREAD_FLAGS_DEADTHREAD
0x77cbc500 4883ec48         SUB RSP, 0x48
0x77cbc504 4c8bc9           MOV R9, RCX
0x77cbc507 488b0552da1000   MOV RAX, [RIP+0x10da52]
0x77cbc50e 4885c0           TEST RAX, RAX
0x77cbc511 0f84e3840300     JZ 0x77cf49fa
0x77cbc517 4c               DB 0x4c
------
ETHREAD: 0xfffffa8000f7d060 Pid: 2504 Tid: 1176
Tags: 
Created: 2019-12-11 14:37:14 UTC+0000
Exited: 1970-01-01 00:00:00 UTC+0000
Owning Process: explorer.exe
Attached Process: explorer.exe
State: Waiting:UserRequest
BasePriority: 0x9
Priority: 0xc
TEB: 0x7fffffd3000
StartAddress: 0x77cbc500 ntdll.dll
Win32Thread: 0xfffff900c22ab010
CrossThreadFlags: PS_CROSS_THREAD_FLAGS_DEADTHREAD
0x77cbc500 4883ec48         SUB RSP, 0x48
0x77cbc504 4c8bc9           MOV R9, RCX
0x77cbc507 488b0552da1000   MOV RAX, [RIP+0x10da52]
0x77cbc50e 4885c0           TEST RAX, RAX
0x77cbc511 0f84e3840300     JZ 0x77cf49fa
0x77cbc517 4c               DB 0x4c
------
ETHREAD: 0x3fa86710 Pid: 1720 Tid: 3068
Tags: ScannerOnly
Created: 2019-12-11 14:37:21 UTC+0000
Exited: 1970-01-01 00:00:00 UTC+0000
Owning Process: SearchFilterHo
Attached Process: SearchFilterHo
State: Waiting:UserRequest
BasePriority: 0x4
Priority: 0x4
TEB: 0x7fffffde000
StartAddress: 0x77cbc500 ntdll.dll
Win32Thread: 0xfffff900c1addc30
CrossThreadFlags: PS_CROSS_THREAD_FLAGS_DEADTHREAD
0x77cbc500 4883ec48         SUB RSP, 0x48
0x77cbc504 4c8bc9           MOV R9, RCX
0x77cbc507 488b0552da1000   MOV RAX, [RIP+0x10da52]
0x77cbc50e 4885c0           TEST RAX, RAX
0x77cbc511 0f84e3840300     JZ 0x77cf49fa
0x77cbc517 4c               DB 0x4c
------
ETHREAD: 0xfffffa80022b0b60 Pid: 1372 Tid: 2128
Tags: 
Created: 2019-12-11 14:36:13 UTC+0000
Exited: 1970-01-01 00:00:00 UTC+0000
Owning Process: svchost.exe
Attached Process: svchost.exe
State: Waiting:WrQueue
BasePriority: 0x8
Priority: 0x8
TEB: 0x7fffff94000
StartAddress: 0x77cbc500 ntdll.dll
Win32Thread: 0x00000000
CrossThreadFlags: PS_CROSS_THREAD_FLAGS_DEADTHREAD
0x77cbc500 4883ec48         SUB RSP, 0x48
0x77cbc504 4c8bc9           MOV R9, RCX
0x77cbc507 488b0552da1000   MOV RAX, [RIP+0x10da52]
0x77cbc50e 4885c0           TEST RAX, RAX
0x77cbc511 0f84e3840300     JZ 0x77cf49fa
0x77cbc517 4c               DB 0x4c
------
ETHREAD: 0xfffffa80020376f0 Pid: 1372 Tid: 1580
Tags: 
Created: 2019-12-11 13:41:58 UTC+0000
Exited: 1970-01-01 00:00:00 UTC+0000
Owning Process: svchost.exe
Attached Process: svchost.exe
State: Waiting:UserRequest
BasePriority: 0x8
Priority: 0x8
TEB: 0x7fffffaa000
StartAddress: 0xfffff8a0019ad0f0 UNKNOWN
Win32Thread: 0x00000000
CrossThreadFlags: PS_CROSS_THREAD_FLAGS_DEADTHREAD
0xfffff8a0019ad0f0 707a             JO 0xfffff8a0019ad16c
0xfffff8a0019ad0f2 0302             ADD EAX, [RDX]
0xfffff8a0019ad0f4 80faff           CMP DL, 0xff
0xfffff8a0019ad0f7 ff707a           PUSH QWORD [RAX+0x7a]
0xfffff8a0019ad0fa 0302             ADD EAX, [RDX]
0xfffff8a0019ad0fc 80faff           CMP DL, 0xff
0xfffff8a0019ad0ff ff00             INC DWORD [RAX]
0xfffff8a0019ad101 d19a01a0f8ff     RCR DWORD [RDX-0x75fff], 0x1
0xfffff8a0019ad107 ff               DB 0xff
------
ETHREAD: 0xfffffa8001f5f660 Pid: 1372 Tid: 1392
Tags: 
Created: 2019-12-11 13:41:54 UTC+0000
Exited: 2019-12-11 13:41:58 UTC+0000
Owning Process: svchost.exe
Attached Process: svchost.exe
State: Terminated
BasePriority: 0x8
Priority: 0x9
TEB: 0x00000000
StartAddress: 0xfffffa8001f5f9e0 UNKNOWN
Win32Thread: 0x00000000
CrossThreadFlags: PS_CROSS_THREAD_FLAGS_DEADTHREAD, PS_CROSS_THREAD_FLAGS_TERMINATED
0xfffffa8001f5f9e0 e0f9             LOOPNZ 0xfffffa8001f5f9db
0xfffffa8001f5f9e2 f5               CMC
0xfffffa8001f5f9e3 0180faffffe0     ADD [RAX-0x1f000006], EAX
0xfffffa8001f5f9e9 f9               STC
0xfffffa8001f5f9ea f5               CMC
0xfffffa8001f5f9eb 0180faffff00     ADD [RAX+0xfffffa], EAX
0xfffffa8001f5f9f1 0000             ADD [RAX], AL
0xfffffa8001f5f9f3 0000             ADD [RAX], AL
0xfffffa8001f5f9f5 0000             ADD [RAX], AL
0xfffffa8001f5f9f7 00               DB 0x0
------
ETHREAD: 0xfffffa8002195b60 Pid: 2760 Tid: 2848
Tags: 
Created: 2019-12-11 14:37:05 UTC+0000
Exited: 1970-01-01 00:00:00 UTC+0000
Owning Process: csrss.exe
Attached Process: csrss.exe
State: Waiting:WrLpcReceive
BasePriority: 0xd
Priority: 0xe
TEB: 0x7fffffdc000
StartAddress: 0x77cbc500 ntdll.dll
Win32Thread: 0xfffff900c01d8c30
CrossThreadFlags: PS_CROSS_THREAD_FLAGS_DEADTHREAD
0x77cbc500 4883ec48         SUB RSP, 0x48
0x77cbc504 4c8bc9           MOV R9, RCX
0x77cbc507 488b0552da1000   MOV RAX, [RIP+0x10da52]
0x77cbc50e 4885c0           TEST RAX, RAX
0x77cbc511 0f84e3840300     JZ 0x77cf49fa
0x77cbc517 4c               DB 0x4c
------
ETHREAD: 0xfffffa800222f740 Pid: 480 Tid: 1220
Tags: 
Created: 2019-12-11 14:35:08 UTC+0000
Exited: 1970-01-01 00:00:00 UTC+0000
Owning Process: SearchIndexer.
Attached Process: SearchIndexer.
State: Waiting:UserRequest
BasePriority: 0x8
Priority: 0xa
TEB: 0x7fffffae000
StartAddress: 0x77cbc500 ntdll.dll
Win32Thread: 0x00000000
CrossThreadFlags: PS_CROSS_THREAD_FLAGS_DEADTHREAD
0x77cbc500 4883ec48         SUB RSP, 0x48
0x77cbc504 4c8bc9           MOV R9, RCX
0x77cbc507 488b0552da1000   MOV RAX, [RIP+0x10da52]
0x77cbc50e 4885c0           TEST RAX, RAX
0x77cbc511 0f84e3840300     JZ 0x77cf49fa
0x77cbc517 4c               DB 0x4c
------
ETHREAD: 0xfffffa8002067060 Pid: 1248 Tid: 1688
Tags: 
Created: 2019-12-11 13:41:59 UTC+0000
Exited: 1970-01-01 00:00:00 UTC+0000
Owning Process: svchost.exe
Attached Process: svchost.exe
State: Waiting:UserRequest
BasePriority: 0x8
Priority: 0x9
TEB: 0x7fffffaa000
StartAddress: 0x77cbc500 ntdll.dll
Win32Thread: 0x00000000
CrossThreadFlags: PS_CROSS_THREAD_FLAGS_DEADTHREAD
0x77cbc500 4883ec48         SUB RSP, 0x48
0x77cbc504 4c8bc9           MOV R9, RCX
0x77cbc507 488b0552da1000   MOV RAX, [RIP+0x10da52]
0x77cbc50e 4885c0           TEST RAX, RAX
0x77cbc511 0f84e3840300     JZ 0x77cf49fa
0x77cbc517 4c               DB 0x4c
------
ETHREAD: 0xfffffa8001015700 Pid: 1856 Tid: 2768
Tags: 
Created: 2019-12-11 14:37:22 UTC+0000
Exited: 1970-01-01 00:00:00 UTC+0000
Owning Process: wmpnetwk.exe
Attached Process: wmpnetwk.exe
State: Waiting:WrQueue
BasePriority: 0x8
Priority: 0x8
TEB: 0x7fffffda000
StartAddress: 0x77cbc500 ntdll.dll
Win32Thread: 0x00000000
CrossThreadFlags: PS_CROSS_THREAD_FLAGS_DEADTHREAD
0x77cbc500 4883ec48         SUB RSP, 0x48
0x77cbc504 4c8bc9           MOV R9, RCX
0x77cbc507 488b0552da1000   MOV RAX, [RIP+0x10da52]
0x77cbc50e 4885c0           TEST RAX, RAX
0x77cbc511 0f84e3840300     JZ 0x77cf49fa
0x77cbc517 4c               DB 0x4c
------
ETHREAD: 0xfffffa8000cb8680 Pid: 4 Tid: 44
Tags: 
Created: 2019-12-11 13:41:22 UTC+0000
Exited: 1970-01-01 00:00:00 UTC+0000
Owning Process: System
Attached Process: System
State: Waiting:WrQueue
BasePriority: 0xc
Priority: 0xc
TEB: 0x00000000
StartAddress: 0xfffff800026a9910 ntoskrnl.exe
Win32Thread: 0x00000000
CrossThreadFlags: PS_CROSS_THREAD_FLAGS_DEADTHREAD
0xfffff800026a9910 4c8bdc           MOV R11, RSP
0xfffff800026a9913 49895b10         MOV [R11+0x10], RBX
0xfffff800026a9917 49896b18         MOV [R11+0x18], RBP
0xfffff800026a991b 49897320         MOV [R11+0x20], RSI
0xfffff800026a991f 57               PUSH RDI
0xfffff800026a9920 4154             PUSH R12
0xfffff800026a9922 4155             PUSH R13
0xfffff800026a9924 4156             PUSH R14
0xfffff800026a9926 4157             PUSH R15
------
ETHREAD: 0x3fb31060 Pid: 2868 Tid: 2268
Tags: ScannerOnly
Created: 2019-12-11 14:37:23 UTC+0000
Exited: 1970-01-01 00:00:00 UTC+0000
Owning Process: SearchProtocol
Attached Process: SearchProtocol
State: Waiting:UserRequest
BasePriority: 0x4
Priority: 0x4
TEB: 0x7fffffd7000
StartAddress: 0xfffff8a0022326f0 UNKNOWN
Win32Thread: 0xfffff900c1aeb010
CrossThreadFlags: PS_CROSS_THREAD_FLAGS_DEADTHREAD
0xfffff8a0022326f0 e073             LOOPNZ 0xfffff8a002232765
0xfffff8a0022326f2 0201             ADD AL, [RCX]
0xfffff8a0022326f4 80faff           CMP DL, 0xff
0xfffff8a0022326f7 ffe0             JMP RAX
0xfffff8a0022326f9 7302             JAE 0xfffff8a0022326fd
0xfffff8a0022326fb 0180faffff00     ADD [RAX+0xfffffa], EAX
0xfffff8a002232701 27               DB 0x27
0xfffff8a002232702 2302             AND EAX, [RDX]
0xfffff8a002232704 a0               DB 0xa0
0xfffff8a002232705 f8               CLC
0xfffff8a002232706 ff               DB 0xff
0xfffff8a002232707 ff               DB 0xff
------
ETHREAD: 0xfffffa80021db450 Pid: 2064 Tid: 2080
Tags: 
Created: 2019-12-11 14:32:37 UTC+0000
Exited: 1970-01-01 00:00:00 UTC+0000
Owning Process: audiodg.exe
Attached Process: audiodg.exe
State: Waiting:UserRequest
BasePriority: 0x8
Priority: 0x8
TEB: 0x7fffffd6000
StartAddress: 0x77cbc500 ntdll.dll
Win32Thread: 0x00000000
CrossThreadFlags: PS_CROSS_THREAD_FLAGS_DEADTHREAD
0x77cbc500 4883ec48         SUB RSP, 0x48
0x77cbc504 4c8bc9           MOV R9, RCX
0x77cbc507 488b0552da1000   MOV RAX, [RIP+0x10da52]
0x77cbc50e 4885c0           TEST RAX, RAX
0x77cbc511 0f84e3840300     JZ 0x77cf49fa
0x77cbc517 4c               DB 0x4c
------
ETHREAD: 0xfffffa8001dbe940 Pid: 1856 Tid: 572
Tags: 
Created: 2019-12-11 14:16:11 UTC+0000
Exited: 1970-01-01 00:00:00 UTC+0000
Owning Process: wmpnetwk.exe
Attached Process: wmpnetwk.exe
State: Waiting:UserRequest
BasePriority: 0x8
Priority: 0x8
TEB: 0x7fffff98000
StartAddress: 0x77cbc500 ntdll.dll
Win32Thread: 0x00000000
CrossThreadFlags: PS_CROSS_THREAD_FLAGS_DEADTHREAD
0x77cbc500 4883ec48         SUB RSP, 0x48
0x77cbc504 4c8bc9           MOV R9, RCX
0x77cbc507 488b0552da1000   MOV RAX, [RIP+0x10da52]
0x77cbc50e 4885c0           TEST RAX, RAX
0x77cbc511 0f84e3840300     JZ 0x77cf49fa
0x77cbc517 4c               DB 0x4c
------
ETHREAD: 0xfffffa8001d82710 Pid: 816 Tid: 820
Tags: 
Created: 2019-12-11 13:41:42 UTC+0000
Exited: 1970-01-01 00:00:00 UTC+0000
Owning Process: svchost.exe
Attached Process: svchost.exe
State: Waiting:UserRequest
BasePriority: 0x8
Priority: 0x9
TEB: 0x7fffffde000
StartAddress: 0x77cbc500 ntdll.dll
Win32Thread: 0xfffff900c1aa0900
CrossThreadFlags: PS_CROSS_THREAD_FLAGS_DEADTHREAD
0x77cbc500 4883ec48         SUB RSP, 0x48
0x77cbc504 4c8bc9           MOV R9, RCX
0x77cbc507 488b0552da1000   MOV RAX, [RIP+0x10da52]
0x77cbc50e 4885c0           TEST RAX, RAX
0x77cbc511 0f84e3840300     JZ 0x77cf49fa
0x77cbc517 4c               DB 0x4c
------
ETHREAD: 0xfffffa8000c7c040 Pid: 4 Tid: 156
Tags: 
Created: 2019-12-11 13:41:22 UTC+0000
Exited: 1970-01-01 00:00:00 UTC+0000
Owning Process: System
Attached Process: System
State: Waiting:Executive
BasePriority: 0x8
Priority: 0x8
TEB: 0x00000000
StartAddress: 0xfffff88000e14744 ACPI.sys
Win32Thread: 0x00000000
CrossThreadFlags: PS_CROSS_THREAD_FLAGS_DEADTHREAD
0xfffff88000e14744 48895c2408       MOV [RSP+0x8], RBX
0xfffff88000e14749 57               PUSH RDI
0xfffff88000e1474a 4883ec50         SUB RSP, 0x50
0xfffff88000e1474e 488d8108010000   LEA RAX, [RCX+0x108]
0xfffff88000e14755 488bd9           MOV RBX, RCX
0xfffff88000e14758 33ff             XOR EDI, EDI
0xfffff88000e1475a 48               DB 0x48
0xfffff88000e1475b 89               DB 0x89
------
ETHREAD: 0x3fb3cb60 Pid: 1512 Tid: 1712
Tags: ScannerOnly
Created: 2019-12-11 14:37:24 UTC+0000
Exited: 1970-01-01 00:00:00 UTC+0000
Owning Process: WinRAR.exe
Attached Process: WinRAR.exe
State: Waiting:UserRequest
BasePriority: 0x8
Priority: 0x8
TEB: 0x7fffffd3000
StartAddress: 0x77cbc500 ntdll.dll
Win32Thread: 0x00000000
CrossThreadFlags: PS_CROSS_THREAD_FLAGS_DEADTHREAD
0x77cbc500 4883ec48         SUB RSP, 0x48
0x77cbc504 4c8bc9           MOV R9, RCX
0x77cbc507 488b0552da1000   MOV RAX, [RIP+0x10da52]
0x77cbc50e 4885c0           TEST RAX, RAX
0x77cbc511 0f84e3840300     JZ 0x77cf49fa
0x77cbc517 4c               DB 0x4c
------
ETHREAD: 0xfffffa800226ab60 Pid: 484 Tid: 900
Tags: 
Created: 2019-12-11 14:34:18 UTC+0000
Exited: 1970-01-01 00:00:00 UTC+0000
Owning Process: services.exe
Attached Process: services.exe
State: Waiting:WrQueue
BasePriority: 0x9
Priority: 0x9
TEB: 0x7fffffde000
StartAddress: 0x77cbc500 ntdll.dll
Win32Thread: 0x00000000
CrossThreadFlags: PS_CROSS_THREAD_FLAGS_DEADTHREAD
0x77cbc500 4883ec48         SUB RSP, 0x48
0x77cbc504 4c8bc9           MOV R9, RCX
0x77cbc507 488b0552da1000   MOV RAX, [RIP+0x10da52]
0x77cbc50e 4885c0           TEST RAX, RAX
0x77cbc511 0f84e3840300     JZ 0x77cf49fa
0x77cbc517 4c               DB 0x4c
------
ETHREAD: 0xfffffa8000ffeb60 Pid: 852 Tid: 2444
Tags: 
Created: 2019-12-11 14:37:15 UTC+0000
Exited: 1970-01-01 00:00:00 UTC+0000
Owning Process: svchost.exe
Attached Process: svchost.exe
State: Waiting:UserRequest
BasePriority: 0x8
Priority: 0x9
TEB: 0x7fffff84000
StartAddress: 0x77cbc500 ntdll.dll
Win32Thread: 0xfffff900c1aab6b0
CrossThreadFlags: PS_CROSS_THREAD_FLAGS_DEADTHREAD
0x77cbc500 4883ec48         SUB RSP, 0x48
0x77cbc504 4c8bc9           MOV R9, RCX
0x77cbc507 488b0552da1000   MOV RAX, [RIP+0x10da52]
0x77cbc50e 4885c0           TEST RAX, RAX
0x77cbc511 0f84e3840300     JZ 0x77cf49fa
0x77cbc517 4c               DB 0x4c
------
ETHREAD: 0xfffffa8001da3b60 Pid: 852 Tid: 856
Tags: 
Created: 2019-12-11 13:41:43 UTC+0000
Exited: 1970-01-01 00:00:00 UTC+0000
Owning Process: svchost.exe
Attached Process: svchost.exe
State: Waiting:UserRequest
BasePriority: 0x8
Priority: 0x9
TEB: 0x7fffffde000
StartAddress: 0x77cbc500 ntdll.dll
Win32Thread: 0xfffff900c1aa3790
CrossThreadFlags: PS_CROSS_THREAD_FLAGS_DEADTHREAD
0x77cbc500 4883ec48         SUB RSP, 0x48
0x77cbc504 4c8bc9           MOV R9, RCX
0x77cbc507 488b0552da1000   MOV RAX, [RIP+0x10da52]
0x77cbc50e 4885c0           TEST RAX, RAX
0x77cbc511 0f84e3840300     JZ 0x77cf49fa
0x77cbc517 4c               DB 0x4c
------
ETHREAD: 0xfffffa8001f8d060 Pid: 1372 Tid: 892
Tags: 
Created: 2019-12-11 14:16:13 UTC+0000
Exited: 2019-12-11 14:16:14 UTC+0000
Owning Process: svchost.exe
Attached Process: svchost.exe
State: Terminated
BasePriority: 0x8
Priority: 0x8
TEB: 0x00000000
StartAddress: 0x77cbc500 ntdll.dll
Win32Thread: 0x00000000
CrossThreadFlags: PS_CROSS_THREAD_FLAGS_DEADTHREAD, PS_CROSS_THREAD_FLAGS_TERMINATED
0x77cbc500 4883ec48         SUB RSP, 0x48
0x77cbc504 4c8bc9           MOV R9, RCX
0x77cbc507 488b0552da1000   MOV RAX, [RIP+0x10da52]
0x77cbc50e 4885c0           TEST RAX, RAX
0x77cbc511 0f84e3840300     JZ 0x77cf49fa
0x77cbc517 4c               DB 0x4c
------
ETHREAD: 0xfffffa8000ca0b60 Pid: 4 Tid: 8
Tags: 
Created: 1970-01-01 00:00:00 UTC+0000
Exited: 1970-01-01 00:00:00 UTC+0000
Owning Process: System
Attached Process: System
State: Waiting:WrFreePage
BasePriority: 0x0
Priority: 0xf
TEB: 0x00000000
StartAddress: 0xfffff80002b1ed90 ntoskrnl.exe
Win32Thread: 0x00000000
CrossThreadFlags: PS_CROSS_THREAD_FLAGS_DEADTHREAD
0xfffff80002b1ed90 4883ec28         SUB RSP, 0x28
0xfffff80002b1ed94 e817e50a00       CALL 0xfffff80002bcd2b0
0xfffff80002b1ed99 33c9             XOR ECX, ECX
0xfffff80002b1ed9b 4883c428         ADD RSP, 0x28
0xfffff80002b1ed9f e9ec7fb4ff       JMP 0xfffff80002666d90
0xfffff80002b1eda4 90               NOP
0xfffff80002b1eda5 90               NOP
0xfffff80002b1eda6 90               NOP
0xfffff80002b1eda7 90               NOP
------
ETHREAD: 0xfffffa8001eee060 Pid: 1248 Tid: 1272
Tags: 
Created: 2019-12-11 13:41:52 UTC+0000
Exited: 1970-01-01 00:00:00 UTC+0000
Owning Process: svchost.exe
Attached Process: svchost.exe
State: Waiting:UserRequest
BasePriority: 0x8
Priority: 0x8
TEB: 0x7fffffd4000
StartAddress: 0x77cbc500 ntdll.dll
Win32Thread: 0x00000000
CrossThreadFlags: PS_CROSS_THREAD_FLAGS_DEADTHREAD
0x77cbc500 4883ec48         SUB RSP, 0x48
0x77cbc504 4c8bc9           MOV R9, RCX
0x77cbc507 488b0552da1000   MOV RAX, [RIP+0x10da52]
0x77cbc50e 4885c0           TEST RAX, RAX
0x77cbc511 0f84e3840300     JZ 0x77cf49fa
0x77cbc517 4c               DB 0x4c
------
ETHREAD: 0x3fa8f950 Pid: 2524 Tid: 440
Tags: ScannerOnly
Created: 2019-12-11 14:37:21 UTC+0000
Exited: 1970-01-01 00:00:00 UTC+0000
Owning Process: SearchProtocol
Attached Process: SearchProtocol
State: Waiting:DelayExecution
BasePriority: 0x4
Priority: 0x4
TEB: 0x7fffffac000
StartAddress: 0x77cbc500 ntdll.dll
Win32Thread: 0xfffff900c22f1c30
CrossThreadFlags: PS_CROSS_THREAD_FLAGS_DEADTHREAD
0x77cbc500 4883ec48         SUB RSP, 0x48
0x77cbc504 4c8bc9           MOV R9, RCX
0x77cbc507 488b0552da1000   MOV RAX, [RIP+0x10da52]
0x77cbc50e 4885c0           TEST RAX, RAX
0x77cbc511 0f84e3840300     JZ 0x77cf49fa
0x77cbc517 4c               DB 0x4c
------
ETHREAD: 0xfffffa8001f11060 Pid: 1856 Tid: 2432
Tags: 
Created: 2019-12-11 14:36:13 UTC+0000
Exited: 1970-01-01 00:00:00 UTC+0000
Owning Process: wmpnetwk.exe
Attached Process: wmpnetwk.exe
State: Waiting:WrQueue
BasePriority: 0x8
Priority: 0x8
TEB: 0x7fffff90000
StartAddress: 0x77cbc500 ntdll.dll
Win32Thread: 0xfffff900c1ae1c30
CrossThreadFlags: PS_CROSS_THREAD_FLAGS_DEADTHREAD
0x77cbc500 4883ec48         SUB RSP, 0x48
0x77cbc504 4c8bc9           MOV R9, RCX
0x77cbc507 488b0552da1000   MOV RAX, [RIP+0x10da52]
0x77cbc50e 4885c0           TEST RAX, RAX
0x77cbc511 0f84e3840300     JZ 0x77cf49fa
0x77cbc517 4c               DB 0x4c
------
ETHREAD: 0xfffffa8002044b60 Pid: 876 Tid: 1608
Tags: 
Created: 2019-12-11 13:41:58 UTC+0000
Exited: 2019-12-11 14:20:10 UTC+0000
Owning Process: svchost.exe
Attached Process: svchost.exe
State: Terminated
BasePriority: 0x8
Priority: 0x8
TEB: 0x00000000
StartAddress: 0x77cbc500 ntdll.dll
Win32Thread: 0x00000000
CrossThreadFlags: PS_CROSS_THREAD_FLAGS_DEADTHREAD, PS_CROSS_THREAD_FLAGS_TERMINATED
0x77cbc500 4883ec48         SUB RSP, 0x48
0x77cbc504 4c8bc9           MOV R9, RCX
0x77cbc507 488b0552da1000   MOV RAX, [RIP+0x10da52]
0x77cbc50e 4885c0           TEST RAX, RAX
0x77cbc511 0f84e3840300     JZ 0x77cf49fa
0x77cbc517 4c               DB 0x4c
------
ETHREAD: 0xfffffa8000cb9680 Pid: 4 Tid: 56
Tags: 
Created: 2019-12-11 13:41:22 UTC+0000
Exited: 1970-01-01 00:00:00 UTC+0000
Owning Process: System
Attached Process: System
State: Waiting:WrQueue
BasePriority: 0xc
Priority: 0xf
TEB: 0x00000000
StartAddress: 0xfffff800026a9910 ntoskrnl.exe
Win32Thread: 0x00000000
CrossThreadFlags: PS_CROSS_THREAD_FLAGS_DEADTHREAD
0xfffff800026a9910 4c8bdc           MOV R11, RSP
0xfffff800026a9913 49895b10         MOV [R11+0x10], RBX
0xfffff800026a9917 49896b18         MOV [R11+0x18], RBP
0xfffff800026a991b 49897320         MOV [R11+0x20], RSI
0xfffff800026a991f 57               PUSH RDI
0xfffff800026a9920 4154             PUSH R12
0xfffff800026a9922 4155             PUSH R13
0xfffff800026a9924 4156             PUSH R14
0xfffff800026a9926 4157             PUSH R15
------
ETHREAD: 0x3fa9a700 Pid: 1856 Tid: 2768
Tags: ScannerOnly
Created: 2019-12-11 14:37:22 UTC+0000
Exited: 1970-01-01 00:00:00 UTC+0000
Owning Process: wmpnetwk.exe
Attached Process: wmpnetwk.exe
State: Waiting:WrQueue
BasePriority: 0x8
Priority: 0x8
TEB: 0x7fffffda000
StartAddress: 0x77cbc500 ntdll.dll
Win32Thread: 0x00000000
CrossThreadFlags: PS_CROSS_THREAD_FLAGS_DEADTHREAD
0x77cbc500 4883ec48         SUB RSP, 0x48
0x77cbc504 4c8bc9           MOV R9, RCX
0x77cbc507 488b0552da1000   MOV RAX, [RIP+0x10da52]
0x77cbc50e 4885c0           TEST RAX, RAX
0x77cbc511 0f84e3840300     JZ 0x77cf49fa
0x77cbc517 4c               DB 0x4c
------
ETHREAD: 0xfffffa8001d92740 Pid: 816 Tid: 840
Tags: 
Created: 2019-12-11 13:41:43 UTC+0000
Exited: 1970-01-01 00:00:00 UTC+0000
Owning Process: svchost.exe
Attached Process: svchost.exe
State: Waiting:UserRequest
BasePriority: 0x8
Priority: 0x9
TEB: 0x7fffffae000
StartAddress: 0xfffff8a0018d4f00 UNKNOWN
Win32Thread: 0x00000000
CrossThreadFlags: PS_CROSS_THREAD_FLAGS_DEADTHREAD
0xfffff8a0018d4f00 c02ad9           SHR BYTE [RDX], 0xd9
0xfffff8a0018d4f03 0180faffffc0     ADD [RAX-0x3f000006], EAX
0xfffff8a0018d4f09 2ad9             SUB BL, CL
0xfffff8a0018d4f0b 0180faffff10     ADD [RAX+0x10fffffa], EAX
0xfffff8a0018d4f11 4f8d01           LEA R8, [R9]
0xfffff8a0018d4f14 a0               DB 0xa0
0xfffff8a0018d4f15 f8               CLC
0xfffff8a0018d4f16 ff               DB 0xff
0xfffff8a0018d4f17 ff               DB 0xff
------
ETHREAD: 0xfffffa8000d317e0 Pid: 1208 Tid: 1444
Tags: 
Created: 2019-12-11 14:15:59 UTC+0000
Exited: 1970-01-01 00:00:00 UTC+0000
Owning Process: spoolsv.exe
Attached Process: spoolsv.exe
State: Waiting:UserRequest
BasePriority: 0x8
Priority: 0x8
TEB: 0x7fffffa4000
StartAddress: 0xfffff8a0018c9080 UNKNOWN
Win32Thread: 0x00000000
CrossThreadFlags: PS_CROSS_THREAD_FLAGS_DEADTHREAD
0xfffff8a0018c9080 60               DB 0x60
0xfffff8a0018c9081 1bd3             SBB EDX, EBX
0xfffff8a0018c9083 0080faffff70     ADD [RAX+0x70fffffa], AL
0xfffff8a0018c9089 89b001a0f8ff     MOV [RAX-0x75fff], ESI
0xfffff8a0018c908f ff90908c01a0     CALL QWORD [RAX-0x5ffe7370]
0xfffff8a0018c9095 f8               CLC
0xfffff8a0018c9096 ff               DB 0xff
0xfffff8a0018c9097 ff               DB 0xff
------
ETHREAD: 0x3fb12a60 Pid: 1720 Tid: 2008
Tags: ScannerOnly
Created: 2019-12-11 14:37:21 UTC+0000
Exited: 1970-01-01 00:00:00 UTC+0000
Owning Process: SearchFilterHo
Attached Process: SearchFilterHo
State: Waiting:DelayExecution
BasePriority: 0x4
Priority: 0x4
TEB: 0x7fffffd5000
StartAddress: 0x77cbc500 ntdll.dll
Win32Thread: 0xfffff900c1aac850
CrossThreadFlags: PS_CROSS_THREAD_FLAGS_DEADTHREAD
0x77cbc500 4883ec48         SUB RSP, 0x48
0x77cbc504 4c8bc9           MOV R9, RCX
0x77cbc507 488b0552da1000   MOV RAX, [RIP+0x10da52]
0x77cbc50e 4885c0           TEST RAX, RAX
0x77cbc511 0f84e3840300     JZ 0x77cf49fa
0x77cbc517 4c               DB 0x4c
------
ETHREAD: 0xfffffa8001dc8060 Pid: 376 Tid: 944
Tags: 
Created: 2019-12-11 13:41:43 UTC+0000
Exited: 1970-01-01 00:00:00 UTC+0000
Owning Process: psxss.exe
Attached Process: psxss.exe
State: Waiting:UserRequest
BasePriority: 0xd
Priority: 0xd
TEB: 0x7fffffac000
StartAddress: 0x77cbc500 ntdll.dll
Win32Thread: 0x00000000
CrossThreadFlags: PS_CROSS_THREAD_FLAGS_DEADTHREAD
0x77cbc500 4883ec48         SUB RSP, 0x48
0x77cbc504 4c8bc9           MOV R9, RCX
0x77cbc507 488b0552da1000   MOV RAX, [RIP+0x10da52]
0x77cbc50e 4885c0           TEST RAX, RAX
0x77cbc511 0f84e3840300     JZ 0x77cf49fa
0x77cbc517 4c               DB 0x4c
------
ETHREAD: 0xfffffa8001f57060 Pid: 1248 Tid: 1368
Tags: 
Created: 2019-12-11 13:41:54 UTC+0000
Exited: 1970-01-01 00:00:00 UTC+0000
Owning Process: svchost.exe
Attached Process: svchost.exe
State: Waiting:UserRequest
BasePriority: 0x8
Priority: 0x8
TEB: 0x7fffff9e000
StartAddress: 0x77cbc500 ntdll.dll
Win32Thread: 0xfffff900c1abcc30
CrossThreadFlags: PS_CROSS_THREAD_FLAGS_DEADTHREAD
0x77cbc500 4883ec48         SUB RSP, 0x48
0x77cbc504 4c8bc9           MOV R9, RCX
0x77cbc507 488b0552da1000   MOV RAX, [RIP+0x10da52]
0x77cbc50e 4885c0           TEST RAX, RAX
0x77cbc511 0f84e3840300     JZ 0x77cf49fa
0x77cbc517 4c               DB 0x4c
------
ETHREAD: 0xfffffa8001cb8060 Pid: 1856 Tid: 1076
Tags: 
Created: 2019-12-11 14:16:08 UTC+0000
Exited: 1970-01-01 00:00:00 UTC+0000
Owning Process: wmpnetwk.exe
Attached Process: wmpnetwk.exe
State: Waiting:WrUserRequest
BasePriority: 0x8
Priority: 0xa
TEB: 0x7fffffaa000
StartAddress: 0xfffff8a001b70340 UNKNOWN
Win32Thread: 0xfffff900c1acf010
CrossThreadFlags: PS_CROSS_THREAD_FLAGS_DEADTHREAD
0xfffff8a001b70340 e083             LOOPNZ 0xfffff8a001b702c5
0xfffff8a001b70342 cb               RETF
0xfffff8a001b70343 0180faffffe0     ADD [RAX-0x1f000006], EAX
0xfffff8a001b70349 83cb01           OR EBX, 0x1
0xfffff8a001b7034c 80faff           CMP DL, 0xff
0xfffff8a001b7034f ff5003           CALL QWORD [RAX+0x3]
0xfffff8a001b70352 b701             MOV BH, 0x1
0xfffff8a001b70354 a0               DB 0xa0
0xfffff8a001b70355 f8               CLC
0xfffff8a001b70356 ff               DB 0xff
0xfffff8a001b70357 ff               DB 0xff
------
ETHREAD: 0x3fa8ab60 Pid: 2524 Tid: 2496
Tags: ScannerOnly
Created: 2019-12-11 14:37:21 UTC+0000
Exited: 1970-01-01 00:00:00 UTC+0000
Owning Process: SearchProtocol
Attached Process: SearchProtocol
State: Waiting:UserRequest
BasePriority: 0x4
Priority: 0x4
TEB: 0x7fffffd6000
StartAddress: 0x77cbc500 ntdll.dll
Win32Thread: 0xfffff900c2303c30
CrossThreadFlags: PS_CROSS_THREAD_FLAGS_DEADTHREAD
0x77cbc500 4883ec48         SUB RSP, 0x48
0x77cbc504 4c8bc9           MOV R9, RCX
0x77cbc507 488b0552da1000   MOV RAX, [RIP+0x10da52]
0x77cbc50e 4885c0           TEST RAX, RAX
0x77cbc511 0f84e3840300     JZ 0x77cf49fa
0x77cbc517 4c               DB 0x4c
------
ETHREAD: 0xfffffa8000d3e1a0 Pid: 1508 Tid: 1356
Tags: 
Created: 2019-12-11 14:16:07 UTC+0000
Exited: 1970-01-01 00:00:00 UTC+0000
Owning Process: sppsvc.exe
Attached Process: sppsvc.exe
State: Waiting:WrQueue
BasePriority: 0x8
Priority: 0x8
TEB: 0x7fffffd7000
StartAddress: 0x77cbc500 ntdll.dll
Win32Thread: 0x00000000
CrossThreadFlags: PS_CROSS_THREAD_FLAGS_DEADTHREAD
0x77cbc500 4883ec48         SUB RSP, 0x48
0x77cbc504 4c8bc9           MOV R9, RCX
0x77cbc507 488b0552da1000   MOV RAX, [RIP+0x10da52]
0x77cbc50e 4885c0           TEST RAX, RAX
0x77cbc511 0f84e3840300     JZ 0x77cf49fa
0x77cbc517 4c               DB 0x4c
------
ETHREAD: 0xfffffa8001d7a060 Pid: 320 Tid: 804
Tags: 
Created: 2019-12-11 13:41:42 UTC+0000
Exited: 1970-01-01 00:00:00 UTC+0000
Owning Process: csrss.exe
Attached Process: csrss.exe
State: Waiting:UserRequest
BasePriority: 0xd
Priority: 0xd
TEB: 0x7fffffa6000
StartAddress: 0x77cbc500 ntdll.dll
Win32Thread: 0x00000000
CrossThreadFlags: PS_CROSS_THREAD_FLAGS_DEADTHREAD
0x77cbc500 4883ec48         SUB RSP, 0x48
0x77cbc504 4c8bc9           MOV R9, RCX
0x77cbc507 488b0552da1000   MOV RAX, [RIP+0x10da52]
0x77cbc50e 4885c0           TEST RAX, RAX
0x77cbc511 0f84e3840300     JZ 0x77cf49fa
0x77cbc517 4c               DB 0x4c
------
ETHREAD: 0xfffffa8001e1b630 Pid: 472 Tid: 560
Tags: 
Created: 2019-12-11 13:41:47 UTC+0000
Exited: 1970-01-01 00:00:00 UTC+0000
Owning Process: svchost.exe
Attached Process: svchost.exe
State: Waiting:UserRequest
BasePriority: 0x8
Priority: 0x9
TEB: 0x7fffffde000
StartAddress: 0x77cbc500 ntdll.dll
Win32Thread: 0xfffff900c1aad520
CrossThreadFlags: PS_CROSS_THREAD_FLAGS_DEADTHREAD
0x77cbc500 4883ec48         SUB RSP, 0x48
0x77cbc504 4c8bc9           MOV R9, RCX
0x77cbc507 488b0552da1000   MOV RAX, [RIP+0x10da52]
0x77cbc50e 4885c0           TEST RAX, RAX
0x77cbc511 0f84e3840300     JZ 0x77cf49fa
0x77cbc517 4c               DB 0x4c
------
ETHREAD: 0xfffffa800214cb60 Pid: 480 Tid: 1928
Tags: 
Created: 2019-12-11 14:16:16 UTC+0000
Exited: 1970-01-01 00:00:00 UTC+0000
Owning Process: SearchIndexer.
Attached Process: SearchIndexer.
State: Waiting:UserRequest
BasePriority: 0x8
Priority: 0xa
TEB: 0x7fffffaa000
StartAddress: 0x77cbc500 ntdll.dll
Win32Thread: 0x00000000
CrossThreadFlags: PS_CROSS_THREAD_FLAGS_DEADTHREAD
0x77cbc500 4883ec48         SUB RSP, 0x48
0x77cbc504 4c8bc9           MOV R9, RCX
0x77cbc507 488b0552da1000   MOV RAX, [RIP+0x10da52]
0x77cbc50e 4885c0           TEST RAX, RAX
0x77cbc511 0f84e3840300     JZ 0x77cf49fa
0x77cbc517 4c               DB 0x4c
------
ETHREAD: 0xfffffa8001cadb60 Pid: 320 Tid: 512
Tags: 
Created: 2019-12-11 13:41:36 UTC+0000
Exited: 1970-01-01 00:00:00 UTC+0000
Owning Process: csrss.exe
Attached Process: csrss.exe
State: Waiting:WrUserRequest
BasePriority: 0xd
Priority: 0xe
TEB: 0x7fffffaa000
StartAddress: 0x77cbc500 ntdll.dll
Win32Thread: 0xfffff900c01ea7d0
CrossThreadFlags: PS_CROSS_THREAD_FLAGS_DEADTHREAD
0x77cbc500 4883ec48         SUB RSP, 0x48
0x77cbc504 4c8bc9           MOV R9, RCX
0x77cbc507 488b0552da1000   MOV RAX, [RIP+0x10da52]
0x77cbc50e 4885c0           TEST RAX, RAX
0x77cbc511 0f84e3840300     JZ 0x77cf49fa
0x77cbc517 4c               DB 0x4c
------
ETHREAD: 0x3fb83320 Pid: 604 Tid: 2212
Tags: ScannerOnly
Created: 2019-12-11 14:37:42 UTC+0000
Exited: 1970-01-01 00:00:00 UTC+0000
Owning Process: explorer.exe
Attached Process: explorer.exe
State: Waiting:UserRequest
BasePriority: 0x8
Priority: 0xa
TEB: 0x7fffffa4000
StartAddress: 0x77cbc500 ntdll.dll
Win32Thread: 0xfffff900c1e01c30
CrossThreadFlags: PS_CROSS_THREAD_FLAGS_DEADTHREAD
0x77cbc500 4883ec48         SUB RSP, 0x48
0x77cbc504 4c8bc9           MOV R9, RCX
0x77cbc507 488b0552da1000   MOV RAX, [RIP+0x10da52]
0x77cbc50e 4885c0           TEST RAX, RAX
0x77cbc511 0f84e3840300     JZ 0x77cf49fa
0x77cbc517 4c               DB 0x4c
------
ETHREAD: 0xfffffa80020ac760 Pid: 1044 Tid: 1860
Tags: 
Created: 2019-12-11 13:42:02 UTC+0000
Exited: 1970-01-01 00:00:00 UTC+0000
Owning Process: svchost.exe
Attached Process: svchost.exe
State: Waiting:WrQueue
BasePriority: 0x8
Priority: 0x8
TEB: 0x7fffff94000
StartAddress: 0xfffff8a001ba8910 UNKNOWN
Win32Thread: 0x00000000
CrossThreadFlags: PS_CROSS_THREAD_FLAGS_DEADTHREAD
0xfffff8a001ba8910 e0ca             LOOPNZ 0xfffff8a001ba88dc
0xfffff8a001ba8912 0a02             OR AL, [RDX]
0xfffff8a001ba8914 80faff           CMP DL, 0xff
0xfffff8a001ba8917 ffe0             JMP RAX
0xfffff8a001ba8919 ca0a02           RETF 0x20a
0xfffff8a001ba891c 80faff           CMP DL, 0xff
0xfffff8a001ba891f ff20             JMP QWORD [RAX]
0xfffff8a001ba8921 89ba01a0f8ff     MOV [RDX-0x75fff], EDI
0xfffff8a001ba8927 ff               DB 0xff
------
ETHREAD: 0xfffffa80021fda90 Pid: 2692 Tid: 2856
Tags: 
Created: 2019-12-11 14:34:54 UTC+0000
Exited: 1970-01-01 00:00:00 UTC+0000
Owning Process: conhost.exe
Attached Process: conhost.exe
State: Waiting:WrUserRequest
BasePriority: 0x8
Priority: 0xd
TEB: 0x7fffffde000
StartAddress: 0x77cbc500 ntdll.dll
Win32Thread: 0xfffff900c1e9a8c0
CrossThreadFlags: PS_CROSS_THREAD_FLAGS_DEADTHREAD
0x77cbc500 4883ec48         SUB RSP, 0x48
0x77cbc504 4c8bc9           MOV R9, RCX
0x77cbc507 488b0552da1000   MOV RAX, [RIP+0x10da52]
0x77cbc50e 4885c0           TEST RAX, RAX
0x77cbc511 0f84e3840300     JZ 0x77cf49fa
0x77cbc517 4c               DB 0x4c
------
ETHREAD: 0x3fb03b60 Pid: 604 Tid: 2688
Tags: ScannerOnly
Created: 2019-12-11 14:37:42 UTC+0000
Exited: 1970-01-01 00:00:00 UTC+0000
Owning Process: explorer.exe
Attached Process: explorer.exe
State: Waiting:WrQueue
BasePriority: 0x8
Priority: 0xb
TEB: 0x7fffff8a000
StartAddress: 0x77cbc500 ntdll.dll
Win32Thread: 0xfffff900c019a010
CrossThreadFlags: PS_CROSS_THREAD_FLAGS_DEADTHREAD
0x77cbc500 4883ec48         SUB RSP, 0x48
0x77cbc504 4c8bc9           MOV R9, RCX
0x77cbc507 488b0552da1000   MOV RAX, [RIP+0x10da52]
0x77cbc50e 4885c0           TEST RAX, RAX
0x77cbc511 0f84e3840300     JZ 0x77cf49fa
0x77cbc517 4c               DB 0x4c
------
ETHREAD: 0x3fb656c0 Pid: 652 Tid: 2516
Tags: ScannerOnly
Created: 2019-12-11 14:37:36 UTC+0000
Exited: 1970-01-01 00:00:00 UTC+0000
Owning Process: VBoxService.ex
Attached Process: VBoxService.ex
State: Waiting:WrQueue
BasePriority: 0x8
Priority: 0x8
TEB: 0x7fffffd9000
StartAddress: 0x77cbc500 ntdll.dll
Win32Thread: 0x00000000
CrossThreadFlags: PS_CROSS_THREAD_FLAGS_DEADTHREAD
0x77cbc500 4883ec48         SUB RSP, 0x48
0x77cbc504 4c8bc9           MOV R9, RCX
0x77cbc507 488b0552da1000   MOV RAX, [RIP+0x10da52]
0x77cbc50e 4885c0           TEST RAX, RAX
0x77cbc511 0f84e3840300     JZ 0x77cf49fa
0x77cbc517 4c               DB 0x4c
------
ETHREAD: 0x3faea4e0 Pid: 1372 Tid: 2412
Tags: ScannerOnly
Created: 2019-12-11 14:37:56 UTC+0000
Exited: 1970-01-01 00:00:00 UTC+0000
Owning Process: svchost.exe
Attached Process: svchost.exe
State: Waiting:WrQueue
BasePriority: 0x8
Priority: 0x8
TEB: 0x7fffff98000
StartAddress: 0x77cbc500 ntdll.dll
Win32Thread: 0x00000000
CrossThreadFlags: PS_CROSS_THREAD_FLAGS_DEADTHREAD
0x77cbc500 4883ec48         SUB RSP, 0x48
0x77cbc504 4c8bc9           MOV R9, RCX
0x77cbc507 488b0552da1000   MOV RAX, [RIP+0x10da52]
0x77cbc50e 4885c0           TEST RAX, RAX
0x77cbc511 0f84e3840300     JZ 0x77cf49fa
0x77cbc517 4c               DB 0x4c
------
ETHREAD: 0xfffffa8002035770 Pid: 4 Tid: 1576
Tags: 
Created: 2019-12-11 13:41:58 UTC+0000
Exited: 1970-01-01 00:00:00 UTC+0000
Owning Process: System
Attached Process: System
State: Waiting:WrQueue
BasePriority: 0x9
Priority: 0x9
TEB: 0x00000000
StartAddress: 0xfffff88002a726b0 srv.sys
Win32Thread: 0x00000000
CrossThreadFlags: PS_CROSS_THREAD_FLAGS_DEADTHREAD, PS_CROSS_THREAD_FLAGS_HARD_ERRORS_DISABLED
0xfffff88002a726b0 48895c2410       MOV [RSP+0x10], RBX
0xfffff88002a726b5 48896c2418       MOV [RSP+0x18], RBP
0xfffff88002a726ba 4889742420       MOV [RSP+0x20], RSI
0xfffff88002a726bf 57               PUSH RDI
0xfffff88002a726c0 4154             PUSH R12
0xfffff88002a726c2 4155             PUSH R13
0xfffff88002a726c4 4156             PUSH R14
0xfffff88002a726c6 4157             PUSH R15
------
ETHREAD: 0xfffffa8000ec99b0 Pid: 480 Tid: 2124
Tags: 
Created: 2019-12-11 14:35:21 UTC+0000
Exited: 1970-01-01 00:00:00 UTC+0000
Owning Process: SearchIndexer.
Attached Process: SearchIndexer.
State: Waiting:WrQueue
BasePriority: 0x8
Priority: 0x8
TEB: 0x7fffffd8000
StartAddress: 0x77cbc500 ntdll.dll
Win32Thread: 0x00000000
CrossThreadFlags: PS_CROSS_THREAD_FLAGS_DEADTHREAD
0x77cbc500 4883ec48         SUB RSP, 0x48
0x77cbc504 4c8bc9           MOV R9, RCX
0x77cbc507 488b0552da1000   MOV RAX, [RIP+0x10da52]
0x77cbc50e 4885c0           TEST RAX, RAX
0x77cbc511 0f84e3840300     JZ 0x77cf49fa
0x77cbc517 4c               DB 0x4c
------
ETHREAD: 0xfffffa8001493040 Pid: 248 Tid: 252
Tags: 
Created: 2019-12-11 13:41:25 UTC+0000
Exited: 1970-01-01 00:00:00 UTC+0000
Owning Process: smss.exe
Attached Process: smss.exe
State: Waiting:UserRequest
BasePriority: 0xb
Priority: 0xc
TEB: 0x7fffffde000
StartAddress: 0x77cbc500 ntdll.dll
Win32Thread: 0x00000000
CrossThreadFlags: PS_CROSS_THREAD_FLAGS_BREAK_ON_TERMINATION, PS_CROSS_THREAD_FLAGS_DEADTHREAD
0x77cbc500 4883ec48         SUB RSP, 0x48
0x77cbc504 4c8bc9           MOV R9, RCX
0x77cbc507 488b0552da1000   MOV RAX, [RIP+0x10da52]
0x77cbc50e 4885c0           TEST RAX, RAX
0x77cbc511 0f84e3840300     JZ 0x77cf49fa
0x77cbc517 4c               DB 0x4c
------
ETHREAD: 0xfffffa8000f3c6f0 Pid: 2908 Tid: 160
Tags: 
Created: 2019-12-11 14:37:13 UTC+0000
Exited: 1970-01-01 00:00:00 UTC+0000
Owning Process: taskhost.exe
Attached Process: taskhost.exe
State: Waiting:UserRequest
BasePriority: 0x8
Priority: 0x9
TEB: 0x7fffffdd000
StartAddress: 0x77cbc500 ntdll.dll
Win32Thread: 0xfffff900c2169010
CrossThreadFlags: PS_CROSS_THREAD_FLAGS_DEADTHREAD
0x77cbc500 4883ec48         SUB RSP, 0x48
0x77cbc504 4c8bc9           MOV R9, RCX
0x77cbc507 488b0552da1000   MOV RAX, [RIP+0x10da52]
0x77cbc50e 4885c0           TEST RAX, RAX
0x77cbc511 0f84e3840300     JZ 0x77cf49fa
0x77cbc517 4c               DB 0x4c
------
ETHREAD: 0xfffffa8002190660 Pid: 296 Tid: 1620
Tags: 
Created: 2019-12-11 14:32:25 UTC+0000
Exited: 1970-01-01 00:00:00 UTC+0000
Owning Process: taskhost.exe
Attached Process: taskhost.exe
State: Waiting:UserRequest
BasePriority: 0x8
Priority: 0xa
TEB: 0x7fffffd3000
StartAddress: 0xfffff8a001be1de0 UNKNOWN
Win32Thread: 0xfffff900c01ab8e0
CrossThreadFlags: PS_CROSS_THREAD_FLAGS_DEADTHREAD
0xfffff8a001be1de0 e009             LOOPNZ 0xfffff8a001be1deb
0xfffff8a001be1de2 1902             SBB [RDX], EAX
0xfffff8a001be1de4 80faff           CMP DL, 0xff
0xfffff8a001be1de7 ff4068           INC DWORD [RAX+0x68]
0xfffff8a001be1dea d001             ROL BYTE [RCX], 0x1
0xfffff8a001be1dec a0f8fffff01dbe01a0 MOV AL, [0xa001be1df0fffff8]
0xfffff8a001be1df5 f8               CLC
0xfffff8a001be1df6 ff               DB 0xff
0xfffff8a001be1df7 ff               DB 0xff
------
ETHREAD: 0xfffffa8001db5b60 Pid: 876 Tid: 1972
Tags: 
Created: 2019-12-11 14:19:07 UTC+0000
Exited: 2019-12-11 14:35:15 UTC+0000
Owning Process: svchost.exe
Attached Process: svchost.exe
State: Terminated
BasePriority: 0x8
Priority: 0x8
TEB: 0x00000000
StartAddress: 0xfffffa8001db5ee0 UNKNOWN
Win32Thread: 0x00000000
CrossThreadFlags: PS_CROSS_THREAD_FLAGS_DEADTHREAD, PS_CROSS_THREAD_FLAGS_TERMINATED
0xfffffa8001db5ee0 e05e             LOOPNZ 0xfffffa8001db5f40
0xfffffa8001db5ee2 db01             FILD DWORD [RCX]
0xfffffa8001db5ee4 80faff           CMP DL, 0xff
0xfffffa8001db5ee7 ffe0             JMP RAX
0xfffffa8001db5ee9 5e               POP RSI
0xfffffa8001db5eea db01             FILD DWORD [RCX]
0xfffffa8001db5eec 80faff           CMP DL, 0xff
0xfffffa8001db5eef ff00             INC DWORD [RAX]
0xfffffa8001db5ef1 0000             ADD [RAX], AL
0xfffffa8001db5ef3 0000             ADD [RAX], AL
0xfffffa8001db5ef5 0000             ADD [RAX], AL
0xfffffa8001db5ef7 00               DB 0x0
------
ETHREAD: 0xfffffa8000f026e0 Pid: 876 Tid: 2900
Tags: 
Created: 2019-12-11 14:37:13 UTC+0000
Exited: 2019-12-11 14:37:14 UTC+0000
Owning Process: svchost.exe
Attached Process: svchost.exe
State: Terminated
BasePriority: 0x8
Priority: 0x9
TEB: 0x00000000
StartAddress: 0x77cbc500 ntdll.dll
Win32Thread: 0x00000000
CrossThreadFlags: PS_CROSS_THREAD_FLAGS_DEADTHREAD, PS_CROSS_THREAD_FLAGS_TERMINATED
0x77cbc500 4883ec48         SUB RSP, 0x48
0x77cbc504 4c8bc9           MOV R9, RCX
0x77cbc507 488b0552da1000   MOV RAX, [RIP+0x10da52]
0x77cbc50e 4885c0           TEST RAX, RAX
0x77cbc511 0f84e3840300     JZ 0x77cf49fa
0x77cbc517 4c               DB 0x4c
------
ETHREAD: 0xfffffa8001c67060 Pid: 2368 Tid: 2960
Tags: 
Created: 2019-12-11 14:38:13 UTC+0000
Exited: 1970-01-01 00:00:00 UTC+0000
Owning Process: svchost.exe
Attached Process: svchost.exe
State: Waiting:WrLpcReply
BasePriority: 0x8
Priority: 0x9
TEB: 0x7fffffdc000
StartAddress: 0xfffff8a00224c570 UNKNOWN
Win32Thread: 0x00000000
CrossThreadFlags: PS_CROSS_THREAD_FLAGS_DEADTHREAD
0xfffff8a00224c570 1400             ADC AL, 0x0
0xfffff8a00224c572 0000             ADD [RAX], AL
0xfffff8a00224c574 0200             ADD AL, [RAX]
0xfffff8a00224c576 1c00             SBB AL, 0x0
0xfffff8a00224c578 0100             ADD [RAX], EAX
0xfffff8a00224c57a 0000             ADD [RAX], AL
0xfffff8a00224c57c 0000             ADD [RAX], AL
0xfffff8a00224c57e 1400             ADC AL, 0x0
0xfffff8a00224c580 0000             ADD [RAX], AL
0xfffff8a00224c582 1000             ADC [RAX], AL
0xfffff8a00224c584 0101             ADD [RCX], EAX
0xfffff8a00224c586 0000             ADD [RAX], AL
------
ETHREAD: 0xfffffa80021a7780 Pid: 720 Tid: 1492
Tags: 
Created: 2019-12-11 14:36:22 UTC+0000
Exited: 1970-01-01 00:00:00 UTC+0000
Owning Process: svchost.exe
Attached Process: svchost.exe
State: Waiting:WrQueue
BasePriority: 0x8
Priority: 0x9
TEB: 0x7fffffd9000
StartAddress: 0x77cbc500 ntdll.dll
Win32Thread: 0x00000000
CrossThreadFlags: PS_CROSS_THREAD_FLAGS_DEADTHREAD
0x77cbc500 4883ec48         SUB RSP, 0x48
0x77cbc504 4c8bc9           MOV R9, RCX
0x77cbc507 488b0552da1000   MOV RAX, [RIP+0x10da52]
0x77cbc50e 4885c0           TEST RAX, RAX
0x77cbc511 0f84e3840300     JZ 0x77cf49fa
0x77cbc517 4c               DB 0x4c
------
ETHREAD: 0xfffffa800226e940 Pid: 1372 Tid: 2864
Tags: 
Created: 2019-12-11 14:36:45 UTC+0000
Exited: 1970-01-01 00:00:00 UTC+0000
Owning Process: svchost.exe
Attached Process: svchost.exe
State: Waiting:WrQueue
BasePriority: 0x8
Priority: 0x8
TEB: 0x7fffffd6000
StartAddress: 0x77cbc500 ntdll.dll
Win32Thread: 0x00000000
CrossThreadFlags: PS_CROSS_THREAD_FLAGS_DEADTHREAD
0x77cbc500 4883ec48         SUB RSP, 0x48
0x77cbc504 4c8bc9           MOV R9, RCX
0x77cbc507 488b0552da1000   MOV RAX, [RIP+0x10da52]
0x77cbc50e 4885c0           TEST RAX, RAX
0x77cbc511 0f84e3840300     JZ 0x77cf49fa
0x77cbc517 4c               DB 0x4c
------
ETHREAD: 0xfffffa8000cc1040 Pid: 4 Tid: 104
Tags: 
Created: 2019-12-11 13:41:22 UTC+0000
Exited: 1970-01-01 00:00:00 UTC+0000
Owning Process: System
Attached Process: System
State: Waiting:WrFreePage
BasePriority: 0x8
Priority: 0x8
TEB: 0x00000000
StartAddress: 0xfffff800026e6270 ntoskrnl.exe
Win32Thread: 0x00000000
CrossThreadFlags: PS_CROSS_THREAD_FLAGS_DEADTHREAD
0xfffff800026e6270 4c8bdc           MOV R11, RSP
0xfffff800026e6273 49895b08         MOV [R11+0x8], RBX
0xfffff800026e6277 49896b18         MOV [R11+0x18], RBP
0xfffff800026e627b 56               PUSH RSI
0xfffff800026e627c 57               PUSH RDI
0xfffff800026e627d 4154             PUSH R12
0xfffff800026e627f 4156             PUSH R14
0xfffff800026e6281 4157             PUSH R15
0xfffff800026e6283 4883ec60         SUB RSP, 0x60
0xfffff800026e6287 4c               DB 0x4c
------
ETHREAD: 0xfffffa8000eb7060 Pid: 2660 Tid: 3052
Tags: 
Created: 2019-12-11 14:35:14 UTC+0000
Exited: 1970-01-01 00:00:00 UTC+0000
Owning Process: svchost.exe
Attached Process: svchost.exe
State: Waiting:UserRequest
BasePriority: 0x8
Priority: 0x8
TEB: 0x7fffffac000
StartAddress: 0x77cbc500 ntdll.dll
Win32Thread: 0x00000000
CrossThreadFlags: PS_CROSS_THREAD_FLAGS_DEADTHREAD
0x77cbc500 4883ec48         SUB RSP, 0x48
0x77cbc504 4c8bc9           MOV R9, RCX
0x77cbc507 488b0552da1000   MOV RAX, [RIP+0x10da52]
0x77cbc50e 4885c0           TEST RAX, RAX
0x77cbc511 0f84e3840300     JZ 0x77cf49fa
0x77cbc517 4c               DB 0x4c
------
ETHREAD: 0xfffffa8000f39b60 Pid: 484 Tid: 2208
Tags: 
Created: 2019-12-11 14:37:13 UTC+0000
Exited: 1970-01-01 00:00:00 UTC+0000
Owning Process: services.exe
Attached Process: services.exe
State: Waiting:WrQueue
BasePriority: 0x9
Priority: 0xa
TEB: 0x7fffffa6000
StartAddress: 0x77cbc500 ntdll.dll
Win32Thread: 0x00000000
CrossThreadFlags: PS_CROSS_THREAD_FLAGS_DEADTHREAD
0x77cbc500 4883ec48         SUB RSP, 0x48
0x77cbc504 4c8bc9           MOV R9, RCX
0x77cbc507 488b0552da1000   MOV RAX, [RIP+0x10da52]
0x77cbc50e 4885c0           TEST RAX, RAX
0x77cbc511 0f84e3840300     JZ 0x77cf49fa
0x77cbc517 4c               DB 0x4c
------
ETHREAD: 0xfffffa800221a8e0 Pid: 2368 Tid: 2380
Tags: 
Created: 2019-12-11 14:32:51 UTC+0000
Exited: 2019-12-11 14:35:50 UTC+0000
Owning Process: svchost.exe
Attached Process: svchost.exe
State: Terminated
BasePriority: 0x8
Priority: 0x8
TEB: 0x00000000
StartAddress: 0xfffffa800221ac60 UNKNOWN
Win32Thread: 0x00000000
CrossThreadFlags: PS_CROSS_THREAD_FLAGS_DEADTHREAD, PS_CROSS_THREAD_FLAGS_TERMINATED
0xfffffa800221ac60 60               DB 0x60
0xfffffa800221ac61 ac               LODSB
0xfffffa800221ac62 2102             AND [RDX], EAX
0xfffffa800221ac64 80faff           CMP DL, 0xff
0xfffffa800221ac67 ff60ac           JMP QWORD [RAX-0x54]
0xfffffa800221ac6a 2102             AND [RDX], EAX
0xfffffa800221ac6c 80faff           CMP DL, 0xff
0xfffffa800221ac6f ff00             INC DWORD [RAX]
0xfffffa800221ac71 0000             ADD [RAX], AL
0xfffffa800221ac73 0000             ADD [RAX], AL
0xfffffa800221ac75 0000             ADD [RAX], AL
0xfffffa800221ac77 00               DB 0x0
------
ETHREAD: 0xfffffa8000ec8060 Pid: 1856 Tid: 2196
Tags: 
Created: 2019-12-11 14:36:13 UTC+0000
Exited: 1970-01-01 00:00:00 UTC+0000
Owning Process: wmpnetwk.exe
Attached Process: wmpnetwk.exe
State: Waiting:DelayExecution
BasePriority: 0x8
Priority: 0x9
TEB: 0x7fffffdc000
StartAddress: 0x77cbc500 ntdll.dll
Win32Thread: 0x00000000
CrossThreadFlags: PS_CROSS_THREAD_FLAGS_DEADTHREAD
0x77cbc500 4883ec48         SUB RSP, 0x48
0x77cbc504 4c8bc9           MOV R9, RCX
0x77cbc507 488b0552da1000   MOV RAX, [RIP+0x10da52]
0x77cbc50e 4885c0           TEST RAX, RAX
0x77cbc511 0f84e3840300     JZ 0x77cf49fa
0x77cbc517 4c               DB 0x4c
------
ETHREAD: 0xfffffa8001e2d790 Pid: 876 Tid: 528
Tags: 
Created: 2019-12-11 14:29:12 UTC+0000
Exited: 2019-12-11 14:32:17 UTC+0000
Owning Process: svchost.exe
Attached Process: svchost.exe
State: Terminated
BasePriority: 0x8
Priority: 0x8
TEB: 0x00000000
StartAddress: 0x77cbc500 ntdll.dll
Win32Thread: 0x00000000
CrossThreadFlags: PS_CROSS_THREAD_FLAGS_DEADTHREAD, PS_CROSS_THREAD_FLAGS_TERMINATED
0x77cbc500 4883ec48         SUB RSP, 0x48
0x77cbc504 4c8bc9           MOV R9, RCX
0x77cbc507 488b0552da1000   MOV RAX, [RIP+0x10da52]
0x77cbc50e 4885c0           TEST RAX, RAX
0x77cbc511 0f84e3840300     JZ 0x77cf49fa
0x77cbc517 4c               DB 0x4c
------
ETHREAD: 0xfffffa80021f6740 Pid: 484 Tid: 2836
Tags: 
Created: 2019-12-11 14:36:19 UTC+0000
Exited: 1970-01-01 00:00:00 UTC+0000
Owning Process: services.exe
Attached Process: services.exe
State: Waiting:WrQueue
BasePriority: 0x9
Priority: 0xa
TEB: 0x7fffffd3000
StartAddress: 0x77cbc500 ntdll.dll
Win32Thread: 0x00000000
CrossThreadFlags: PS_CROSS_THREAD_FLAGS_DEADTHREAD
0x77cbc500 4883ec48         SUB RSP, 0x48
0x77cbc504 4c8bc9           MOV R9, RCX
0x77cbc507 488b0552da1000   MOV RAX, [RIP+0x10da52]
0x77cbc50e 4885c0           TEST RAX, RAX
0x77cbc511 0f84e3840300     JZ 0x77cf49fa
0x77cbc517 4c               DB 0x4c
------
ETHREAD: 0xfffffa8000eb1aa0 Pid: 2660 Tid: 828
Tags: 
Created: 2019-12-11 14:35:14 UTC+0000
Exited: 1970-01-01 00:00:00 UTC+0000
Owning Process: svchost.exe
Attached Process: svchost.exe
State: Waiting:UserRequest
BasePriority: 0x8
Priority: 0x9
TEB: 0x7fffffd8000
StartAddress: 0xfffff8a002119e10 UNKNOWN
Win32Thread: 0xfffff900c1ae2500
CrossThreadFlags: PS_CROSS_THREAD_FLAGS_DEADTHREAD
0xfffff8a002119e10 201e             AND [RSI], BL
0xfffff8a002119e12 eb00             JMP 0xfffff8a002119e14
0xfffff8a002119e14 80faff           CMP DL, 0xff
0xfffff8a002119e17 ff20             JMP QWORD [RAX]
0xfffff8a002119e19 1e               DB 0x1e
0xfffff8a002119e1a eb00             JMP 0xfffff8a002119e1c
0xfffff8a002119e1c 80faff           CMP DL, 0xff
0xfffff8a002119e1f ff20             JMP QWORD [RAX]
0xfffff8a002119e21 9e               SAHF
0xfffff8a002119e22 1102             ADC [RDX], EAX
0xfffff8a002119e24 a0               DB 0xa0
0xfffff8a002119e25 f8               CLC
0xfffff8a002119e26 ff               DB 0xff
0xfffff8a002119e27 ff               DB 0xff
------
ETHREAD: 0xfffffa8001cf2ae0 Pid: 948 Tid: 1936
Tags: 
Created: 2019-12-11 14:16:09 UTC+0000
Exited: 1970-01-01 00:00:00 UTC+0000
Owning Process: svchost.exe
Attached Process: svchost.exe
State: Waiting:UserRequest
BasePriority: 0x8
Priority: 0x8
TEB: 0x7fffffa6000
StartAddress: 0x77cbc500 ntdll.dll
Win32Thread: 0x00000000
CrossThreadFlags: PS_CROSS_THREAD_FLAGS_DEADTHREAD
0x77cbc500 4883ec48         SUB RSP, 0x48
0x77cbc504 4c8bc9           MOV R9, RCX
0x77cbc507 488b0552da1000   MOV RAX, [RIP+0x10da52]
0x77cbc50e 4885c0           TEST RAX, RAX
0x77cbc511 0f84e3840300     JZ 0x77cf49fa
0x77cbc517 4c               DB 0x4c
------
ETHREAD: 0xfffffa8001f27710 Pid: 1372 Tid: 1376
Tags: 
Created: 2019-12-11 13:41:54 UTC+0000
Exited: 1970-01-01 00:00:00 UTC+0000
Owning Process: svchost.exe
Attached Process: svchost.exe
State: Waiting:UserRequest
BasePriority: 0x8
Priority: 0x9
TEB: 0x7fffffde000
StartAddress: 0x77cbc500 ntdll.dll
Win32Thread: 0xfffff900c1aba900
CrossThreadFlags: PS_CROSS_THREAD_FLAGS_DEADTHREAD
0x77cbc500 4883ec48         SUB RSP, 0x48
0x77cbc504 4c8bc9           MOV R9, RCX
0x77cbc507 488b0552da1000   MOV RAX, [RIP+0x10da52]
0x77cbc50e 4885c0           TEST RAX, RAX
0x77cbc511 0f84e3840300     JZ 0x77cf49fa
0x77cbc517 4c               DB 0x4c
------
ETHREAD: 0xfffffa8001594b60 Pid: 416 Tid: 2584
Tags: 
Created: 2019-12-11 14:37:05 UTC+0000
Exited: 1970-01-01 00:00:00 UTC+0000
Owning Process: winlogon.exe
Attached Process: winlogon.exe
State: Waiting:WrQueue
BasePriority: 0xd
Priority: 0xe
TEB: 0x7fffffdc000
StartAddress: 0x77cbc500 ntdll.dll
Win32Thread: 0xfffff900c1c0b270
CrossThreadFlags: PS_CROSS_THREAD_FLAGS_DEADTHREAD
0x77cbc500 4883ec48         SUB RSP, 0x48
0x77cbc504 4c8bc9           MOV R9, RCX
0x77cbc507 488b0552da1000   MOV RAX, [RIP+0x10da52]
0x77cbc50e 4885c0           TEST RAX, RAX
0x77cbc511 0f84e3840300     JZ 0x77cf49fa
0x77cbc517 4c               DB 0x4c
------
ETHREAD: 0xfffffa8001fad060 Pid: 1372 Tid: 1436
Tags: 
Created: 2019-12-11 13:41:55 UTC+0000
Exited: 1970-01-01 00:00:00 UTC+0000
Owning Process: svchost.exe
Attached Process: svchost.exe
State: Waiting:WrQueue
BasePriority: 0x8
Priority: 0x8
TEB: 0x7fffffd3000
StartAddress: 0xfffff8a001a4abd0 UNKNOWN
Win32Thread: 0x00000000
CrossThreadFlags: PS_CROSS_THREAD_FLAGS_DEADTHREAD
0xfffff8a001a4abd0 e0d3             LOOPNZ 0xfffff8a001a4aba5
0xfffff8a001a4abd2 fa               CLI
0xfffff8a001a4abd3 0180faffff20     ADD [RAX+0x20fffffa], EAX
0xfffff8a001a4abd9 80a901a0f8ffff   SUB BYTE [RCX-0x75fff], 0xff
0xfffff8a001a4abe0 e0ab             LOOPNZ 0xfffff8a001a4ab8d
0xfffff8a001a4abe2 a4               MOVSB
0xfffff8a001a4abe3 01               DB 0x1
0xfffff8a001a4abe4 a0               DB 0xa0
0xfffff8a001a4abe5 f8               CLC
0xfffff8a001a4abe6 ff               DB 0xff
0xfffff8a001a4abe7 ff               DB 0xff
------
ETHREAD: 0xfffffa8001ce0b60 Pid: 484 Tid: 548
Tags: 
Created: 2019-12-11 13:41:39 UTC+0000
Exited: 2019-12-11 14:15:13 UTC+0000
Owning Process: services.exe
Attached Process: services.exe
State: Terminated
BasePriority: 0x9
Priority: 0x9
TEB: 0x00000000
StartAddress: 0x77cbc500 ntdll.dll
Win32Thread: 0x00000000
CrossThreadFlags: PS_CROSS_THREAD_FLAGS_DEADTHREAD, PS_CROSS_THREAD_FLAGS_TERMINATED
0x77cbc500 4883ec48         SUB RSP, 0x48
0x77cbc504 4c8bc9           MOV R9, RCX
0x77cbc507 488b0552da1000   MOV RAX, [RIP+0x10da52]
0x77cbc50e 4885c0           TEST RAX, RAX
0x77cbc511 0f84e3840300     JZ 0x77cf49fa
0x77cbc517 4c               DB 0x4c
------
ETHREAD: 0xfffffa8001e6f060 Pid: 1044 Tid: 1100
Tags: 
Created: 2019-12-11 13:41:48 UTC+0000
Exited: 1970-01-01 00:00:00 UTC+0000
Owning Process: svchost.exe
Attached Process: svchost.exe
State: Waiting:UserRequest
BasePriority: 0x8
Priority: 0x9
TEB: 0x7fffffaa000
StartAddress: 0x77cbc500 ntdll.dll
Win32Thread: 0x00000000
CrossThreadFlags: PS_CROSS_THREAD_FLAGS_DEADTHREAD
0x77cbc500 4883ec48         SUB RSP, 0x48
0x77cbc504 4c8bc9           MOV R9, RCX
0x77cbc507 488b0552da1000   MOV RAX, [RIP+0x10da52]
0x77cbc50e 4885c0           TEST RAX, RAX
0x77cbc511 0f84e3840300     JZ 0x77cf49fa
0x77cbc517 4c               DB 0x4c
------
ETHREAD: 0xfffffa8000f524c0 Pid: 876 Tid: 2416
Tags: 
Created: 2019-12-11 14:37:14 UTC+0000
Exited: 1970-01-01 00:00:00 UTC+0000
Owning Process: svchost.exe
Attached Process: svchost.exe
State: Waiting:UserRequest
BasePriority: 0x1
Priority: 0x1
TEB: 0x7fffff8a000
StartAddress: 0x77cbc500 ntdll.dll
Win32Thread: 0x00000000
CrossThreadFlags: PS_CROSS_THREAD_FLAGS_DEADTHREAD
0x77cbc500 4883ec48         SUB RSP, 0x48
0x77cbc504 4c8bc9           MOV R9, RCX
0x77cbc507 488b0552da1000   MOV RAX, [RIP+0x10da52]
0x77cbc50e 4885c0           TEST RAX, RAX
0x77cbc511 0f84e3840300     JZ 0x77cf49fa
0x77cbc517 4c               DB 0x4c
------
ETHREAD: 0xfffffa8000fa97b0 Pid: 2908 Tid: 1084
Tags: 
Created: 2019-12-11 14:37:14 UTC+0000
Exited: 1970-01-01 00:00:00 UTC+0000
Owning Process: taskhost.exe
Attached Process: taskhost.exe
State: Waiting:WrUserRequest
BasePriority: 0xa
Priority: 0xc
TEB: 0x7fffffaa000
StartAddress: 0x77cbc500 ntdll.dll
Win32Thread: 0xfffff900c2273590
CrossThreadFlags: PS_CROSS_THREAD_FLAGS_DEADTHREAD
0x77cbc500 4883ec48         SUB RSP, 0x48
0x77cbc504 4c8bc9           MOV R9, RCX
0x77cbc507 488b0552da1000   MOV RAX, [RIP+0x10da52]
0x77cbc50e 4885c0           TEST RAX, RAX
0x77cbc511 0f84e3840300     JZ 0x77cf49fa
0x77cbc517 4c               DB 0x4c
------
ETHREAD: 0xfffffa80021eab60 Pid: 500 Tid: 2764
Tags: 
Created: 2019-12-11 14:35:54 UTC+0000
Exited: 1970-01-01 00:00:00 UTC+0000
Owning Process: lsm.exe
Attached Process: lsm.exe
State: Waiting:WrQueue
BasePriority: 0x8
Priority: 0x9
TEB: 0x7fffffaa000
StartAddress: 0x77cbc500 ntdll.dll
Win32Thread: 0x00000000
CrossThreadFlags: PS_CROSS_THREAD_FLAGS_DEADTHREAD
0x77cbc500 4883ec48         SUB RSP, 0x48
0x77cbc504 4c8bc9           MOV R9, RCX
0x77cbc507 488b0552da1000   MOV RAX, [RIP+0x10da52]
0x77cbc50e 4885c0           TEST RAX, RAX
0x77cbc511 0f84e3840300     JZ 0x77cf49fa
0x77cbc517 4c               DB 0x4c
------
ETHREAD: 0xfffffa8001d03b60 Pid: 484 Tid: 624
Tags: 
Created: 2019-12-11 13:41:39 UTC+0000
Exited: 2019-12-11 14:15:13 UTC+0000
Owning Process: services.exe
Attached Process: services.exe
State: Terminated
BasePriority: 0x9
Priority: 0x9
TEB: 0x00000000
StartAddress: 0x77cbc500 ntdll.dll
Win32Thread: 0x00000000
CrossThreadFlags: PS_CROSS_THREAD_FLAGS_DEADTHREAD, PS_CROSS_THREAD_FLAGS_TERMINATED
0x77cbc500 4883ec48         SUB RSP, 0x48
0x77cbc504 4c8bc9           MOV R9, RCX
0x77cbc507 488b0552da1000   MOV RAX, [RIP+0x10da52]
0x77cbc50e 4885c0           TEST RAX, RAX
0x77cbc511 0f84e3840300     JZ 0x77cf49fa
0x77cbc517 4c               DB 0x4c
------
ETHREAD: 0xfffffa8000cba680 Pid: 4 Tid: 68
Tags: 
Created: 2019-12-11 13:41:22 UTC+0000
Exited: 1970-01-01 00:00:00 UTC+0000
Owning Process: System
Attached Process: System
State: Waiting:WrQueue
BasePriority: 0xc
Priority: 0xc
TEB: 0x00000000
StartAddress: 0xfffff800026a9910 ntoskrnl.exe
Win32Thread: 0x00000000
CrossThreadFlags: PS_CROSS_THREAD_FLAGS_DEADTHREAD
0xfffff800026a9910 4c8bdc           MOV R11, RSP
0xfffff800026a9913 49895b10         MOV [R11+0x10], RBX
0xfffff800026a9917 49896b18         MOV [R11+0x18], RBP
0xfffff800026a991b 49897320         MOV [R11+0x20], RSI
0xfffff800026a991f 57               PUSH RDI
0xfffff800026a9920 4154             PUSH R12
0xfffff800026a9922 4155             PUSH R13
0xfffff800026a9924 4156             PUSH R14
0xfffff800026a9926 4157             PUSH R15
------
ETHREAD: 0xfffffa8000e6d890 Pid: 2504 Tid: 2944
Tags: 
Created: 2019-12-11 14:37:20 UTC+0000
Exited: 1970-01-01 00:00:00 UTC+0000
Owning Process: explorer.exe
Attached Process: explorer.exe
State: Waiting:WrQueue
BasePriority: 0x8
Priority: 0xa
TEB: 0x7fffff84000
StartAddress: 0x77cbc500 ntdll.dll
Win32Thread: 0x00000000
CrossThreadFlags: PS_CROSS_THREAD_FLAGS_DEADTHREAD
0x77cbc500 4883ec48         SUB RSP, 0x48
0x77cbc504 4c8bc9           MOV R9, RCX
0x77cbc507 488b0552da1000   MOV RAX, [RIP+0x10da52]
0x77cbc50e 4885c0           TEST RAX, RAX
0x77cbc511 0f84e3840300     JZ 0x77cf49fa
0x77cbc517 4c               DB 0x4c
------
ETHREAD: 0xfffffa80021fb6a0 Pid: 604 Tid: 2276
Tags: 
Created: 2019-12-11 14:32:49 UTC+0000
Exited: 1970-01-01 00:00:00 UTC+0000
Owning Process: explorer.exe
Attached Process: explorer.exe
State: Waiting:UserRequest
BasePriority: 0x8
Priority: 0xa
TEB: 0x7fffff86000
StartAddress: 0xfffff8a001fc4c60 UNKNOWN
Win32Thread: 0x00000000
CrossThreadFlags: PS_CROSS_THREAD_FLAGS_DEADTHREAD
0xfffff8a001fc4c60 20ba1f0280fa     AND [RDX-0x57ffde1], BH
0xfffff8a001fc4c66 ff               DB 0xff
0xfffff8a001fc4c67 ff20             JMP QWORD [RAX]
0xfffff8a001fc4c69 ba1f0280fa       MOV EDX, 0xfa80021f
0xfffff8a001fc4c6e ff               DB 0xff
0xfffff8a001fc4c6f ff704c           PUSH QWORD [RAX+0x4c]
0xfffff8a001fc4c72 fc               CLD
0xfffff8a001fc4c73 01               DB 0x1
0xfffff8a001fc4c74 a0               DB 0xa0
0xfffff8a001fc4c75 f8               CLC
0xfffff8a001fc4c76 ff               DB 0xff
0xfffff8a001fc4c77 ff               DB 0xff
------
ETHREAD: 0x3fab5060 Pid: 1512 Tid: 2492
Tags: ScannerOnly
Created: 2019-12-11 14:37:23 UTC+0000
Exited: 1970-01-01 00:00:00 UTC+0000
Owning Process: WinRAR.exe
Attached Process: WinRAR.exe
State: Waiting:WrQueue
BasePriority: 0x8
Priority: 0x9
TEB: 0x7fffffdb000
StartAddress: 0x77cbc500 ntdll.dll
Win32Thread: 0x00000000
CrossThreadFlags: PS_CROSS_THREAD_FLAGS_DEADTHREAD
0x77cbc500 4883ec48         SUB RSP, 0x48
0x77cbc504 4c8bc9           MOV R9, RCX
0x77cbc507 488b0552da1000   MOV RAX, [RIP+0x10da52]
0x77cbc50e 4885c0           TEST RAX, RAX
0x77cbc511 0f84e3840300     JZ 0x77cf49fa
0x77cbc517 4c               DB 0x4c
------
ETHREAD: 0xfffffa8001e16060 Pid: 4 Tid: 360
Tags: 
Created: 2019-12-11 13:41:46 UTC+0000
Exited: 1970-01-01 00:00:00 UTC+0000
Owning Process: System
Attached Process: System
State: Waiting:Executive
BasePriority: 0x8
Priority: 0x8
TEB: 0x00000000
StartAddress: 0xfffff8800490e51c csc.sys
Win32Thread: 0x00000000
CrossThreadFlags: PS_CROSS_THREAD_FLAGS_DEADTHREAD
0xfffff8800490e51c 4c8bdc           MOV R11, RSP
0xfffff8800490e51f 49894b08         MOV [R11+0x8], RCX
0xfffff8800490e523 53               PUSH RBX
0xfffff8800490e524 55               PUSH RBP
0xfffff8800490e525 56               PUSH RSI
0xfffff8800490e526 57               PUSH RDI
0xfffff8800490e527 4154             PUSH R12
0xfffff8800490e529 4155             PUSH R13
0xfffff8800490e52b 4156             PUSH R14
0xfffff8800490e52d 4157             PUSH R15
0xfffff8800490e52f 4883ec68         SUB RSP, 0x68
0xfffff8800490e533 45               DB 0x45
------
ETHREAD: 0xfffffa8001de9060 Pid: 816 Tid: 992
Tags: 
Created: 2019-12-11 13:41:45 UTC+0000
Exited: 1970-01-01 00:00:00 UTC+0000
Owning Process: svchost.exe
Attached Process: svchost.exe
State: Waiting:WrQueue
BasePriority: 0x8
Priority: 0x8
TEB: 0x7fffffd6000
StartAddress: 0x77cbc500 ntdll.dll
Win32Thread: 0x00000000
CrossThreadFlags: PS_CROSS_THREAD_FLAGS_DEADTHREAD
0x77cbc500 4883ec48         SUB RSP, 0x48
0x77cbc504 4c8bc9           MOV R9, RCX
0x77cbc507 488b0552da1000   MOV RAX, [RIP+0x10da52]
0x77cbc50e 4885c0           TEST RAX, RAX
0x77cbc511 0f84e3840300     JZ 0x77cf49fa
0x77cbc517 4c               DB 0x4c
------
ETHREAD: 0xfffffa8000f77060 Pid: 604 Tid: 2244
Tags: 
Created: 2019-12-11 14:37:42 UTC+0000
Exited: 1970-01-01 00:00:00 UTC+0000
Owning Process: explorer.exe
Attached Process: explorer.exe
State: Waiting:WrQueue
BasePriority: 0x8
Priority: 0xb
TEB: 0x7fffffd8000
StartAddress: 0x77cbc500 ntdll.dll
Win32Thread: 0xfffff900c1c8dc30
CrossThreadFlags: PS_CROSS_THREAD_FLAGS_DEADTHREAD
0x77cbc500 4883ec48         SUB RSP, 0x48
0x77cbc504 4c8bc9           MOV R9, RCX
0x77cbc507 488b0552da1000   MOV RAX, [RIP+0x10da52]
0x77cbc50e 4885c0           TEST RAX, RAX
0x77cbc511 0f84e3840300     JZ 0x77cf49fa
0x77cbc517 4c               DB 0x4c
------
ETHREAD: 0xfffffa8001dbb660 Pid: 480 Tid: 1612
Tags: 
Created: 2019-12-11 14:16:10 UTC+0000
Exited: 1970-01-01 00:00:00 UTC+0000
Owning Process: SearchIndexer.
Attached Process: SearchIndexer.
State: Waiting:UserRequest
BasePriority: 0x8
Priority: 0x8
TEB: 0x7fffffd4000
StartAddress: 0x77cbc500 ntdll.dll
Win32Thread: 0xfffff900c1add4c0
CrossThreadFlags: PS_CROSS_THREAD_FLAGS_DEADTHREAD
0x77cbc500 4883ec48         SUB RSP, 0x48
0x77cbc504 4c8bc9           MOV R9, RCX
0x77cbc507 488b0552da1000   MOV RAX, [RIP+0x10da52]
0x77cbc50e 4885c0           TEST RAX, RAX
0x77cbc511 0f84e3840300     JZ 0x77cf49fa
0x77cbc517 4c               DB 0x4c
------
ETHREAD: 0xfffffa8001db74f0 Pid: 816 Tid: 912
Tags: 
Created: 2019-12-11 13:41:43 UTC+0000
Exited: 2019-12-11 13:41:47 UTC+0000
Owning Process: svchost.exe
Attached Process: svchost.exe
State: Terminated
BasePriority: 0x8
Priority: 0x8
TEB: 0x00000000
StartAddress: 0x77cbc500 ntdll.dll
Win32Thread: 0x00000000
CrossThreadFlags: PS_CROSS_THREAD_FLAGS_DEADTHREAD, PS_CROSS_THREAD_FLAGS_TERMINATED
0x77cbc500 4883ec48         SUB RSP, 0x48
0x77cbc504 4c8bc9           MOV R9, RCX
0x77cbc507 488b0552da1000   MOV RAX, [RIP+0x10da52]
0x77cbc50e 4885c0           TEST RAX, RAX
0x77cbc511 0f84e3840300     JZ 0x77cf49fa
0x77cbc517 4c               DB 0x4c
------
ETHREAD: 0xfffffa8001e0f7d0 Pid: 852 Tid: 364
Tags: 
Created: 2019-12-11 13:41:46 UTC+0000
Exited: 1970-01-01 00:00:00 UTC+0000
Owning Process: svchost.exe
Attached Process: svchost.exe
State: Waiting:UserRequest
BasePriority: 0x8
Priority: 0x9
TEB: 0x7fffffa6000
StartAddress: 0xfffff8a00176dcf0 UNKNOWN
Win32Thread: 0x00000000
CrossThreadFlags: PS_CROSS_THREAD_FLAGS_DEADTHREAD
0xfffff8a00176dcf0 50               PUSH RAX
0xfffff8a00176dcf1 fb               STI
0xfffff8a00176dcf2 e001             LOOPNZ 0xfffff8a00176dcf5
0xfffff8a00176dcf4 80faff           CMP DL, 0xff
0xfffff8a00176dcf7 ff50fb           CALL QWORD [RAX-0x5]
0xfffff8a00176dcfa e001             LOOPNZ 0xfffff8a00176dcfd
0xfffff8a00176dcfc 80faff           CMP DL, 0xff
0xfffff8a00176dcff ff00             INC DWORD [RAX]
0xfffff8a00176dd01 dd7601           FNSAVE [RSI+0x1]
0xfffff8a00176dd04 a0               DB 0xa0
0xfffff8a00176dd05 f8               CLC
0xfffff8a00176dd06 ff               DB 0xff
0xfffff8a00176dd07 ff               DB 0xff
------
ETHREAD: 0xfffffa8001d02b60 Pid: 588 Tid: 620
Tags: 
Created: 2019-12-11 13:41:39 UTC+0000
Exited: 1970-01-01 00:00:00 UTC+0000
Owning Process: svchost.exe
Attached Process: svchost.exe
State: Waiting:UserRequest
BasePriority: 0x8
Priority: 0x9
TEB: 0x7fffffaa000
StartAddress: 0x77cbc500 ntdll.dll
Win32Thread: 0x00000000
CrossThreadFlags: PS_CROSS_THREAD_FLAGS_DEADTHREAD
0x77cbc500 4883ec48         SUB RSP, 0x48
0x77cbc504 4c8bc9           MOV R9, RCX
0x77cbc507 488b0552da1000   MOV RAX, [RIP+0x10da52]
0x77cbc50e 4885c0           TEST RAX, RAX
0x77cbc511 0f84e3840300     JZ 0x77cf49fa
0x77cbc517 4c               DB 0x4c
------
ETHREAD: 0xfffffa8001c39060 Pid: 1856 Tid: 1828
Tags: 
Created: 2019-12-11 14:16:08 UTC+0000
Exited: 1970-01-01 00:00:00 UTC+0000
Owning Process: wmpnetwk.exe
Attached Process: wmpnetwk.exe
State: Waiting:UserRequest
BasePriority: 0x8
Priority: 0x8
TEB: 0x7fffffd7000
StartAddress: 0xfffff8a001b75c10 UNKNOWN
Win32Thread: 0xfffff900c1acec30
CrossThreadFlags: PS_CROSS_THREAD_FLAGS_DEADTHREAD
0xfffff8a001b75c10 e093             LOOPNZ 0xfffff8a001b75ba5
0xfffff8a001b75c12 c3               RET
0xfffff8a001b75c13 0180fafffff0     ADD [RAX-0xf000006], EAX
0xfffff8a001b75c19 159c01a0f8       ADC EAX, 0xf8a0019c
0xfffff8a001b75c1e ff               DB 0xff
0xfffff8a001b75c1f ff20             JMP QWORD [RAX]
0xfffff8a001b75c21 5c               POP RSP
0xfffff8a001b75c22 b701             MOV BH, 0x1
0xfffff8a001b75c24 a0               DB 0xa0
0xfffff8a001b75c25 f8               CLC
0xfffff8a001b75c26 ff               DB 0xff
0xfffff8a001b75c27 ff               DB 0xff
------
ETHREAD: 0xfffffa80021ed670 Pid: 1844 Tid: 2160
Tags: 
Created: 2019-12-11 14:32:37 UTC+0000
Exited: 1970-01-01 00:00:00 UTC+0000
Owning Process: VBoxTray.exe
Attached Process: VBoxTray.exe
State: Waiting:DelayExecution
BasePriority: 0x8
Priority: 0x8
TEB: 0x7fffffa8000
StartAddress: 0x77cbc500 ntdll.dll
Win32Thread: 0x00000000
CrossThreadFlags: PS_CROSS_THREAD_FLAGS_DEADTHREAD
0x77cbc500 4883ec48         SUB RSP, 0x48
0x77cbc504 4c8bc9           MOV R9, RCX
0x77cbc507 488b0552da1000   MOV RAX, [RIP+0x10da52]
0x77cbc50e 4885c0           TEST RAX, RAX
0x77cbc511 0f84e3840300     JZ 0x77cf49fa
0x77cbc517 4c               DB 0x4c
------
ETHREAD: 0x3facdb60 Pid: 1988 Tid: 2984
Tags: ScannerOnly
Created: 2019-12-11 14:37:35 UTC+0000
Exited: 1970-01-01 00:00:00 UTC+0000
Owning Process: dwm.exe
Attached Process: dwm.exe
State: Waiting:WrQueue
BasePriority: 0x8
Priority: 0x8
TEB: 0x7fffffd8000
StartAddress: 0x77cbc500 ntdll.dll
Win32Thread: 0x00000000
CrossThreadFlags: PS_CROSS_THREAD_FLAGS_DEADTHREAD
0x77cbc500 4883ec48         SUB RSP, 0x48
0x77cbc504 4c8bc9           MOV R9, RCX
0x77cbc507 488b0552da1000   MOV RAX, [RIP+0x10da52]
0x77cbc50e 4885c0           TEST RAX, RAX
0x77cbc511 0f84e3840300     JZ 0x77cf49fa
0x77cbc517 4c               DB 0x4c
------
ETHREAD: 0xfffffa80012c77e0 Pid: 4 Tid: 164
Tags: 
Created: 2019-12-11 13:41:22 UTC+0000
Exited: 1970-01-01 00:00:00 UTC+0000
Owning Process: System
Attached Process: System
State: Waiting:Executive
BasePriority: 0x7
Priority: 0xf
TEB: 0x00000000
StartAddress: 0xfffff8800151c0d0 ndis.sys
Win32Thread: 0x00000000
CrossThreadFlags: PS_CROSS_THREAD_FLAGS_DEADTHREAD
0xfffff8800151c0d0 fff7             PUSH RDI
0xfffff8800151c0d2 4883ec30         SUB RSP, 0x30
0xfffff8800151c0d6 488364242000     AND QWORD [RSP+0x20], 0x0
0xfffff8800151c0dc 488d0d3d3c0300   LEA RCX, [RIP+0x33c3d]
0xfffff8800151c0e3 4533c9           XOR R9D, R9D
0xfffff8800151c0e6 45               DB 0x45
0xfffff8800151c0e7 33               DB 0x33
------
ETHREAD: 0xfffffa80020c1950 Pid: 1372 Tid: 1800
Tags: 
Created: 2019-12-11 13:42:02 UTC+0000
Exited: 2019-12-11 14:15:25 UTC+0000
Owning Process: svchost.exe
Attached Process: svchost.exe
State: Terminated
BasePriority: 0x8
Priority: 0x8
TEB: 0x00000000
StartAddress: 0x77cbc500 ntdll.dll
Win32Thread: 0x00000000
CrossThreadFlags: PS_CROSS_THREAD_FLAGS_DEADTHREAD, PS_CROSS_THREAD_FLAGS_TERMINATED
0x77cbc500 4883ec48         SUB RSP, 0x48
0x77cbc504 4c8bc9           MOV R9, RCX
0x77cbc507 488b0552da1000   MOV RAX, [RIP+0x10da52]
0x77cbc50e 4885c0           TEST RAX, RAX
0x77cbc511 0f84e3840300     JZ 0x77cf49fa
0x77cbc517 4c               DB 0x4c
------
ETHREAD: 0xfffffa8000ec8740 Pid: 1248 Tid: 1172
Tags: 
Created: 2019-12-11 14:35:17 UTC+0000
Exited: 1970-01-01 00:00:00 UTC+0000
Owning Process: svchost.exe
Attached Process: svchost.exe
State: Waiting:WrQueue
BasePriority: 0x8
Priority: 0x8
TEB: 0x7fffff9a000
StartAddress: 0x77cbc500 ntdll.dll
Win32Thread: 0x00000000
CrossThreadFlags: PS_CROSS_THREAD_FLAGS_DEADTHREAD
0x77cbc500 4883ec48         SUB RSP, 0x48
0x77cbc504 4c8bc9           MOV R9, RCX
0x77cbc507 488b0552da1000   MOV RAX, [RIP+0x10da52]
0x77cbc50e 4885c0           TEST RAX, RAX
0x77cbc511 0f84e3840300     JZ 0x77cf49fa
0x77cbc517 4c               DB 0x4c
------
ETHREAD: 0x3fb1e060 Pid: 2504 Tid: 2744
Tags: ScannerOnly
Created: 2019-12-11 14:37:22 UTC+0000
Exited: 1970-01-01 00:00:00 UTC+0000
Owning Process: explorer.exe
Attached Process: explorer.exe
State: Waiting:WrUserRequest
BasePriority: 0xa
Priority: 0xd
TEB: 0x7fffff76000
StartAddress: 0x77cbc500 ntdll.dll
Win32Thread: 0xfffff900c1abe5e0
CrossThreadFlags: PS_CROSS_THREAD_FLAGS_DEADTHREAD
0x77cbc500 4883ec48         SUB RSP, 0x48
0x77cbc504 4c8bc9           MOV R9, RCX
0x77cbc507 488b0552da1000   MOV RAX, [RIP+0x10da52]
0x77cbc50e 4885c0           TEST RAX, RAX
0x77cbc511 0f84e3840300     JZ 0x77cf49fa
0x77cbc517 4c               DB 0x4c
------
ETHREAD: 0xfffffa8001490040 Pid: 4 Tid: 244
Tags: 
Created: 2019-12-11 13:41:25 UTC+0000
Exited: 1970-01-01 00:00:00 UTC+0000
Owning Process: System
Attached Process: System
State: Waiting:WrLpcReceive
BasePriority: 0x8
Priority: 0x9
TEB: 0x00000000
StartAddress: 0xfffff800029368f4 ntoskrnl.exe
Win32Thread: 0x00000000
CrossThreadFlags: PS_CROSS_THREAD_FLAGS_DEADTHREAD
0xfffff800029368f4 48895c2408       MOV [RSP+0x8], RBX
0xfffff800029368f9 48896c2410       MOV [RSP+0x10], RBP
0xfffff800029368fe 4889742418       MOV [RSP+0x18], RSI
0xfffff80002936903 57               PUSH RDI
0xfffff80002936904 4881ec90040000   SUB RSP, 0x490
0xfffff8000293690b 48               DB 0x48
------
ETHREAD: 0xfffffa8002051b60 Pid: 1044 Tid: 1064
Tags: 
Created: 2019-12-11 14:15:28 UTC+0000
Exited: 1970-01-01 00:00:00 UTC+0000
Owning Process: svchost.exe
Attached Process: svchost.exe
State: Waiting:WrQueue
BasePriority: 0x8
Priority: 0x8
TEB: 0x7fffffda000
StartAddress: 0x77cbc500 ntdll.dll
Win32Thread: 0x00000000
CrossThreadFlags: PS_CROSS_THREAD_FLAGS_DEADTHREAD
0x77cbc500 4883ec48         SUB RSP, 0x48
0x77cbc504 4c8bc9           MOV R9, RCX
0x77cbc507 488b0552da1000   MOV RAX, [RIP+0x10da52]
0x77cbc50e 4885c0           TEST RAX, RAX
0x77cbc511 0f84e3840300     JZ 0x77cf49fa
0x77cbc517 4c               DB 0x4c
------
ETHREAD: 0xfffffa80021e0060 Pid: 492 Tid: 264
Tags: 
Created: 2019-12-11 14:37:13 UTC+0000
Exited: 1970-01-01 00:00:00 UTC+0000
Owning Process: lsass.exe
Attached Process: lsass.exe
State: Waiting:DelayExecution
BasePriority: 0x9
Priority: 0x9
TEB: 0x7fffffae000
StartAddress: 0x77cbc500 ntdll.dll
Win32Thread: 0x00000000
CrossThreadFlags: PS_CROSS_THREAD_FLAGS_DEADTHREAD
0x77cbc500 4883ec48         SUB RSP, 0x48
0x77cbc504 4c8bc9           MOV R9, RCX
0x77cbc507 488b0552da1000   MOV RAX, [RIP+0x10da52]
0x77cbc50e 4885c0           TEST RAX, RAX
0x77cbc511 0f84e3840300     JZ 0x77cf49fa
0x77cbc517 4c               DB 0x4c
------
ETHREAD: 0xfffffa80010467f0 Pid: 604 Tid: 2952
Tags: 
Created: 2019-12-11 14:37:42 UTC+0000
Exited: 1970-01-01 00:00:00 UTC+0000
Owning Process: explorer.exe
Attached Process: explorer.exe
State: Waiting:WrQueue
BasePriority: 0x8
Priority: 0xa
TEB: 0x7fffff7e000
StartAddress: 0x77cbc500 ntdll.dll
Win32Thread: 0xfffff900c1e60c30
CrossThreadFlags: PS_CROSS_THREAD_FLAGS_DEADTHREAD
0x77cbc500 4883ec48         SUB RSP, 0x48
0x77cbc504 4c8bc9           MOV R9, RCX
0x77cbc507 488b0552da1000   MOV RAX, [RIP+0x10da52]
0x77cbc50e 4885c0           TEST RAX, RAX
0x77cbc511 0f84e3840300     JZ 0x77cf49fa
0x77cbc517 4c               DB 0x4c
------
ETHREAD: 0xfffffa8000f41060 Pid: 2908 Tid: 2332
Tags: 
Created: 2019-12-11 14:37:13 UTC+0000
Exited: 1970-01-01 00:00:00 UTC+0000
Owning Process: taskhost.exe
Attached Process: taskhost.exe
State: Waiting:UserRequest
BasePriority: 0x8
Priority: 0xa
TEB: 0x7fffffd9000
StartAddress: 0x77cbc500 ntdll.dll
Win32Thread: 0xfffff900c01ee3b0
CrossThreadFlags: PS_CROSS_THREAD_FLAGS_DEADTHREAD
0x77cbc500 4883ec48         SUB RSP, 0x48
0x77cbc504 4c8bc9           MOV R9, RCX
0x77cbc507 488b0552da1000   MOV RAX, [RIP+0x10da52]
0x77cbc50e 4885c0           TEST RAX, RAX
0x77cbc511 0f84e3840300     JZ 0x77cf49fa
0x77cbc517 4c               DB 0x4c
------
ETHREAD: 0xfffffa8001cba9b0 Pid: 948 Tid: 1788
Tags: 
Created: 2019-12-11 14:16:09 UTC+0000
Exited: 1970-01-01 00:00:00 UTC+0000
Owning Process: svchost.exe
Attached Process: svchost.exe
State: Waiting:UserRequest
BasePriority: 0x8
Priority: 0x8
TEB: 0x7fffffa8000
StartAddress: 0x77cbc500 ntdll.dll
Win32Thread: 0x00000000
CrossThreadFlags: PS_CROSS_THREAD_FLAGS_DEADTHREAD
0x77cbc500 4883ec48         SUB RSP, 0x48
0x77cbc504 4c8bc9           MOV R9, RCX
0x77cbc507 488b0552da1000   MOV RAX, [RIP+0x10da52]
0x77cbc50e 4885c0           TEST RAX, RAX
0x77cbc511 0f84e3840300     JZ 0x77cf49fa
0x77cbc517 4c               DB 0x4c
------
ETHREAD: 0x3fb13b60 Pid: 2524 Tid: 2668
Tags: ScannerOnly
Created: 2019-12-11 14:37:21 UTC+0000
Exited: 1970-01-01 00:00:00 UTC+0000
Owning Process: SearchProtocol
Attached Process: SearchProtocol
State: Waiting:WrQueue
BasePriority: 0x4
Priority: 0x4
TEB: 0x7fffffd4000
StartAddress: 0x77cbc500 ntdll.dll
Win32Thread: 0xfffff900c2301c30
CrossThreadFlags: PS_CROSS_THREAD_FLAGS_DEADTHREAD
0x77cbc500 4883ec48         SUB RSP, 0x48
0x77cbc504 4c8bc9           MOV R9, RCX
0x77cbc507 488b0552da1000   MOV RAX, [RIP+0x10da52]
0x77cbc50e 4885c0           TEST RAX, RAX
0x77cbc511 0f84e3840300     JZ 0x77cf49fa
0x77cbc517 4c               DB 0x4c
------
ETHREAD: 0x3fb14950 Pid: 2524 Tid: 440
Tags: ScannerOnly
Created: 2019-12-11 14:37:21 UTC+0000
Exited: 1970-01-01 00:00:00 UTC+0000
Owning Process: SearchProtocol
Attached Process: SearchProtocol
State: Waiting:DelayExecution
BasePriority: 0x4
Priority: 0x4
TEB: 0x7fffffac000
StartAddress: 0x77cbc500 ntdll.dll
Win32Thread: 0xfffff900c22f1c30
CrossThreadFlags: PS_CROSS_THREAD_FLAGS_DEADTHREAD
0x77cbc500 4883ec48         SUB RSP, 0x48
0x77cbc504 4c8bc9           MOV R9, RCX
0x77cbc507 488b0552da1000   MOV RAX, [RIP+0x10da52]
0x77cbc50e 4885c0           TEST RAX, RAX
0x77cbc511 0f84e3840300     JZ 0x77cf49fa
0x77cbc517 4c               DB 0x4c
------
ETHREAD: 0xfffffa8000d75b60 Pid: 4 Tid: 144
Tags: 
Created: 2019-12-11 13:41:22 UTC+0000
Exited: 1970-01-01 00:00:00 UTC+0000
Owning Process: System
Attached Process: System
State: Waiting:Executive
BasePriority: 0xf
Priority: 0xf
TEB: 0x00000000
StartAddress: 0xfffff800029bb064 ntoskrnl.exe
Win32Thread: 0x00000000
CrossThreadFlags: PS_CROSS_THREAD_FLAGS_DEADTHREAD
0xfffff800029bb064 48895c2410       MOV [RSP+0x10], RBX
0xfffff800029bb069 48896c2418       MOV [RSP+0x18], RBP
0xfffff800029bb06e 4889742420       MOV [RSP+0x20], RSI
0xfffff800029bb073 57               PUSH RDI
0xfffff800029bb074 4154             PUSH R12
0xfffff800029bb076 4155             PUSH R13
0xfffff800029bb078 4156             PUSH R14
0xfffff800029bb07a 4157             PUSH R15
------
ETHREAD: 0xfffffa8001c81660 Pid: 320 Tid: 468
Tags: 
Created: 2019-12-11 13:41:34 UTC+0000
Exited: 1970-01-01 00:00:00 UTC+0000
Owning Process: csrss.exe
Attached Process: csrss.exe
State: Waiting:WrUserRequest
BasePriority: 0xd
Priority: 0xf
TEB: 0x7fffffac000
StartAddress: 0x77cbc500 ntdll.dll
Win32Thread: 0xfffff900c014b2e0
CrossThreadFlags: PS_CROSS_THREAD_FLAGS_DEADTHREAD
0x77cbc500 4883ec48         SUB RSP, 0x48
0x77cbc504 4c8bc9           MOV R9, RCX
0x77cbc507 488b0552da1000   MOV RAX, [RIP+0x10da52]
0x77cbc50e 4885c0           TEST RAX, RAX
0x77cbc511 0f84e3840300     JZ 0x77cf49fa
0x77cbc517 4c               DB 0x4c
------
ETHREAD: 0xfffffa8002003060 Pid: 1372 Tid: 1536
Tags: 
Created: 2019-12-11 13:41:57 UTC+0000
Exited: 1970-01-01 00:00:00 UTC+0000
Owning Process: svchost.exe
Attached Process: svchost.exe
State: Waiting:UserRequest
BasePriority: 0x8
Priority: 0x9
TEB: 0x7fffffac000
StartAddress: 0x77cbc500 ntdll.dll
Win32Thread: 0x00000000
CrossThreadFlags: PS_CROSS_THREAD_FLAGS_DEADTHREAD
0x77cbc500 4883ec48         SUB RSP, 0x48
0x77cbc504 4c8bc9           MOV R9, RCX
0x77cbc507 488b0552da1000   MOV RAX, [RIP+0x10da52]
0x77cbc50e 4885c0           TEST RAX, RAX
0x77cbc511 0f84e3840300     JZ 0x77cf49fa
0x77cbc517 4c               DB 0x4c
